
Bongo-cat-fidget-toy.elf:     file format elf32-littlearm

Sections:
Idx Name          Size      VMA       LMA       File off  Algn
  0 .isr_vector   000000b8  08000000  08000000  00001000  2**0
                  CONTENTS, ALLOC, LOAD, READONLY, DATA
  1 .text         000031a0  080000b8  080000b8  000010b8  2**2
                  CONTENTS, ALLOC, LOAD, READONLY, CODE
  2 .rodata       00002c40  08003258  08003258  00004258  2**2
                  CONTENTS, ALLOC, LOAD, READONLY, DATA
  3 .ARM.extab    00000000  08005e98  08005e98  00007020  2**0
                  CONTENTS
  4 .ARM          00000000  08005e98  08005e98  00007020  2**0
                  CONTENTS
  5 .preinit_array 00000000  08005e98  08005e98  00007020  2**0
                  CONTENTS, ALLOC, LOAD, DATA
  6 .init_array   00000004  08005e98  08005e98  00006e98  2**2
                  CONTENTS, ALLOC, LOAD, READONLY, DATA
  7 .fini_array   00000004  08005e9c  08005e9c  00006e9c  2**2
                  CONTENTS, ALLOC, LOAD, READONLY, DATA
  8 .data         00000020  20000000  08005ea0  00007000  2**2
                  CONTENTS, ALLOC, LOAD, DATA
  9 .bss          000004e4  20000020  08005ec0  00007020  2**2
                  ALLOC
 10 ._user_heap_stack 00000604  20000504  08005ec0  00007504  2**0
                  ALLOC
 11 .ARM.attributes 00000028  00000000  00000000  00007020  2**0
                  CONTENTS, READONLY
 12 .debug_info   0000e167  00000000  00000000  00007048  2**0
                  CONTENTS, READONLY, DEBUGGING, OCTETS
 13 .debug_abbrev 0000235a  00000000  00000000  000151af  2**0
                  CONTENTS, READONLY, DEBUGGING, OCTETS
 14 .debug_aranges 00000e58  00000000  00000000  00017510  2**3
                  CONTENTS, READONLY, DEBUGGING, OCTETS
 15 .debug_rnglists 00000b3a  00000000  00000000  00018368  2**0
                  CONTENTS, READONLY, DEBUGGING, OCTETS
 16 .debug_macro  00015677  00000000  00000000  00018ea2  2**0
                  CONTENTS, READONLY, DEBUGGING, OCTETS
 17 .debug_line   00011994  00000000  00000000  0002e519  2**0
                  CONTENTS, READONLY, DEBUGGING, OCTETS
 18 .debug_str    00087bf5  00000000  00000000  0003fead  2**0
                  CONTENTS, READONLY, DEBUGGING, OCTETS
 19 .comment      00000043  00000000  00000000  000c7aa2  2**0
                  CONTENTS, READONLY
 20 .debug_frame  00003444  00000000  00000000  000c7ae8  2**2
                  CONTENTS, READONLY, DEBUGGING, OCTETS
 21 .debug_line_str 0000006b  00000000  00000000  000caf2c  2**0
                  CONTENTS, READONLY, DEBUGGING, OCTETS

Disassembly of section .text:

080000b8 <__do_global_dtors_aux>:
 80000b8:	b510      	push	{r4, lr}
 80000ba:	4c06      	ldr	r4, [pc, #24]	@ (80000d4 <__do_global_dtors_aux+0x1c>)
 80000bc:	7823      	ldrb	r3, [r4, #0]
 80000be:	2b00      	cmp	r3, #0
 80000c0:	d107      	bne.n	80000d2 <__do_global_dtors_aux+0x1a>
 80000c2:	4b05      	ldr	r3, [pc, #20]	@ (80000d8 <__do_global_dtors_aux+0x20>)
 80000c4:	2b00      	cmp	r3, #0
 80000c6:	d002      	beq.n	80000ce <__do_global_dtors_aux+0x16>
 80000c8:	4804      	ldr	r0, [pc, #16]	@ (80000dc <__do_global_dtors_aux+0x24>)
 80000ca:	e000      	b.n	80000ce <__do_global_dtors_aux+0x16>
 80000cc:	bf00      	nop
 80000ce:	2301      	movs	r3, #1
 80000d0:	7023      	strb	r3, [r4, #0]
 80000d2:	bd10      	pop	{r4, pc}
 80000d4:	20000020 	.word	0x20000020
 80000d8:	00000000 	.word	0x00000000
 80000dc:	08003240 	.word	0x08003240

080000e0 <frame_dummy>:
 80000e0:	4b04      	ldr	r3, [pc, #16]	@ (80000f4 <frame_dummy+0x14>)
 80000e2:	b510      	push	{r4, lr}
 80000e4:	2b00      	cmp	r3, #0
 80000e6:	d003      	beq.n	80000f0 <frame_dummy+0x10>
 80000e8:	4903      	ldr	r1, [pc, #12]	@ (80000f8 <frame_dummy+0x18>)
 80000ea:	4804      	ldr	r0, [pc, #16]	@ (80000fc <frame_dummy+0x1c>)
 80000ec:	e000      	b.n	80000f0 <frame_dummy+0x10>
 80000ee:	bf00      	nop
 80000f0:	bd10      	pop	{r4, pc}
 80000f2:	46c0      	nop			@ (mov r8, r8)
 80000f4:	00000000 	.word	0x00000000
 80000f8:	20000024 	.word	0x20000024
 80000fc:	08003240 	.word	0x08003240

08000100 <__udivsi3>:
 8000100:	2200      	movs	r2, #0
 8000102:	0843      	lsrs	r3, r0, #1
 8000104:	428b      	cmp	r3, r1
 8000106:	d374      	bcc.n	80001f2 <__udivsi3+0xf2>
 8000108:	0903      	lsrs	r3, r0, #4
 800010a:	428b      	cmp	r3, r1
 800010c:	d35f      	bcc.n	80001ce <__udivsi3+0xce>
 800010e:	0a03      	lsrs	r3, r0, #8
 8000110:	428b      	cmp	r3, r1
 8000112:	d344      	bcc.n	800019e <__udivsi3+0x9e>
 8000114:	0b03      	lsrs	r3, r0, #12
 8000116:	428b      	cmp	r3, r1
 8000118:	d328      	bcc.n	800016c <__udivsi3+0x6c>
 800011a:	0c03      	lsrs	r3, r0, #16
 800011c:	428b      	cmp	r3, r1
 800011e:	d30d      	bcc.n	800013c <__udivsi3+0x3c>
 8000120:	22ff      	movs	r2, #255	@ 0xff
 8000122:	0209      	lsls	r1, r1, #8
 8000124:	ba12      	rev	r2, r2
 8000126:	0c03      	lsrs	r3, r0, #16
 8000128:	428b      	cmp	r3, r1
 800012a:	d302      	bcc.n	8000132 <__udivsi3+0x32>
 800012c:	1212      	asrs	r2, r2, #8
 800012e:	0209      	lsls	r1, r1, #8
 8000130:	d065      	beq.n	80001fe <__udivsi3+0xfe>
 8000132:	0b03      	lsrs	r3, r0, #12
 8000134:	428b      	cmp	r3, r1
 8000136:	d319      	bcc.n	800016c <__udivsi3+0x6c>
 8000138:	e000      	b.n	800013c <__udivsi3+0x3c>
 800013a:	0a09      	lsrs	r1, r1, #8
 800013c:	0bc3      	lsrs	r3, r0, #15
 800013e:	428b      	cmp	r3, r1
 8000140:	d301      	bcc.n	8000146 <__udivsi3+0x46>
 8000142:	03cb      	lsls	r3, r1, #15
 8000144:	1ac0      	subs	r0, r0, r3
 8000146:	4152      	adcs	r2, r2
 8000148:	0b83      	lsrs	r3, r0, #14
 800014a:	428b      	cmp	r3, r1
 800014c:	d301      	bcc.n	8000152 <__udivsi3+0x52>
 800014e:	038b      	lsls	r3, r1, #14
 8000150:	1ac0      	subs	r0, r0, r3
 8000152:	4152      	adcs	r2, r2
 8000154:	0b43      	lsrs	r3, r0, #13
 8000156:	428b      	cmp	r3, r1
 8000158:	d301      	bcc.n	800015e <__udivsi3+0x5e>
 800015a:	034b      	lsls	r3, r1, #13
 800015c:	1ac0      	subs	r0, r0, r3
 800015e:	4152      	adcs	r2, r2
 8000160:	0b03      	lsrs	r3, r0, #12
 8000162:	428b      	cmp	r3, r1
 8000164:	d301      	bcc.n	800016a <__udivsi3+0x6a>
 8000166:	030b      	lsls	r3, r1, #12
 8000168:	1ac0      	subs	r0, r0, r3
 800016a:	4152      	adcs	r2, r2
 800016c:	0ac3      	lsrs	r3, r0, #11
 800016e:	428b      	cmp	r3, r1
 8000170:	d301      	bcc.n	8000176 <__udivsi3+0x76>
 8000172:	02cb      	lsls	r3, r1, #11
 8000174:	1ac0      	subs	r0, r0, r3
 8000176:	4152      	adcs	r2, r2
 8000178:	0a83      	lsrs	r3, r0, #10
 800017a:	428b      	cmp	r3, r1
 800017c:	d301      	bcc.n	8000182 <__udivsi3+0x82>
 800017e:	028b      	lsls	r3, r1, #10
 8000180:	1ac0      	subs	r0, r0, r3
 8000182:	4152      	adcs	r2, r2
 8000184:	0a43      	lsrs	r3, r0, #9
 8000186:	428b      	cmp	r3, r1
 8000188:	d301      	bcc.n	800018e <__udivsi3+0x8e>
 800018a:	024b      	lsls	r3, r1, #9
 800018c:	1ac0      	subs	r0, r0, r3
 800018e:	4152      	adcs	r2, r2
 8000190:	0a03      	lsrs	r3, r0, #8
 8000192:	428b      	cmp	r3, r1
 8000194:	d301      	bcc.n	800019a <__udivsi3+0x9a>
 8000196:	020b      	lsls	r3, r1, #8
 8000198:	1ac0      	subs	r0, r0, r3
 800019a:	4152      	adcs	r2, r2
 800019c:	d2cd      	bcs.n	800013a <__udivsi3+0x3a>
 800019e:	09c3      	lsrs	r3, r0, #7
 80001a0:	428b      	cmp	r3, r1
 80001a2:	d301      	bcc.n	80001a8 <__udivsi3+0xa8>
 80001a4:	01cb      	lsls	r3, r1, #7
 80001a6:	1ac0      	subs	r0, r0, r3
 80001a8:	4152      	adcs	r2, r2
 80001aa:	0983      	lsrs	r3, r0, #6
 80001ac:	428b      	cmp	r3, r1
 80001ae:	d301      	bcc.n	80001b4 <__udivsi3+0xb4>
 80001b0:	018b      	lsls	r3, r1, #6
 80001b2:	1ac0      	subs	r0, r0, r3
 80001b4:	4152      	adcs	r2, r2
 80001b6:	0943      	lsrs	r3, r0, #5
 80001b8:	428b      	cmp	r3, r1
 80001ba:	d301      	bcc.n	80001c0 <__udivsi3+0xc0>
 80001bc:	014b      	lsls	r3, r1, #5
 80001be:	1ac0      	subs	r0, r0, r3
 80001c0:	4152      	adcs	r2, r2
 80001c2:	0903      	lsrs	r3, r0, #4
 80001c4:	428b      	cmp	r3, r1
 80001c6:	d301      	bcc.n	80001cc <__udivsi3+0xcc>
 80001c8:	010b      	lsls	r3, r1, #4
 80001ca:	1ac0      	subs	r0, r0, r3
 80001cc:	4152      	adcs	r2, r2
 80001ce:	08c3      	lsrs	r3, r0, #3
 80001d0:	428b      	cmp	r3, r1
 80001d2:	d301      	bcc.n	80001d8 <__udivsi3+0xd8>
 80001d4:	00cb      	lsls	r3, r1, #3
 80001d6:	1ac0      	subs	r0, r0, r3
 80001d8:	4152      	adcs	r2, r2
 80001da:	0883      	lsrs	r3, r0, #2
 80001dc:	428b      	cmp	r3, r1
 80001de:	d301      	bcc.n	80001e4 <__udivsi3+0xe4>
 80001e0:	008b      	lsls	r3, r1, #2
 80001e2:	1ac0      	subs	r0, r0, r3
 80001e4:	4152      	adcs	r2, r2
 80001e6:	0843      	lsrs	r3, r0, #1
 80001e8:	428b      	cmp	r3, r1
 80001ea:	d301      	bcc.n	80001f0 <__udivsi3+0xf0>
 80001ec:	004b      	lsls	r3, r1, #1
 80001ee:	1ac0      	subs	r0, r0, r3
 80001f0:	4152      	adcs	r2, r2
 80001f2:	1a41      	subs	r1, r0, r1
 80001f4:	d200      	bcs.n	80001f8 <__udivsi3+0xf8>
 80001f6:	4601      	mov	r1, r0
 80001f8:	4152      	adcs	r2, r2
 80001fa:	4610      	mov	r0, r2
 80001fc:	4770      	bx	lr
 80001fe:	e7ff      	b.n	8000200 <__udivsi3+0x100>
 8000200:	b501      	push	{r0, lr}
 8000202:	2000      	movs	r0, #0
 8000204:	f000 f8f0 	bl	80003e8 <__aeabi_idiv0>
 8000208:	bd02      	pop	{r1, pc}
 800020a:	46c0      	nop			@ (mov r8, r8)

0800020c <__aeabi_uidivmod>:
 800020c:	2900      	cmp	r1, #0
 800020e:	d0f7      	beq.n	8000200 <__udivsi3+0x100>
 8000210:	e776      	b.n	8000100 <__udivsi3>
 8000212:	4770      	bx	lr

08000214 <__divsi3>:
 8000214:	4603      	mov	r3, r0
 8000216:	430b      	orrs	r3, r1
 8000218:	d47f      	bmi.n	800031a <__divsi3+0x106>
 800021a:	2200      	movs	r2, #0
 800021c:	0843      	lsrs	r3, r0, #1
 800021e:	428b      	cmp	r3, r1
 8000220:	d374      	bcc.n	800030c <__divsi3+0xf8>
 8000222:	0903      	lsrs	r3, r0, #4
 8000224:	428b      	cmp	r3, r1
 8000226:	d35f      	bcc.n	80002e8 <__divsi3+0xd4>
 8000228:	0a03      	lsrs	r3, r0, #8
 800022a:	428b      	cmp	r3, r1
 800022c:	d344      	bcc.n	80002b8 <__divsi3+0xa4>
 800022e:	0b03      	lsrs	r3, r0, #12
 8000230:	428b      	cmp	r3, r1
 8000232:	d328      	bcc.n	8000286 <__divsi3+0x72>
 8000234:	0c03      	lsrs	r3, r0, #16
 8000236:	428b      	cmp	r3, r1
 8000238:	d30d      	bcc.n	8000256 <__divsi3+0x42>
 800023a:	22ff      	movs	r2, #255	@ 0xff
 800023c:	0209      	lsls	r1, r1, #8
 800023e:	ba12      	rev	r2, r2
 8000240:	0c03      	lsrs	r3, r0, #16
 8000242:	428b      	cmp	r3, r1
 8000244:	d302      	bcc.n	800024c <__divsi3+0x38>
 8000246:	1212      	asrs	r2, r2, #8
 8000248:	0209      	lsls	r1, r1, #8
 800024a:	d065      	beq.n	8000318 <__divsi3+0x104>
 800024c:	0b03      	lsrs	r3, r0, #12
 800024e:	428b      	cmp	r3, r1
 8000250:	d319      	bcc.n	8000286 <__divsi3+0x72>
 8000252:	e000      	b.n	8000256 <__divsi3+0x42>
 8000254:	0a09      	lsrs	r1, r1, #8
 8000256:	0bc3      	lsrs	r3, r0, #15
 8000258:	428b      	cmp	r3, r1
 800025a:	d301      	bcc.n	8000260 <__divsi3+0x4c>
 800025c:	03cb      	lsls	r3, r1, #15
 800025e:	1ac0      	subs	r0, r0, r3
 8000260:	4152      	adcs	r2, r2
 8000262:	0b83      	lsrs	r3, r0, #14
 8000264:	428b      	cmp	r3, r1
 8000266:	d301      	bcc.n	800026c <__divsi3+0x58>
 8000268:	038b      	lsls	r3, r1, #14
 800026a:	1ac0      	subs	r0, r0, r3
 800026c:	4152      	adcs	r2, r2
 800026e:	0b43      	lsrs	r3, r0, #13
 8000270:	428b      	cmp	r3, r1
 8000272:	d301      	bcc.n	8000278 <__divsi3+0x64>
 8000274:	034b      	lsls	r3, r1, #13
 8000276:	1ac0      	subs	r0, r0, r3
 8000278:	4152      	adcs	r2, r2
 800027a:	0b03      	lsrs	r3, r0, #12
 800027c:	428b      	cmp	r3, r1
 800027e:	d301      	bcc.n	8000284 <__divsi3+0x70>
 8000280:	030b      	lsls	r3, r1, #12
 8000282:	1ac0      	subs	r0, r0, r3
 8000284:	4152      	adcs	r2, r2
 8000286:	0ac3      	lsrs	r3, r0, #11
 8000288:	428b      	cmp	r3, r1
 800028a:	d301      	bcc.n	8000290 <__divsi3+0x7c>
 800028c:	02cb      	lsls	r3, r1, #11
 800028e:	1ac0      	subs	r0, r0, r3
 8000290:	4152      	adcs	r2, r2
 8000292:	0a83      	lsrs	r3, r0, #10
 8000294:	428b      	cmp	r3, r1
 8000296:	d301      	bcc.n	800029c <__divsi3+0x88>
 8000298:	028b      	lsls	r3, r1, #10
 800029a:	1ac0      	subs	r0, r0, r3
 800029c:	4152      	adcs	r2, r2
 800029e:	0a43      	lsrs	r3, r0, #9
 80002a0:	428b      	cmp	r3, r1
 80002a2:	d301      	bcc.n	80002a8 <__divsi3+0x94>
 80002a4:	024b      	lsls	r3, r1, #9
 80002a6:	1ac0      	subs	r0, r0, r3
 80002a8:	4152      	adcs	r2, r2
 80002aa:	0a03      	lsrs	r3, r0, #8
 80002ac:	428b      	cmp	r3, r1
 80002ae:	d301      	bcc.n	80002b4 <__divsi3+0xa0>
 80002b0:	020b      	lsls	r3, r1, #8
 80002b2:	1ac0      	subs	r0, r0, r3
 80002b4:	4152      	adcs	r2, r2
 80002b6:	d2cd      	bcs.n	8000254 <__divsi3+0x40>
 80002b8:	09c3      	lsrs	r3, r0, #7
 80002ba:	428b      	cmp	r3, r1
 80002bc:	d301      	bcc.n	80002c2 <__divsi3+0xae>
 80002be:	01cb      	lsls	r3, r1, #7
 80002c0:	1ac0      	subs	r0, r0, r3
 80002c2:	4152      	adcs	r2, r2
 80002c4:	0983      	lsrs	r3, r0, #6
 80002c6:	428b      	cmp	r3, r1
 80002c8:	d301      	bcc.n	80002ce <__divsi3+0xba>
 80002ca:	018b      	lsls	r3, r1, #6
 80002cc:	1ac0      	subs	r0, r0, r3
 80002ce:	4152      	adcs	r2, r2
 80002d0:	0943      	lsrs	r3, r0, #5
 80002d2:	428b      	cmp	r3, r1
 80002d4:	d301      	bcc.n	80002da <__divsi3+0xc6>
 80002d6:	014b      	lsls	r3, r1, #5
 80002d8:	1ac0      	subs	r0, r0, r3
 80002da:	4152      	adcs	r2, r2
 80002dc:	0903      	lsrs	r3, r0, #4
 80002de:	428b      	cmp	r3, r1
 80002e0:	d301      	bcc.n	80002e6 <__divsi3+0xd2>
 80002e2:	010b      	lsls	r3, r1, #4
 80002e4:	1ac0      	subs	r0, r0, r3
 80002e6:	4152      	adcs	r2, r2
 80002e8:	08c3      	lsrs	r3, r0, #3
 80002ea:	428b      	cmp	r3, r1
 80002ec:	d301      	bcc.n	80002f2 <__divsi3+0xde>
 80002ee:	00cb      	lsls	r3, r1, #3
 80002f0:	1ac0      	subs	r0, r0, r3
 80002f2:	4152      	adcs	r2, r2
 80002f4:	0883      	lsrs	r3, r0, #2
 80002f6:	428b      	cmp	r3, r1
 80002f8:	d301      	bcc.n	80002fe <__divsi3+0xea>
 80002fa:	008b      	lsls	r3, r1, #2
 80002fc:	1ac0      	subs	r0, r0, r3
 80002fe:	4152      	adcs	r2, r2
 8000300:	0843      	lsrs	r3, r0, #1
 8000302:	428b      	cmp	r3, r1
 8000304:	d301      	bcc.n	800030a <__divsi3+0xf6>
 8000306:	004b      	lsls	r3, r1, #1
 8000308:	1ac0      	subs	r0, r0, r3
 800030a:	4152      	adcs	r2, r2
 800030c:	1a41      	subs	r1, r0, r1
 800030e:	d200      	bcs.n	8000312 <__divsi3+0xfe>
 8000310:	4601      	mov	r1, r0
 8000312:	4152      	adcs	r2, r2
 8000314:	4610      	mov	r0, r2
 8000316:	4770      	bx	lr
 8000318:	e05d      	b.n	80003d6 <__divsi3+0x1c2>
 800031a:	0fca      	lsrs	r2, r1, #31
 800031c:	d000      	beq.n	8000320 <__divsi3+0x10c>
 800031e:	4249      	negs	r1, r1
 8000320:	1003      	asrs	r3, r0, #32
 8000322:	d300      	bcc.n	8000326 <__divsi3+0x112>
 8000324:	4240      	negs	r0, r0
 8000326:	4053      	eors	r3, r2
 8000328:	2200      	movs	r2, #0
 800032a:	469c      	mov	ip, r3
 800032c:	0903      	lsrs	r3, r0, #4
 800032e:	428b      	cmp	r3, r1
 8000330:	d32d      	bcc.n	800038e <__divsi3+0x17a>
 8000332:	0a03      	lsrs	r3, r0, #8
 8000334:	428b      	cmp	r3, r1
 8000336:	d312      	bcc.n	800035e <__divsi3+0x14a>
 8000338:	22fc      	movs	r2, #252	@ 0xfc
 800033a:	0189      	lsls	r1, r1, #6
 800033c:	ba12      	rev	r2, r2
 800033e:	0a03      	lsrs	r3, r0, #8
 8000340:	428b      	cmp	r3, r1
 8000342:	d30c      	bcc.n	800035e <__divsi3+0x14a>
 8000344:	0189      	lsls	r1, r1, #6
 8000346:	1192      	asrs	r2, r2, #6
 8000348:	428b      	cmp	r3, r1
 800034a:	d308      	bcc.n	800035e <__divsi3+0x14a>
 800034c:	0189      	lsls	r1, r1, #6
 800034e:	1192      	asrs	r2, r2, #6
 8000350:	428b      	cmp	r3, r1
 8000352:	d304      	bcc.n	800035e <__divsi3+0x14a>
 8000354:	0189      	lsls	r1, r1, #6
 8000356:	d03a      	beq.n	80003ce <__divsi3+0x1ba>
 8000358:	1192      	asrs	r2, r2, #6
 800035a:	e000      	b.n	800035e <__divsi3+0x14a>
 800035c:	0989      	lsrs	r1, r1, #6
 800035e:	09c3      	lsrs	r3, r0, #7
 8000360:	428b      	cmp	r3, r1
 8000362:	d301      	bcc.n	8000368 <__divsi3+0x154>
 8000364:	01cb      	lsls	r3, r1, #7
 8000366:	1ac0      	subs	r0, r0, r3
 8000368:	4152      	adcs	r2, r2
 800036a:	0983      	lsrs	r3, r0, #6
 800036c:	428b      	cmp	r3, r1
 800036e:	d301      	bcc.n	8000374 <__divsi3+0x160>
 8000370:	018b      	lsls	r3, r1, #6
 8000372:	1ac0      	subs	r0, r0, r3
 8000374:	4152      	adcs	r2, r2
 8000376:	0943      	lsrs	r3, r0, #5
 8000378:	428b      	cmp	r3, r1
 800037a:	d301      	bcc.n	8000380 <__divsi3+0x16c>
 800037c:	014b      	lsls	r3, r1, #5
 800037e:	1ac0      	subs	r0, r0, r3
 8000380:	4152      	adcs	r2, r2
 8000382:	0903      	lsrs	r3, r0, #4
 8000384:	428b      	cmp	r3, r1
 8000386:	d301      	bcc.n	800038c <__divsi3+0x178>
 8000388:	010b      	lsls	r3, r1, #4
 800038a:	1ac0      	subs	r0, r0, r3
 800038c:	4152      	adcs	r2, r2
 800038e:	08c3      	lsrs	r3, r0, #3
 8000390:	428b      	cmp	r3, r1
 8000392:	d301      	bcc.n	8000398 <__divsi3+0x184>
 8000394:	00cb      	lsls	r3, r1, #3
 8000396:	1ac0      	subs	r0, r0, r3
 8000398:	4152      	adcs	r2, r2
 800039a:	0883      	lsrs	r3, r0, #2
 800039c:	428b      	cmp	r3, r1
 800039e:	d301      	bcc.n	80003a4 <__divsi3+0x190>
 80003a0:	008b      	lsls	r3, r1, #2
 80003a2:	1ac0      	subs	r0, r0, r3
 80003a4:	4152      	adcs	r2, r2
 80003a6:	d2d9      	bcs.n	800035c <__divsi3+0x148>
 80003a8:	0843      	lsrs	r3, r0, #1
 80003aa:	428b      	cmp	r3, r1
 80003ac:	d301      	bcc.n	80003b2 <__divsi3+0x19e>
 80003ae:	004b      	lsls	r3, r1, #1
 80003b0:	1ac0      	subs	r0, r0, r3
 80003b2:	4152      	adcs	r2, r2
 80003b4:	1a41      	subs	r1, r0, r1
 80003b6:	d200      	bcs.n	80003ba <__divsi3+0x1a6>
 80003b8:	4601      	mov	r1, r0
 80003ba:	4663      	mov	r3, ip
 80003bc:	4152      	adcs	r2, r2
 80003be:	105b      	asrs	r3, r3, #1
 80003c0:	4610      	mov	r0, r2
 80003c2:	d301      	bcc.n	80003c8 <__divsi3+0x1b4>
 80003c4:	4240      	negs	r0, r0
 80003c6:	2b00      	cmp	r3, #0
 80003c8:	d500      	bpl.n	80003cc <__divsi3+0x1b8>
 80003ca:	4249      	negs	r1, r1
 80003cc:	4770      	bx	lr
 80003ce:	4663      	mov	r3, ip
 80003d0:	105b      	asrs	r3, r3, #1
 80003d2:	d300      	bcc.n	80003d6 <__divsi3+0x1c2>
 80003d4:	4240      	negs	r0, r0
 80003d6:	b501      	push	{r0, lr}
 80003d8:	2000      	movs	r0, #0
 80003da:	f000 f805 	bl	80003e8 <__aeabi_idiv0>
 80003de:	bd02      	pop	{r1, pc}

080003e0 <__aeabi_idivmod>:
 80003e0:	2900      	cmp	r1, #0
 80003e2:	d0f8      	beq.n	80003d6 <__divsi3+0x1c2>
 80003e4:	e716      	b.n	8000214 <__divsi3>
 80003e6:	4770      	bx	lr

080003e8 <__aeabi_idiv0>:
 80003e8:	4770      	bx	lr
 80003ea:	46c0      	nop			@ (mov r8, r8)

080003ec <draw_animation>:
int sw_state_right;

uint8_t idle_cnt;


void draw_animation(char* frame){
 80003ec:	b580      	push	{r7, lr}
 80003ee:	b084      	sub	sp, #16
 80003f0:	af02      	add	r7, sp, #8
 80003f2:	6078      	str	r0, [r7, #4]
	ssd1306_Fill(Black);
 80003f4:	2000      	movs	r0, #0
 80003f6:	f000 fbbd 	bl	8000b74 <ssd1306_Fill>
	ssd1306_DrawBitmap(0,0,frame,128,64,White);
 80003fa:	687a      	ldr	r2, [r7, #4]
 80003fc:	2301      	movs	r3, #1
 80003fe:	9301      	str	r3, [sp, #4]
 8000400:	2340      	movs	r3, #64	@ 0x40
 8000402:	9300      	str	r3, [sp, #0]
 8000404:	2380      	movs	r3, #128	@ 0x80
 8000406:	2100      	movs	r1, #0
 8000408:	2000      	movs	r0, #0
 800040a:	f000 fc6d 	bl	8000ce8 <ssd1306_DrawBitmap>
//	ssd1306_UpdateScreen();
}
 800040e:	46c0      	nop			@ (mov r8, r8)
 8000410:	46bd      	mov	sp, r7
 8000412:	b002      	add	sp, #8
 8000414:	bd80      	pop	{r7, pc}

08000416 <draw_animation_erase>:

void draw_animation_erase(char* frame){
 8000416:	b580      	push	{r7, lr}
 8000418:	b084      	sub	sp, #16
 800041a:	af02      	add	r7, sp, #8
 800041c:	6078      	str	r0, [r7, #4]
	ssd1306_DrawBitmap(0,0,frame,128,64,Black);
 800041e:	687a      	ldr	r2, [r7, #4]
 8000420:	2300      	movs	r3, #0
 8000422:	9301      	str	r3, [sp, #4]
 8000424:	2340      	movs	r3, #64	@ 0x40
 8000426:	9300      	str	r3, [sp, #0]
 8000428:	2380      	movs	r3, #128	@ 0x80
 800042a:	2100      	movs	r1, #0
 800042c:	2000      	movs	r0, #0
 800042e:	f000 fc5b 	bl	8000ce8 <ssd1306_DrawBitmap>
//	ssd1306_UpdateScreen();
}
 8000432:	46c0      	nop			@ (mov r8, r8)
 8000434:	46bd      	mov	sp, r7
 8000436:	b002      	add	sp, #8
 8000438:	bd80      	pop	{r7, pc}

0800043a <draw_animation_transparent>:

void draw_animation_transparent(char* frame){
 800043a:	b580      	push	{r7, lr}
 800043c:	b084      	sub	sp, #16
 800043e:	af02      	add	r7, sp, #8
 8000440:	6078      	str	r0, [r7, #4]
	ssd1306_DrawBitmap(0,0,frame,128,64,White);
 8000442:	687a      	ldr	r2, [r7, #4]
 8000444:	2301      	movs	r3, #1
 8000446:	9301      	str	r3, [sp, #4]
 8000448:	2340      	movs	r3, #64	@ 0x40
 800044a:	9300      	str	r3, [sp, #0]
 800044c:	2380      	movs	r3, #128	@ 0x80
 800044e:	2100      	movs	r1, #0
 8000450:	2000      	movs	r0, #0
 8000452:	f000 fc49 	bl	8000ce8 <ssd1306_DrawBitmap>
//	ssd1306_UpdateScreen();
}
 8000456:	46c0      	nop			@ (mov r8, r8)
 8000458:	46bd      	mov	sp, r7
 800045a:	b002      	add	sp, #8
 800045c:	bd80      	pop	{r7, pc}
	...

08000460 <HAL_TIM_PeriodElapsedCallback>:

// Callback: timer has rolled over
void HAL_TIM_PeriodElapsedCallback(TIM_HandleTypeDef *htim)
{
 8000460:	b580      	push	{r7, lr}
 8000462:	b082      	sub	sp, #8
 8000464:	af00      	add	r7, sp, #0
 8000466:	6078      	str	r0, [r7, #4]
//  // Check which version of the timer triggered this callback and toggle LED
	if (htim == &htim14 )
 8000468:	687a      	ldr	r2, [r7, #4]
 800046a:	4b0d      	ldr	r3, [pc, #52]	@ (80004a0 <HAL_TIM_PeriodElapsedCallback+0x40>)
 800046c:	429a      	cmp	r2, r3
 800046e:	d112      	bne.n	8000496 <HAL_TIM_PeriodElapsedCallback+0x36>
	{
		sw_state_left = HAL_GPIO_ReadPin(SW_LEFT_GPIO_Port, SW_LEFT_Pin);
 8000470:	23a0      	movs	r3, #160	@ 0xa0
 8000472:	05db      	lsls	r3, r3, #23
 8000474:	2140      	movs	r1, #64	@ 0x40
 8000476:	0018      	movs	r0, r3
 8000478:	f001 f914 	bl	80016a4 <HAL_GPIO_ReadPin>
 800047c:	0003      	movs	r3, r0
 800047e:	001a      	movs	r2, r3
 8000480:	4b08      	ldr	r3, [pc, #32]	@ (80004a4 <HAL_TIM_PeriodElapsedCallback+0x44>)
 8000482:	601a      	str	r2, [r3, #0]
		sw_state_right = HAL_GPIO_ReadPin(SW_RIGHT_GPIO_Port, SW_RIGHT_Pin);
 8000484:	4b08      	ldr	r3, [pc, #32]	@ (80004a8 <HAL_TIM_PeriodElapsedCallback+0x48>)
 8000486:	2101      	movs	r1, #1
 8000488:	0018      	movs	r0, r3
 800048a:	f001 f90b 	bl	80016a4 <HAL_GPIO_ReadPin>
 800048e:	0003      	movs	r3, r0
 8000490:	001a      	movs	r2, r3
 8000492:	4b06      	ldr	r3, [pc, #24]	@ (80004ac <HAL_TIM_PeriodElapsedCallback+0x4c>)
 8000494:	601a      	str	r2, [r3, #0]
	}
}
 8000496:	46c0      	nop			@ (mov r8, r8)
 8000498:	46bd      	mov	sp, r7
 800049a:	b002      	add	sp, #8
 800049c:	bd80      	pop	{r7, pc}
 800049e:	46c0      	nop			@ (mov r8, r8)
 80004a0:	20000090 	.word	0x20000090
 80004a4:	200000dc 	.word	0x200000dc
 80004a8:	50000400 	.word	0x50000400
 80004ac:	200000e0 	.word	0x200000e0

080004b0 <main>:
/**
  * @brief  The application entry point.
  * @retval int
  */
int main(void)
{
 80004b0:	b580      	push	{r7, lr}
 80004b2:	b086      	sub	sp, #24
 80004b4:	af00      	add	r7, sp, #0
  /* USER CODE END 1 */

  /* MCU Configuration--------------------------------------------------------*/

  /* Reset of all peripherals, Initializes the Flash interface and the Systick. */
  HAL_Init();
 80004b6:	f000 fe09 	bl	80010cc <HAL_Init>
  /* USER CODE BEGIN Init */

  /* USER CODE END Init */

  /* Configure the system clock */
  SystemClock_Config();
 80004ba:	f000 f947 	bl	800074c <SystemClock_Config>
  /* USER CODE BEGIN SysInit */

  /* USER CODE END SysInit */

  /* Initialize all configured peripherals */
  MX_GPIO_Init();
 80004be:	f000 fa21 	bl	8000904 <MX_GPIO_Init>
  MX_I2C1_Init();
 80004c2:	f000 f9b3 	bl	800082c <MX_I2C1_Init>
  MX_TIM14_Init();
 80004c6:	f000 f9f7 	bl	80008b8 <MX_TIM14_Init>

  /* Initialize interrupts */
  MX_NVIC_Init();
 80004ca:	f000 f999 	bl	8000800 <MX_NVIC_Init>
  /* USER CODE BEGIN 2 */
  ssd1306_Init();
 80004ce:	f000 fae5 	bl	8000a9c <ssd1306_Init>
//    ssd1306_TestAll();

  state_e state = IDLE;
 80004d2:	2317      	movs	r3, #23
 80004d4:	18fb      	adds	r3, r7, r3
 80004d6:	2200      	movs	r2, #0
 80004d8:	701a      	strb	r2, [r3, #0]
  int32_t idle_cntr = 0;
 80004da:	2300      	movs	r3, #0
 80004dc:	613b      	str	r3, [r7, #16]
  int32_t tap_left_cntr = 0;
 80004de:	2300      	movs	r3, #0
 80004e0:	60fb      	str	r3, [r7, #12]
  int32_t tap_right_cntr = 0;
 80004e2:	2300      	movs	r3, #0
 80004e4:	60bb      	str	r3, [r7, #8]
  uint8_t left_state = 0;
 80004e6:	1dfb      	adds	r3, r7, #7
 80004e8:	2200      	movs	r2, #0
 80004ea:	701a      	strb	r2, [r3, #0]
  uint8_t right_state = 0;
 80004ec:	1dbb      	adds	r3, r7, #6
 80004ee:	2200      	movs	r2, #0
 80004f0:	701a      	strb	r2, [r3, #0]

  HAL_TIM_Base_Start_IT(&htim14);
 80004f2:	4b8b      	ldr	r3, [pc, #556]	@ (8000720 <main+0x270>)
 80004f4:	0018      	movs	r0, r3
 80004f6:	f002 fc6f 	bl	8002dd8 <HAL_TIM_Base_Start_IT>
  while(1) {
	switch(state){
 80004fa:	2317      	movs	r3, #23
 80004fc:	18fb      	adds	r3, r7, r3
 80004fe:	781b      	ldrb	r3, [r3, #0]
 8000500:	2b00      	cmp	r3, #0
 8000502:	d002      	beq.n	800050a <main+0x5a>
 8000504:	2b01      	cmp	r3, #1
 8000506:	d031      	beq.n	800056c <main+0xbc>
 8000508:	e7f7      	b.n	80004fa <main+0x4a>
	case IDLE:
		if(sw_state_left == 0 || sw_state_right == 0){
 800050a:	4b86      	ldr	r3, [pc, #536]	@ (8000724 <main+0x274>)
 800050c:	681b      	ldr	r3, [r3, #0]
 800050e:	2b00      	cmp	r3, #0
 8000510:	d003      	beq.n	800051a <main+0x6a>
 8000512:	4b85      	ldr	r3, [pc, #532]	@ (8000728 <main+0x278>)
 8000514:	681b      	ldr	r3, [r3, #0]
 8000516:	2b00      	cmp	r3, #0
 8000518:	d10d      	bne.n	8000536 <main+0x86>
			draw_animation(&img_both_up);
 800051a:	4b84      	ldr	r3, [pc, #528]	@ (800072c <main+0x27c>)
 800051c:	0018      	movs	r0, r3
 800051e:	f7ff ff65 	bl	80003ec <draw_animation>
			ssd1306_UpdateScreen();
 8000522:	f000 fb41 	bl	8000ba8 <ssd1306_UpdateScreen>
			HAL_Delay(50);
 8000526:	2032      	movs	r0, #50	@ 0x32
 8000528:	f000 fe56 	bl	80011d8 <HAL_Delay>
			state = SWITCH;
 800052c:	2317      	movs	r3, #23
 800052e:	18fb      	adds	r3, r7, r3
 8000530:	2201      	movs	r2, #1
 8000532:	701a      	strb	r2, [r3, #0]
			  draw_animation(ani_idle[idle_cnt]);
			  ssd1306_UpdateScreen();
			  idle_cnt = (idle_cnt + 1 ) % ani_idle_LEN;
			  HAL_Delay(100);
		}
		break;
 8000534:	e0f2      	b.n	800071c <main+0x26c>
			  draw_animation(ani_idle[idle_cnt]);
 8000536:	4b7e      	ldr	r3, [pc, #504]	@ (8000730 <main+0x280>)
 8000538:	781b      	ldrb	r3, [r3, #0]
 800053a:	001a      	movs	r2, r3
 800053c:	4b7d      	ldr	r3, [pc, #500]	@ (8000734 <main+0x284>)
 800053e:	0092      	lsls	r2, r2, #2
 8000540:	58d3      	ldr	r3, [r2, r3]
 8000542:	0018      	movs	r0, r3
 8000544:	f7ff ff52 	bl	80003ec <draw_animation>
			  ssd1306_UpdateScreen();
 8000548:	f000 fb2e 	bl	8000ba8 <ssd1306_UpdateScreen>
			  idle_cnt = (idle_cnt + 1 ) % ani_idle_LEN;
 800054c:	4b78      	ldr	r3, [pc, #480]	@ (8000730 <main+0x280>)
 800054e:	781b      	ldrb	r3, [r3, #0]
 8000550:	3301      	adds	r3, #1
 8000552:	2205      	movs	r2, #5
 8000554:	0011      	movs	r1, r2
 8000556:	0018      	movs	r0, r3
 8000558:	f7ff ff42 	bl	80003e0 <__aeabi_idivmod>
 800055c:	000b      	movs	r3, r1
 800055e:	b2da      	uxtb	r2, r3
 8000560:	4b73      	ldr	r3, [pc, #460]	@ (8000730 <main+0x280>)
 8000562:	701a      	strb	r2, [r3, #0]
			  HAL_Delay(100);
 8000564:	2064      	movs	r0, #100	@ 0x64
 8000566:	f000 fe37 	bl	80011d8 <HAL_Delay>
		break;
 800056a:	e0d7      	b.n	800071c <main+0x26c>
	case SWITCH:
		// Idle reset routines
		if(sw_state_left == 1 && sw_state_right == 1){
 800056c:	4b6d      	ldr	r3, [pc, #436]	@ (8000724 <main+0x274>)
 800056e:	681b      	ldr	r3, [r3, #0]
 8000570:	2b01      	cmp	r3, #1
 8000572:	d12c      	bne.n	80005ce <main+0x11e>
 8000574:	4b6c      	ldr	r3, [pc, #432]	@ (8000728 <main+0x278>)
 8000576:	681b      	ldr	r3, [r3, #0]
 8000578:	2b01      	cmp	r3, #1
 800057a:	d128      	bne.n	80005ce <main+0x11e>
			draw_animation(&img_both_up);
 800057c:	4b6b      	ldr	r3, [pc, #428]	@ (800072c <main+0x27c>)
 800057e:	0018      	movs	r0, r3
 8000580:	f7ff ff34 	bl	80003ec <draw_animation>
			if(idle_cntr == 0){
 8000584:	693b      	ldr	r3, [r7, #16]
 8000586:	2b00      	cmp	r3, #0
 8000588:	d103      	bne.n	8000592 <main+0xe2>
				idle_cntr = HAL_GetTick();
 800058a:	f000 fe1b 	bl	80011c4 <HAL_GetTick>
 800058e:	0003      	movs	r3, r0
 8000590:	613b      	str	r3, [r7, #16]
			}
			if(HAL_GetTick() - idle_cntr >= IDLE_TIME){
 8000592:	f000 fe17 	bl	80011c4 <HAL_GetTick>
 8000596:	0002      	movs	r2, r0
 8000598:	693b      	ldr	r3, [r7, #16]
 800059a:	1ad2      	subs	r2, r2, r3
 800059c:	23fa      	movs	r3, #250	@ 0xfa
 800059e:	00db      	lsls	r3, r3, #3
 80005a0:	429a      	cmp	r2, r3
 80005a2:	d305      	bcc.n	80005b0 <main+0x100>
				idle_cntr = 0;
 80005a4:	2300      	movs	r3, #0
 80005a6:	613b      	str	r3, [r7, #16]
				state = IDLE;
 80005a8:	2317      	movs	r3, #23
 80005aa:	18fb      	adds	r3, r7, r3
 80005ac:	2200      	movs	r2, #0
 80005ae:	701a      	strb	r2, [r3, #0]
			}
			if(left_state)
 80005b0:	1dfb      	adds	r3, r7, #7
 80005b2:	781b      	ldrb	r3, [r3, #0]
 80005b4:	2b00      	cmp	r3, #0
 80005b6:	d002      	beq.n	80005be <main+0x10e>
				left_state = 0;
 80005b8:	1dfb      	adds	r3, r7, #7
 80005ba:	2200      	movs	r2, #0
 80005bc:	701a      	strb	r2, [r3, #0]
			if(right_state)
 80005be:	1dbb      	adds	r3, r7, #6
 80005c0:	781b      	ldrb	r3, [r3, #0]
 80005c2:	2b00      	cmp	r3, #0
 80005c4:	d057      	beq.n	8000676 <main+0x1c6>
				right_state = 0;
 80005c6:	1dbb      	adds	r3, r7, #6
 80005c8:	2200      	movs	r2, #0
 80005ca:	701a      	strb	r2, [r3, #0]
			if(right_state)
 80005cc:	e053      	b.n	8000676 <main+0x1c6>

		}
		// Paw draw routines
		else {
			idle_cntr = 0;
 80005ce:	2300      	movs	r3, #0
 80005d0:	613b      	str	r3, [r7, #16]
			if((sw_state_left == 0 && sw_state_right == 0) && ((left_state | right_state == 0) || (left_state ^= right_state))){
 80005d2:	4b54      	ldr	r3, [pc, #336]	@ (8000724 <main+0x274>)
 80005d4:	681b      	ldr	r3, [r3, #0]
 80005d6:	2b00      	cmp	r3, #0
 80005d8:	d121      	bne.n	800061e <main+0x16e>
 80005da:	4b53      	ldr	r3, [pc, #332]	@ (8000728 <main+0x278>)
 80005dc:	681b      	ldr	r3, [r3, #0]
 80005de:	2b00      	cmp	r3, #0
 80005e0:	d11d      	bne.n	800061e <main+0x16e>
 80005e2:	1dfb      	adds	r3, r7, #7
 80005e4:	781b      	ldrb	r3, [r3, #0]
 80005e6:	1dba      	adds	r2, r7, #6
 80005e8:	7812      	ldrb	r2, [r2, #0]
 80005ea:	4251      	negs	r1, r2
 80005ec:	414a      	adcs	r2, r1
 80005ee:	b2d2      	uxtb	r2, r2
 80005f0:	4313      	orrs	r3, r2
 80005f2:	d10a      	bne.n	800060a <main+0x15a>
 80005f4:	1dfb      	adds	r3, r7, #7
 80005f6:	1df9      	adds	r1, r7, #7
 80005f8:	1dba      	adds	r2, r7, #6
 80005fa:	7809      	ldrb	r1, [r1, #0]
 80005fc:	7812      	ldrb	r2, [r2, #0]
 80005fe:	404a      	eors	r2, r1
 8000600:	701a      	strb	r2, [r3, #0]
 8000602:	1dfb      	adds	r3, r7, #7
 8000604:	781b      	ldrb	r3, [r3, #0]
 8000606:	2b00      	cmp	r3, #0
 8000608:	d009      	beq.n	800061e <main+0x16e>
				draw_animation(&img_both_down_alt);
 800060a:	4b4b      	ldr	r3, [pc, #300]	@ (8000738 <main+0x288>)
 800060c:	0018      	movs	r0, r3
 800060e:	f7ff feed 	bl	80003ec <draw_animation>
//				draw_animation_transparent(&img_tap_left);
//				draw_animation_transparent(&img_tap_right);
//				tap_left_cntr = HAL_GetTick(); tap_right_cntr = HAL_GetTick();
				right_state = 1; left_state = 1;
 8000612:	1dbb      	adds	r3, r7, #6
 8000614:	2201      	movs	r2, #1
 8000616:	701a      	strb	r2, [r3, #0]
 8000618:	1dfb      	adds	r3, r7, #7
 800061a:	2201      	movs	r2, #1
 800061c:	701a      	strb	r2, [r3, #0]
			}
			if(sw_state_left == 1 && sw_state_right == 0){
 800061e:	4b41      	ldr	r3, [pc, #260]	@ (8000724 <main+0x274>)
 8000620:	681b      	ldr	r3, [r3, #0]
 8000622:	2b01      	cmp	r3, #1
 8000624:	d111      	bne.n	800064a <main+0x19a>
 8000626:	4b40      	ldr	r3, [pc, #256]	@ (8000728 <main+0x278>)
 8000628:	681b      	ldr	r3, [r3, #0]
 800062a:	2b00      	cmp	r3, #0
 800062c:	d10d      	bne.n	800064a <main+0x19a>

					draw_animation(&img_right_down_alt);
 800062e:	4b43      	ldr	r3, [pc, #268]	@ (800073c <main+0x28c>)
 8000630:	0018      	movs	r0, r3
 8000632:	f7ff fedb 	bl	80003ec <draw_animation>
//					if(right_state == 0){
//					draw_animation_transparent(&img_tap_right);
//					}
//					tap_right_cntr = HAL_GetTick();
					right_state = 1;
 8000636:	1dbb      	adds	r3, r7, #6
 8000638:	2201      	movs	r2, #1
 800063a:	701a      	strb	r2, [r3, #0]
//				}
				if(left_state)
 800063c:	1dfb      	adds	r3, r7, #7
 800063e:	781b      	ldrb	r3, [r3, #0]
 8000640:	2b00      	cmp	r3, #0
 8000642:	d002      	beq.n	800064a <main+0x19a>
					left_state = 0;
 8000644:	1dfb      	adds	r3, r7, #7
 8000646:	2200      	movs	r2, #0
 8000648:	701a      	strb	r2, [r3, #0]
			}
			if(sw_state_left == 0 && sw_state_right == 1){
 800064a:	4b36      	ldr	r3, [pc, #216]	@ (8000724 <main+0x274>)
 800064c:	681b      	ldr	r3, [r3, #0]
 800064e:	2b00      	cmp	r3, #0
 8000650:	d111      	bne.n	8000676 <main+0x1c6>
 8000652:	4b35      	ldr	r3, [pc, #212]	@ (8000728 <main+0x278>)
 8000654:	681b      	ldr	r3, [r3, #0]
 8000656:	2b01      	cmp	r3, #1
 8000658:	d10d      	bne.n	8000676 <main+0x1c6>

					draw_animation(&img_left_down_alt);
 800065a:	4b39      	ldr	r3, [pc, #228]	@ (8000740 <main+0x290>)
 800065c:	0018      	movs	r0, r3
 800065e:	f7ff fec5 	bl	80003ec <draw_animation>
//					if(left_state == 0){
//					draw_animation_transparent(&img_tap_left);
//					tap_left_cntr = HAL_GetTick();
//					}
					left_state = 1;
 8000662:	1dfb      	adds	r3, r7, #7
 8000664:	2201      	movs	r2, #1
 8000666:	701a      	strb	r2, [r3, #0]

				if(right_state)
 8000668:	1dbb      	adds	r3, r7, #6
 800066a:	781b      	ldrb	r3, [r3, #0]
 800066c:	2b00      	cmp	r3, #0
 800066e:	d002      	beq.n	8000676 <main+0x1c6>
					right_state = 0;
 8000670:	1dbb      	adds	r3, r7, #6
 8000672:	2200      	movs	r2, #0
 8000674:	701a      	strb	r2, [r3, #0]
			}


		}
		// Tap animation routines
		if(sw_state_left == 0 && left_state == 1 && tap_left_cntr == 0){
 8000676:	4b2b      	ldr	r3, [pc, #172]	@ (8000724 <main+0x274>)
 8000678:	681b      	ldr	r3, [r3, #0]
 800067a:	2b00      	cmp	r3, #0
 800067c:	d10e      	bne.n	800069c <main+0x1ec>
 800067e:	1dfb      	adds	r3, r7, #7
 8000680:	781b      	ldrb	r3, [r3, #0]
 8000682:	2b01      	cmp	r3, #1
 8000684:	d10a      	bne.n	800069c <main+0x1ec>
 8000686:	68fb      	ldr	r3, [r7, #12]
 8000688:	2b00      	cmp	r3, #0
 800068a:	d107      	bne.n	800069c <main+0x1ec>
			draw_animation_transparent(&img_tap_left);
 800068c:	4b2d      	ldr	r3, [pc, #180]	@ (8000744 <main+0x294>)
 800068e:	0018      	movs	r0, r3
 8000690:	f7ff fed3 	bl	800043a <draw_animation_transparent>
			tap_left_cntr = HAL_GetTick();
 8000694:	f000 fd96 	bl	80011c4 <HAL_GetTick>
 8000698:	0003      	movs	r3, r0
 800069a:	60fb      	str	r3, [r7, #12]
		}
		if(sw_state_right == 0 && right_state == 1 && tap_right_cntr == 0){
 800069c:	4b22      	ldr	r3, [pc, #136]	@ (8000728 <main+0x278>)
 800069e:	681b      	ldr	r3, [r3, #0]
 80006a0:	2b00      	cmp	r3, #0
 80006a2:	d10e      	bne.n	80006c2 <main+0x212>
 80006a4:	1dbb      	adds	r3, r7, #6
 80006a6:	781b      	ldrb	r3, [r3, #0]
 80006a8:	2b01      	cmp	r3, #1
 80006aa:	d10a      	bne.n	80006c2 <main+0x212>
 80006ac:	68bb      	ldr	r3, [r7, #8]
 80006ae:	2b00      	cmp	r3, #0
 80006b0:	d107      	bne.n	80006c2 <main+0x212>
			draw_animation_transparent(&img_tap_right);
 80006b2:	4b25      	ldr	r3, [pc, #148]	@ (8000748 <main+0x298>)
 80006b4:	0018      	movs	r0, r3
 80006b6:	f7ff fec0 	bl	800043a <draw_animation_transparent>
			tap_right_cntr = HAL_GetTick();
 80006ba:	f000 fd83 	bl	80011c4 <HAL_GetTick>
 80006be:	0003      	movs	r3, r0
 80006c0:	60bb      	str	r3, [r7, #8]
		}

		// Tap decay routines
		if(tap_left_cntr > 0){
 80006c2:	68fb      	ldr	r3, [r7, #12]
 80006c4:	2b00      	cmp	r3, #0
 80006c6:	dd11      	ble.n	80006ec <main+0x23c>
			if(HAL_GetTick() - tap_left_cntr > TAP_DECAY_TIME) {
 80006c8:	f000 fd7c 	bl	80011c4 <HAL_GetTick>
 80006cc:	0002      	movs	r2, r0
 80006ce:	68fb      	ldr	r3, [r7, #12]
 80006d0:	1ad3      	subs	r3, r2, r3
 80006d2:	2bc8      	cmp	r3, #200	@ 0xc8
 80006d4:	d906      	bls.n	80006e4 <main+0x234>
				draw_animation_erase(&img_tap_left);
 80006d6:	4b1b      	ldr	r3, [pc, #108]	@ (8000744 <main+0x294>)
 80006d8:	0018      	movs	r0, r3
 80006da:	f7ff fe9c 	bl	8000416 <draw_animation_erase>
				tap_left_cntr = 0;
 80006de:	2300      	movs	r3, #0
 80006e0:	60fb      	str	r3, [r7, #12]
 80006e2:	e003      	b.n	80006ec <main+0x23c>
				}
			else{
				draw_animation_transparent(&img_tap_left);
 80006e4:	4b17      	ldr	r3, [pc, #92]	@ (8000744 <main+0x294>)
 80006e6:	0018      	movs	r0, r3
 80006e8:	f7ff fea7 	bl	800043a <draw_animation_transparent>
			}
			}
		if(tap_right_cntr > 0){
 80006ec:	68bb      	ldr	r3, [r7, #8]
 80006ee:	2b00      	cmp	r3, #0
 80006f0:	dd11      	ble.n	8000716 <main+0x266>
			if(HAL_GetTick() - tap_right_cntr > TAP_DECAY_TIME) {
 80006f2:	f000 fd67 	bl	80011c4 <HAL_GetTick>
 80006f6:	0002      	movs	r2, r0
 80006f8:	68bb      	ldr	r3, [r7, #8]
 80006fa:	1ad3      	subs	r3, r2, r3
 80006fc:	2bc8      	cmp	r3, #200	@ 0xc8
 80006fe:	d906      	bls.n	800070e <main+0x25e>
				draw_animation_erase(&img_tap_right);
 8000700:	4b11      	ldr	r3, [pc, #68]	@ (8000748 <main+0x298>)
 8000702:	0018      	movs	r0, r3
 8000704:	f7ff fe87 	bl	8000416 <draw_animation_erase>
				tap_right_cntr = 0;
 8000708:	2300      	movs	r3, #0
 800070a:	60bb      	str	r3, [r7, #8]
 800070c:	e003      	b.n	8000716 <main+0x266>
				}
			else{
				draw_animation_transparent(&img_tap_right);
 800070e:	4b0e      	ldr	r3, [pc, #56]	@ (8000748 <main+0x298>)
 8000710:	0018      	movs	r0, r3
 8000712:	f7ff fe92 	bl	800043a <draw_animation_transparent>
			}
			}

//		HAL_Delay(100);
		ssd1306_UpdateScreen();
 8000716:	f000 fa47 	bl	8000ba8 <ssd1306_UpdateScreen>
		break;
 800071a:	46c0      	nop			@ (mov r8, r8)
	switch(state){
 800071c:	e6ed      	b.n	80004fa <main+0x4a>
 800071e:	46c0      	nop			@ (mov r8, r8)
 8000720:	20000090 	.word	0x20000090
 8000724:	200000dc 	.word	0x200000dc
 8000728:	200000e0 	.word	0x200000e0
 800072c:	08003258 	.word	0x08003258
 8000730:	200000e4 	.word	0x200000e4
 8000734:	20000000 	.word	0x20000000
 8000738:	08004a58 	.word	0x08004a58
 800073c:	08005258 	.word	0x08005258
 8000740:	08004e58 	.word	0x08004e58
 8000744:	08005658 	.word	0x08005658
 8000748:	08005a58 	.word	0x08005a58

0800074c <SystemClock_Config>:
/**
  * @brief System Clock Configuration
  * @retval None
  */
void SystemClock_Config(void)
{
 800074c:	b590      	push	{r4, r7, lr}
 800074e:	b093      	sub	sp, #76	@ 0x4c
 8000750:	af00      	add	r7, sp, #0
  RCC_OscInitTypeDef RCC_OscInitStruct = {0};
 8000752:	2414      	movs	r4, #20
 8000754:	193b      	adds	r3, r7, r4
 8000756:	0018      	movs	r0, r3
 8000758:	2334      	movs	r3, #52	@ 0x34
 800075a:	001a      	movs	r2, r3
 800075c:	2100      	movs	r1, #0
 800075e:	f002 fd43 	bl	80031e8 <memset>
  RCC_ClkInitTypeDef RCC_ClkInitStruct = {0};
 8000762:	1d3b      	adds	r3, r7, #4
 8000764:	0018      	movs	r0, r3
 8000766:	2310      	movs	r3, #16
 8000768:	001a      	movs	r2, r3
 800076a:	2100      	movs	r1, #0
 800076c:	f002 fd3c 	bl	80031e8 <memset>

  /** Configure the main internal regulator output voltage
  */
  HAL_PWREx_ControlVoltageScaling(PWR_REGULATOR_VOLTAGE_SCALE1);
 8000770:	2380      	movs	r3, #128	@ 0x80
 8000772:	009b      	lsls	r3, r3, #2
 8000774:	0018      	movs	r0, r3
 8000776:	f001 fcd7 	bl	8002128 <HAL_PWREx_ControlVoltageScaling>

  /** Initializes the RCC Oscillators according to the specified parameters
  * in the RCC_OscInitTypeDef structure.
  */
  RCC_OscInitStruct.OscillatorType = RCC_OSCILLATORTYPE_HSI;
 800077a:	193b      	adds	r3, r7, r4
 800077c:	2202      	movs	r2, #2
 800077e:	601a      	str	r2, [r3, #0]
  RCC_OscInitStruct.HSIState = RCC_HSI_ON;
 8000780:	193b      	adds	r3, r7, r4
 8000782:	2280      	movs	r2, #128	@ 0x80
 8000784:	0052      	lsls	r2, r2, #1
 8000786:	60da      	str	r2, [r3, #12]
  RCC_OscInitStruct.HSIDiv = RCC_HSI_DIV1;
 8000788:	0021      	movs	r1, r4
 800078a:	187b      	adds	r3, r7, r1
 800078c:	2200      	movs	r2, #0
 800078e:	611a      	str	r2, [r3, #16]
  RCC_OscInitStruct.HSICalibrationValue = RCC_HSICALIBRATION_DEFAULT;
 8000790:	187b      	adds	r3, r7, r1
 8000792:	2240      	movs	r2, #64	@ 0x40
 8000794:	615a      	str	r2, [r3, #20]
  RCC_OscInitStruct.PLL.PLLState = RCC_PLL_ON;
 8000796:	187b      	adds	r3, r7, r1
 8000798:	2202      	movs	r2, #2
 800079a:	61da      	str	r2, [r3, #28]
  RCC_OscInitStruct.PLL.PLLSource = RCC_PLLSOURCE_HSI;
 800079c:	187b      	adds	r3, r7, r1
 800079e:	2202      	movs	r2, #2
 80007a0:	621a      	str	r2, [r3, #32]
  RCC_OscInitStruct.PLL.PLLM = RCC_PLLM_DIV1;
 80007a2:	187b      	adds	r3, r7, r1
 80007a4:	2200      	movs	r2, #0
 80007a6:	625a      	str	r2, [r3, #36]	@ 0x24
  RCC_OscInitStruct.PLL.PLLN = 8;
 80007a8:	187b      	adds	r3, r7, r1
 80007aa:	2208      	movs	r2, #8
 80007ac:	629a      	str	r2, [r3, #40]	@ 0x28
  RCC_OscInitStruct.PLL.PLLP = RCC_PLLP_DIV2;
 80007ae:	187b      	adds	r3, r7, r1
 80007b0:	2280      	movs	r2, #128	@ 0x80
 80007b2:	0292      	lsls	r2, r2, #10
 80007b4:	62da      	str	r2, [r3, #44]	@ 0x2c
  RCC_OscInitStruct.PLL.PLLR = RCC_PLLR_DIV2;
 80007b6:	187b      	adds	r3, r7, r1
 80007b8:	2280      	movs	r2, #128	@ 0x80
 80007ba:	0592      	lsls	r2, r2, #22
 80007bc:	631a      	str	r2, [r3, #48]	@ 0x30
  if (HAL_RCC_OscConfig(&RCC_OscInitStruct) != HAL_OK)
 80007be:	187b      	adds	r3, r7, r1
 80007c0:	0018      	movs	r0, r3
 80007c2:	f001 fcf1 	bl	80021a8 <HAL_RCC_OscConfig>
 80007c6:	1e03      	subs	r3, r0, #0
 80007c8:	d001      	beq.n	80007ce <SystemClock_Config+0x82>
  {
    Error_Handler();
 80007ca:	f000 f927 	bl	8000a1c <Error_Handler>
  }

  /** Initializes the CPU, AHB and APB buses clocks
  */
  RCC_ClkInitStruct.ClockType = RCC_CLOCKTYPE_HCLK|RCC_CLOCKTYPE_SYSCLK
 80007ce:	1d3b      	adds	r3, r7, #4
 80007d0:	2207      	movs	r2, #7
 80007d2:	601a      	str	r2, [r3, #0]
                              |RCC_CLOCKTYPE_PCLK1;
  RCC_ClkInitStruct.SYSCLKSource = RCC_SYSCLKSOURCE_PLLCLK;
 80007d4:	1d3b      	adds	r3, r7, #4
 80007d6:	2202      	movs	r2, #2
 80007d8:	605a      	str	r2, [r3, #4]
  RCC_ClkInitStruct.AHBCLKDivider = RCC_SYSCLK_DIV1;
 80007da:	1d3b      	adds	r3, r7, #4
 80007dc:	2200      	movs	r2, #0
 80007de:	609a      	str	r2, [r3, #8]
  RCC_ClkInitStruct.APB1CLKDivider = RCC_HCLK_DIV1;
 80007e0:	1d3b      	adds	r3, r7, #4
 80007e2:	2200      	movs	r2, #0
 80007e4:	60da      	str	r2, [r3, #12]

  if (HAL_RCC_ClockConfig(&RCC_ClkInitStruct, FLASH_LATENCY_2) != HAL_OK)
 80007e6:	1d3b      	adds	r3, r7, #4
 80007e8:	2102      	movs	r1, #2
 80007ea:	0018      	movs	r0, r3
 80007ec:	f001 ffec 	bl	80027c8 <HAL_RCC_ClockConfig>
 80007f0:	1e03      	subs	r3, r0, #0
 80007f2:	d001      	beq.n	80007f8 <SystemClock_Config+0xac>
  {
    Error_Handler();
 80007f4:	f000 f912 	bl	8000a1c <Error_Handler>
  }
}
 80007f8:	46c0      	nop			@ (mov r8, r8)
 80007fa:	46bd      	mov	sp, r7
 80007fc:	b013      	add	sp, #76	@ 0x4c
 80007fe:	bd90      	pop	{r4, r7, pc}

08000800 <MX_NVIC_Init>:
/**
  * @brief NVIC Configuration.
  * @retval None
  */
static void MX_NVIC_Init(void)
{
 8000800:	b580      	push	{r7, lr}
 8000802:	af00      	add	r7, sp, #0
  /* RCC_IRQn interrupt configuration */
  HAL_NVIC_SetPriority(RCC_IRQn, 0, 0);
 8000804:	2200      	movs	r2, #0
 8000806:	2100      	movs	r1, #0
 8000808:	2004      	movs	r0, #4
 800080a:	f000 fdb5 	bl	8001378 <HAL_NVIC_SetPriority>
  HAL_NVIC_EnableIRQ(RCC_IRQn);
 800080e:	2004      	movs	r0, #4
 8000810:	f000 fdc7 	bl	80013a2 <HAL_NVIC_EnableIRQ>
  /* TIM14_IRQn interrupt configuration */
  HAL_NVIC_SetPriority(TIM14_IRQn, 0, 0);
 8000814:	2200      	movs	r2, #0
 8000816:	2100      	movs	r1, #0
 8000818:	2013      	movs	r0, #19
 800081a:	f000 fdad 	bl	8001378 <HAL_NVIC_SetPriority>
  HAL_NVIC_EnableIRQ(TIM14_IRQn);
 800081e:	2013      	movs	r0, #19
 8000820:	f000 fdbf 	bl	80013a2 <HAL_NVIC_EnableIRQ>
}
 8000824:	46c0      	nop			@ (mov r8, r8)
 8000826:	46bd      	mov	sp, r7
 8000828:	bd80      	pop	{r7, pc}
	...

0800082c <MX_I2C1_Init>:
  * @brief I2C1 Initialization Function
  * @param None
  * @retval None
  */
static void MX_I2C1_Init(void)
{
 800082c:	b580      	push	{r7, lr}
 800082e:	af00      	add	r7, sp, #0
  /* USER CODE END I2C1_Init 0 */

  /* USER CODE BEGIN I2C1_Init 1 */

  /* USER CODE END I2C1_Init 1 */
  hi2c1.Instance = I2C1;
 8000830:	4b1e      	ldr	r3, [pc, #120]	@ (80008ac <MX_I2C1_Init+0x80>)
 8000832:	4a1f      	ldr	r2, [pc, #124]	@ (80008b0 <MX_I2C1_Init+0x84>)
 8000834:	601a      	str	r2, [r3, #0]
  hi2c1.Init.Timing = 0x00300B29;
 8000836:	4b1d      	ldr	r3, [pc, #116]	@ (80008ac <MX_I2C1_Init+0x80>)
 8000838:	4a1e      	ldr	r2, [pc, #120]	@ (80008b4 <MX_I2C1_Init+0x88>)
 800083a:	605a      	str	r2, [r3, #4]
  hi2c1.Init.OwnAddress1 = 0;
 800083c:	4b1b      	ldr	r3, [pc, #108]	@ (80008ac <MX_I2C1_Init+0x80>)
 800083e:	2200      	movs	r2, #0
 8000840:	609a      	str	r2, [r3, #8]
  hi2c1.Init.AddressingMode = I2C_ADDRESSINGMODE_7BIT;
 8000842:	4b1a      	ldr	r3, [pc, #104]	@ (80008ac <MX_I2C1_Init+0x80>)
 8000844:	2201      	movs	r2, #1
 8000846:	60da      	str	r2, [r3, #12]
  hi2c1.Init.DualAddressMode = I2C_DUALADDRESS_DISABLE;
 8000848:	4b18      	ldr	r3, [pc, #96]	@ (80008ac <MX_I2C1_Init+0x80>)
 800084a:	2200      	movs	r2, #0
 800084c:	611a      	str	r2, [r3, #16]
  hi2c1.Init.OwnAddress2 = 0;
 800084e:	4b17      	ldr	r3, [pc, #92]	@ (80008ac <MX_I2C1_Init+0x80>)
 8000850:	2200      	movs	r2, #0
 8000852:	615a      	str	r2, [r3, #20]
  hi2c1.Init.OwnAddress2Masks = I2C_OA2_NOMASK;
 8000854:	4b15      	ldr	r3, [pc, #84]	@ (80008ac <MX_I2C1_Init+0x80>)
 8000856:	2200      	movs	r2, #0
 8000858:	619a      	str	r2, [r3, #24]
  hi2c1.Init.GeneralCallMode = I2C_GENERALCALL_DISABLE;
 800085a:	4b14      	ldr	r3, [pc, #80]	@ (80008ac <MX_I2C1_Init+0x80>)
 800085c:	2200      	movs	r2, #0
 800085e:	61da      	str	r2, [r3, #28]
  hi2c1.Init.NoStretchMode = I2C_NOSTRETCH_ENABLE;
 8000860:	4b12      	ldr	r3, [pc, #72]	@ (80008ac <MX_I2C1_Init+0x80>)
 8000862:	2280      	movs	r2, #128	@ 0x80
 8000864:	0292      	lsls	r2, r2, #10
 8000866:	621a      	str	r2, [r3, #32]
  if (HAL_I2C_Init(&hi2c1) != HAL_OK)
 8000868:	4b10      	ldr	r3, [pc, #64]	@ (80008ac <MX_I2C1_Init+0x80>)
 800086a:	0018      	movs	r0, r3
 800086c:	f000 ff38 	bl	80016e0 <HAL_I2C_Init>
 8000870:	1e03      	subs	r3, r0, #0
 8000872:	d001      	beq.n	8000878 <MX_I2C1_Init+0x4c>
  {
    Error_Handler();
 8000874:	f000 f8d2 	bl	8000a1c <Error_Handler>
  }

  /** Configure Analogue filter
  */
  if (HAL_I2CEx_ConfigAnalogFilter(&hi2c1, I2C_ANALOGFILTER_ENABLE) != HAL_OK)
 8000878:	4b0c      	ldr	r3, [pc, #48]	@ (80008ac <MX_I2C1_Init+0x80>)
 800087a:	2100      	movs	r1, #0
 800087c:	0018      	movs	r0, r3
 800087e:	f001 fb9d 	bl	8001fbc <HAL_I2CEx_ConfigAnalogFilter>
 8000882:	1e03      	subs	r3, r0, #0
 8000884:	d001      	beq.n	800088a <MX_I2C1_Init+0x5e>
  {
    Error_Handler();
 8000886:	f000 f8c9 	bl	8000a1c <Error_Handler>
  }

  /** Configure Digital filter
  */
  if (HAL_I2CEx_ConfigDigitalFilter(&hi2c1, 0) != HAL_OK)
 800088a:	4b08      	ldr	r3, [pc, #32]	@ (80008ac <MX_I2C1_Init+0x80>)
 800088c:	2100      	movs	r1, #0
 800088e:	0018      	movs	r0, r3
 8000890:	f001 fbe0 	bl	8002054 <HAL_I2CEx_ConfigDigitalFilter>
 8000894:	1e03      	subs	r3, r0, #0
 8000896:	d001      	beq.n	800089c <MX_I2C1_Init+0x70>
  {
    Error_Handler();
 8000898:	f000 f8c0 	bl	8000a1c <Error_Handler>
  }

  /** I2C Fast mode Plus enable
  */
  HAL_I2CEx_EnableFastModePlus(I2C_FASTMODEPLUS_I2C1);
 800089c:	2380      	movs	r3, #128	@ 0x80
 800089e:	035b      	lsls	r3, r3, #13
 80008a0:	0018      	movs	r0, r3
 80008a2:	f001 fc23 	bl	80020ec <HAL_I2CEx_EnableFastModePlus>
  /* USER CODE BEGIN I2C1_Init 2 */

  /* USER CODE END I2C1_Init 2 */

}
 80008a6:	46c0      	nop			@ (mov r8, r8)
 80008a8:	46bd      	mov	sp, r7
 80008aa:	bd80      	pop	{r7, pc}
 80008ac:	2000003c 	.word	0x2000003c
 80008b0:	40005400 	.word	0x40005400
 80008b4:	00300b29 	.word	0x00300b29

080008b8 <MX_TIM14_Init>:
  * @brief TIM14 Initialization Function
  * @param None
  * @retval None
  */
static void MX_TIM14_Init(void)
{
 80008b8:	b580      	push	{r7, lr}
 80008ba:	af00      	add	r7, sp, #0
  /* USER CODE END TIM14_Init 0 */

  /* USER CODE BEGIN TIM14_Init 1 */

  /* USER CODE END TIM14_Init 1 */
  htim14.Instance = TIM14;
 80008bc:	4b0e      	ldr	r3, [pc, #56]	@ (80008f8 <MX_TIM14_Init+0x40>)
 80008be:	4a0f      	ldr	r2, [pc, #60]	@ (80008fc <MX_TIM14_Init+0x44>)
 80008c0:	601a      	str	r2, [r3, #0]
  htim14.Init.Prescaler = 100-1;
 80008c2:	4b0d      	ldr	r3, [pc, #52]	@ (80008f8 <MX_TIM14_Init+0x40>)
 80008c4:	2263      	movs	r2, #99	@ 0x63
 80008c6:	605a      	str	r2, [r3, #4]
  htim14.Init.CounterMode = TIM_COUNTERMODE_UP;
 80008c8:	4b0b      	ldr	r3, [pc, #44]	@ (80008f8 <MX_TIM14_Init+0x40>)
 80008ca:	2200      	movs	r2, #0
 80008cc:	609a      	str	r2, [r3, #8]
  htim14.Init.Period = 6400-1;
 80008ce:	4b0a      	ldr	r3, [pc, #40]	@ (80008f8 <MX_TIM14_Init+0x40>)
 80008d0:	4a0b      	ldr	r2, [pc, #44]	@ (8000900 <MX_TIM14_Init+0x48>)
 80008d2:	60da      	str	r2, [r3, #12]
  htim14.Init.ClockDivision = TIM_CLOCKDIVISION_DIV1;
 80008d4:	4b08      	ldr	r3, [pc, #32]	@ (80008f8 <MX_TIM14_Init+0x40>)
 80008d6:	2200      	movs	r2, #0
 80008d8:	611a      	str	r2, [r3, #16]
  htim14.Init.AutoReloadPreload = TIM_AUTORELOAD_PRELOAD_DISABLE;
 80008da:	4b07      	ldr	r3, [pc, #28]	@ (80008f8 <MX_TIM14_Init+0x40>)
 80008dc:	2200      	movs	r2, #0
 80008de:	619a      	str	r2, [r3, #24]
  if (HAL_TIM_Base_Init(&htim14) != HAL_OK)
 80008e0:	4b05      	ldr	r3, [pc, #20]	@ (80008f8 <MX_TIM14_Init+0x40>)
 80008e2:	0018      	movs	r0, r3
 80008e4:	f002 fa20 	bl	8002d28 <HAL_TIM_Base_Init>
 80008e8:	1e03      	subs	r3, r0, #0
 80008ea:	d001      	beq.n	80008f0 <MX_TIM14_Init+0x38>
  {
    Error_Handler();
 80008ec:	f000 f896 	bl	8000a1c <Error_Handler>
  }
  /* USER CODE BEGIN TIM14_Init 2 */

  /* USER CODE END TIM14_Init 2 */

}
 80008f0:	46c0      	nop			@ (mov r8, r8)
 80008f2:	46bd      	mov	sp, r7
 80008f4:	bd80      	pop	{r7, pc}
 80008f6:	46c0      	nop			@ (mov r8, r8)
 80008f8:	20000090 	.word	0x20000090
 80008fc:	40002000 	.word	0x40002000
 8000900:	000018ff 	.word	0x000018ff

08000904 <MX_GPIO_Init>:
  * @brief GPIO Initialization Function
  * @param None
  * @retval None
  */
static void MX_GPIO_Init(void)
{
 8000904:	b590      	push	{r4, r7, lr}
 8000906:	b089      	sub	sp, #36	@ 0x24
 8000908:	af00      	add	r7, sp, #0
  GPIO_InitTypeDef GPIO_InitStruct = {0};
 800090a:	240c      	movs	r4, #12
 800090c:	193b      	adds	r3, r7, r4
 800090e:	0018      	movs	r0, r3
 8000910:	2314      	movs	r3, #20
 8000912:	001a      	movs	r2, r3
 8000914:	2100      	movs	r1, #0
 8000916:	f002 fc67 	bl	80031e8 <memset>
/* USER CODE BEGIN MX_GPIO_Init_1 */
/* USER CODE END MX_GPIO_Init_1 */

  /* GPIO Ports Clock Enable */
  __HAL_RCC_GPIOB_CLK_ENABLE();
 800091a:	4b3b      	ldr	r3, [pc, #236]	@ (8000a08 <MX_GPIO_Init+0x104>)
 800091c:	6b5a      	ldr	r2, [r3, #52]	@ 0x34
 800091e:	4b3a      	ldr	r3, [pc, #232]	@ (8000a08 <MX_GPIO_Init+0x104>)
 8000920:	2102      	movs	r1, #2
 8000922:	430a      	orrs	r2, r1
 8000924:	635a      	str	r2, [r3, #52]	@ 0x34
 8000926:	4b38      	ldr	r3, [pc, #224]	@ (8000a08 <MX_GPIO_Init+0x104>)
 8000928:	6b5b      	ldr	r3, [r3, #52]	@ 0x34
 800092a:	2202      	movs	r2, #2
 800092c:	4013      	ands	r3, r2
 800092e:	60bb      	str	r3, [r7, #8]
 8000930:	68bb      	ldr	r3, [r7, #8]
  __HAL_RCC_GPIOC_CLK_ENABLE();
 8000932:	4b35      	ldr	r3, [pc, #212]	@ (8000a08 <MX_GPIO_Init+0x104>)
 8000934:	6b5a      	ldr	r2, [r3, #52]	@ 0x34
 8000936:	4b34      	ldr	r3, [pc, #208]	@ (8000a08 <MX_GPIO_Init+0x104>)
 8000938:	2104      	movs	r1, #4
 800093a:	430a      	orrs	r2, r1
 800093c:	635a      	str	r2, [r3, #52]	@ 0x34
 800093e:	4b32      	ldr	r3, [pc, #200]	@ (8000a08 <MX_GPIO_Init+0x104>)
 8000940:	6b5b      	ldr	r3, [r3, #52]	@ 0x34
 8000942:	2204      	movs	r2, #4
 8000944:	4013      	ands	r3, r2
 8000946:	607b      	str	r3, [r7, #4]
 8000948:	687b      	ldr	r3, [r7, #4]
  __HAL_RCC_GPIOA_CLK_ENABLE();
 800094a:	4b2f      	ldr	r3, [pc, #188]	@ (8000a08 <MX_GPIO_Init+0x104>)
 800094c:	6b5a      	ldr	r2, [r3, #52]	@ 0x34
 800094e:	4b2e      	ldr	r3, [pc, #184]	@ (8000a08 <MX_GPIO_Init+0x104>)
 8000950:	2101      	movs	r1, #1
 8000952:	430a      	orrs	r2, r1
 8000954:	635a      	str	r2, [r3, #52]	@ 0x34
 8000956:	4b2c      	ldr	r3, [pc, #176]	@ (8000a08 <MX_GPIO_Init+0x104>)
 8000958:	6b5b      	ldr	r3, [r3, #52]	@ 0x34
 800095a:	2201      	movs	r2, #1
 800095c:	4013      	ands	r3, r2
 800095e:	603b      	str	r3, [r7, #0]
 8000960:	683b      	ldr	r3, [r7, #0]

  /*Configure GPIO pins : PC14 PC15 PC6 */
  GPIO_InitStruct.Pin = GPIO_PIN_14|GPIO_PIN_15|GPIO_PIN_6;
 8000962:	193b      	adds	r3, r7, r4
 8000964:	4a29      	ldr	r2, [pc, #164]	@ (8000a0c <MX_GPIO_Init+0x108>)
 8000966:	601a      	str	r2, [r3, #0]
  GPIO_InitStruct.Mode = GPIO_MODE_ANALOG;
 8000968:	193b      	adds	r3, r7, r4
 800096a:	2203      	movs	r2, #3
 800096c:	605a      	str	r2, [r3, #4]
  GPIO_InitStruct.Pull = GPIO_NOPULL;
 800096e:	193b      	adds	r3, r7, r4
 8000970:	2200      	movs	r2, #0
 8000972:	609a      	str	r2, [r3, #8]
  HAL_GPIO_Init(GPIOC, &GPIO_InitStruct);
 8000974:	193b      	adds	r3, r7, r4
 8000976:	4a26      	ldr	r2, [pc, #152]	@ (8000a10 <MX_GPIO_Init+0x10c>)
 8000978:	0019      	movs	r1, r3
 800097a:	0010      	movs	r0, r2
 800097c:	f000 fd2e 	bl	80013dc <HAL_GPIO_Init>

  /*Configure GPIO pins : PA0 PA1 PA2 PA3
                           PA4 PA5 PA7 PA8
                           PA10 PA11 PA12 PA15 */
  GPIO_InitStruct.Pin = GPIO_PIN_0|GPIO_PIN_1|GPIO_PIN_2|GPIO_PIN_3
 8000980:	193b      	adds	r3, r7, r4
 8000982:	4a24      	ldr	r2, [pc, #144]	@ (8000a14 <MX_GPIO_Init+0x110>)
 8000984:	601a      	str	r2, [r3, #0]
                          |GPIO_PIN_4|GPIO_PIN_5|GPIO_PIN_7|GPIO_PIN_8
                          |GPIO_PIN_10|GPIO_PIN_11|GPIO_PIN_12|GPIO_PIN_15;
  GPIO_InitStruct.Mode = GPIO_MODE_ANALOG;
 8000986:	193b      	adds	r3, r7, r4
 8000988:	2203      	movs	r2, #3
 800098a:	605a      	str	r2, [r3, #4]
  GPIO_InitStruct.Pull = GPIO_NOPULL;
 800098c:	193b      	adds	r3, r7, r4
 800098e:	2200      	movs	r2, #0
 8000990:	609a      	str	r2, [r3, #8]
  HAL_GPIO_Init(GPIOA, &GPIO_InitStruct);
 8000992:	193a      	adds	r2, r7, r4
 8000994:	23a0      	movs	r3, #160	@ 0xa0
 8000996:	05db      	lsls	r3, r3, #23
 8000998:	0011      	movs	r1, r2
 800099a:	0018      	movs	r0, r3
 800099c:	f000 fd1e 	bl	80013dc <HAL_GPIO_Init>

  /*Configure GPIO pin : SW_LEFT_Pin */
  GPIO_InitStruct.Pin = SW_LEFT_Pin;
 80009a0:	193b      	adds	r3, r7, r4
 80009a2:	2240      	movs	r2, #64	@ 0x40
 80009a4:	601a      	str	r2, [r3, #0]
  GPIO_InitStruct.Mode = GPIO_MODE_INPUT;
 80009a6:	193b      	adds	r3, r7, r4
 80009a8:	2200      	movs	r2, #0
 80009aa:	605a      	str	r2, [r3, #4]
  GPIO_InitStruct.Pull = GPIO_NOPULL;
 80009ac:	193b      	adds	r3, r7, r4
 80009ae:	2200      	movs	r2, #0
 80009b0:	609a      	str	r2, [r3, #8]
  HAL_GPIO_Init(SW_LEFT_GPIO_Port, &GPIO_InitStruct);
 80009b2:	193a      	adds	r2, r7, r4
 80009b4:	23a0      	movs	r3, #160	@ 0xa0
 80009b6:	05db      	lsls	r3, r3, #23
 80009b8:	0011      	movs	r1, r2
 80009ba:	0018      	movs	r0, r3
 80009bc:	f000 fd0e 	bl	80013dc <HAL_GPIO_Init>

  /*Configure GPIO pin : SW_RIGHT_Pin */
  GPIO_InitStruct.Pin = SW_RIGHT_Pin;
 80009c0:	193b      	adds	r3, r7, r4
 80009c2:	2201      	movs	r2, #1
 80009c4:	601a      	str	r2, [r3, #0]
  GPIO_InitStruct.Mode = GPIO_MODE_INPUT;
 80009c6:	193b      	adds	r3, r7, r4
 80009c8:	2200      	movs	r2, #0
 80009ca:	605a      	str	r2, [r3, #4]
  GPIO_InitStruct.Pull = GPIO_NOPULL;
 80009cc:	193b      	adds	r3, r7, r4
 80009ce:	2200      	movs	r2, #0
 80009d0:	609a      	str	r2, [r3, #8]
  HAL_GPIO_Init(SW_RIGHT_GPIO_Port, &GPIO_InitStruct);
 80009d2:	193b      	adds	r3, r7, r4
 80009d4:	4a10      	ldr	r2, [pc, #64]	@ (8000a18 <MX_GPIO_Init+0x114>)
 80009d6:	0019      	movs	r1, r3
 80009d8:	0010      	movs	r0, r2
 80009da:	f000 fcff 	bl	80013dc <HAL_GPIO_Init>

  /*Configure GPIO pins : PB1 PB2 PB3 PB4
                           PB5 PB6 PB7 PB8 */
  GPIO_InitStruct.Pin = GPIO_PIN_1|GPIO_PIN_2|GPIO_PIN_3|GPIO_PIN_4
 80009de:	0021      	movs	r1, r4
 80009e0:	187b      	adds	r3, r7, r1
 80009e2:	22ff      	movs	r2, #255	@ 0xff
 80009e4:	0052      	lsls	r2, r2, #1
 80009e6:	601a      	str	r2, [r3, #0]
                          |GPIO_PIN_5|GPIO_PIN_6|GPIO_PIN_7|GPIO_PIN_8;
  GPIO_InitStruct.Mode = GPIO_MODE_ANALOG;
 80009e8:	187b      	adds	r3, r7, r1
 80009ea:	2203      	movs	r2, #3
 80009ec:	605a      	str	r2, [r3, #4]
  GPIO_InitStruct.Pull = GPIO_NOPULL;
 80009ee:	187b      	adds	r3, r7, r1
 80009f0:	2200      	movs	r2, #0
 80009f2:	609a      	str	r2, [r3, #8]
  HAL_GPIO_Init(GPIOB, &GPIO_InitStruct);
 80009f4:	187b      	adds	r3, r7, r1
 80009f6:	4a08      	ldr	r2, [pc, #32]	@ (8000a18 <MX_GPIO_Init+0x114>)
 80009f8:	0019      	movs	r1, r3
 80009fa:	0010      	movs	r0, r2
 80009fc:	f000 fcee 	bl	80013dc <HAL_GPIO_Init>

/* USER CODE BEGIN MX_GPIO_Init_2 */
/* USER CODE END MX_GPIO_Init_2 */
}
 8000a00:	46c0      	nop			@ (mov r8, r8)
 8000a02:	46bd      	mov	sp, r7
 8000a04:	b009      	add	sp, #36	@ 0x24
 8000a06:	bd90      	pop	{r4, r7, pc}
 8000a08:	40021000 	.word	0x40021000
 8000a0c:	0000c040 	.word	0x0000c040
 8000a10:	50000800 	.word	0x50000800
 8000a14:	00009dbf 	.word	0x00009dbf
 8000a18:	50000400 	.word	0x50000400

08000a1c <Error_Handler>:
/**
  * @brief  This function is executed in case of error occurrence.
  * @retval None
  */
void Error_Handler(void)
{
 8000a1c:	b580      	push	{r7, lr}
 8000a1e:	af00      	add	r7, sp, #0
  \details Disables IRQ interrupts by setting the I-bit in the CPSR.
           Can only be executed in Privileged modes.
 */
__STATIC_FORCEINLINE void __disable_irq(void)
{
  __ASM volatile ("cpsid i" : : : "memory");
 8000a20:	b672      	cpsid	i
}
 8000a22:	46c0      	nop			@ (mov r8, r8)
  /* USER CODE BEGIN Error_Handler_Debug */
  /* User can add his own implementation to report the HAL error return state */
  __disable_irq();
  while (1)
 8000a24:	46c0      	nop			@ (mov r8, r8)
 8000a26:	e7fd      	b.n	8000a24 <Error_Handler+0x8>

08000a28 <ssd1306_Reset>:
 8000a28:	b580      	push	{r7, lr}
 8000a2a:	af00      	add	r7, sp, #0
 8000a2c:	46c0      	nop			@ (mov r8, r8)
 8000a2e:	46bd      	mov	sp, r7
 8000a30:	bd80      	pop	{r7, pc}
	...

08000a34 <ssd1306_WriteCommand>:
 8000a34:	b580      	push	{r7, lr}
 8000a36:	b086      	sub	sp, #24
 8000a38:	af04      	add	r7, sp, #16
 8000a3a:	0002      	movs	r2, r0
 8000a3c:	1dfb      	adds	r3, r7, #7
 8000a3e:	701a      	strb	r2, [r3, #0]
 8000a40:	4808      	ldr	r0, [pc, #32]	@ (8000a64 <ssd1306_WriteCommand+0x30>)
 8000a42:	2301      	movs	r3, #1
 8000a44:	425b      	negs	r3, r3
 8000a46:	9302      	str	r3, [sp, #8]
 8000a48:	2301      	movs	r3, #1
 8000a4a:	9301      	str	r3, [sp, #4]
 8000a4c:	1dfb      	adds	r3, r7, #7
 8000a4e:	9300      	str	r3, [sp, #0]
 8000a50:	2301      	movs	r3, #1
 8000a52:	2200      	movs	r2, #0
 8000a54:	2178      	movs	r1, #120	@ 0x78
 8000a56:	f000 fee9 	bl	800182c <HAL_I2C_Mem_Write>
 8000a5a:	46c0      	nop			@ (mov r8, r8)
 8000a5c:	46bd      	mov	sp, r7
 8000a5e:	b002      	add	sp, #8
 8000a60:	bd80      	pop	{r7, pc}
 8000a62:	46c0      	nop			@ (mov r8, r8)
 8000a64:	2000003c 	.word	0x2000003c

08000a68 <ssd1306_WriteData>:
 8000a68:	b580      	push	{r7, lr}
 8000a6a:	b086      	sub	sp, #24
 8000a6c:	af04      	add	r7, sp, #16
 8000a6e:	6078      	str	r0, [r7, #4]
 8000a70:	6039      	str	r1, [r7, #0]
 8000a72:	683b      	ldr	r3, [r7, #0]
 8000a74:	b29b      	uxth	r3, r3
 8000a76:	4808      	ldr	r0, [pc, #32]	@ (8000a98 <ssd1306_WriteData+0x30>)
 8000a78:	2201      	movs	r2, #1
 8000a7a:	4252      	negs	r2, r2
 8000a7c:	9202      	str	r2, [sp, #8]
 8000a7e:	9301      	str	r3, [sp, #4]
 8000a80:	687b      	ldr	r3, [r7, #4]
 8000a82:	9300      	str	r3, [sp, #0]
 8000a84:	2301      	movs	r3, #1
 8000a86:	2240      	movs	r2, #64	@ 0x40
 8000a88:	2178      	movs	r1, #120	@ 0x78
 8000a8a:	f000 fecf 	bl	800182c <HAL_I2C_Mem_Write>
 8000a8e:	46c0      	nop			@ (mov r8, r8)
 8000a90:	46bd      	mov	sp, r7
 8000a92:	b002      	add	sp, #8
 8000a94:	bd80      	pop	{r7, pc}
 8000a96:	46c0      	nop			@ (mov r8, r8)
 8000a98:	2000003c 	.word	0x2000003c

08000a9c <ssd1306_Init>:
 8000a9c:	b580      	push	{r7, lr}
 8000a9e:	af00      	add	r7, sp, #0
 8000aa0:	f7ff ffc2 	bl	8000a28 <ssd1306_Reset>
 8000aa4:	2064      	movs	r0, #100	@ 0x64
 8000aa6:	f000 fb97 	bl	80011d8 <HAL_Delay>
 8000aaa:	2000      	movs	r0, #0
 8000aac:	f000 f9c2 	bl	8000e34 <ssd1306_SetDisplayOn>
 8000ab0:	2020      	movs	r0, #32
 8000ab2:	f7ff ffbf 	bl	8000a34 <ssd1306_WriteCommand>
 8000ab6:	2000      	movs	r0, #0
 8000ab8:	f7ff ffbc 	bl	8000a34 <ssd1306_WriteCommand>
 8000abc:	20b0      	movs	r0, #176	@ 0xb0
 8000abe:	f7ff ffb9 	bl	8000a34 <ssd1306_WriteCommand>
 8000ac2:	20c0      	movs	r0, #192	@ 0xc0
 8000ac4:	f7ff ffb6 	bl	8000a34 <ssd1306_WriteCommand>
 8000ac8:	2000      	movs	r0, #0
 8000aca:	f7ff ffb3 	bl	8000a34 <ssd1306_WriteCommand>
 8000ace:	2010      	movs	r0, #16
 8000ad0:	f7ff ffb0 	bl	8000a34 <ssd1306_WriteCommand>
 8000ad4:	2040      	movs	r0, #64	@ 0x40
 8000ad6:	f7ff ffad 	bl	8000a34 <ssd1306_WriteCommand>
 8000ada:	20ff      	movs	r0, #255	@ 0xff
 8000adc:	f000 f991 	bl	8000e02 <ssd1306_SetContrast>
 8000ae0:	20a0      	movs	r0, #160	@ 0xa0
 8000ae2:	f7ff ffa7 	bl	8000a34 <ssd1306_WriteCommand>
 8000ae6:	20a6      	movs	r0, #166	@ 0xa6
 8000ae8:	f7ff ffa4 	bl	8000a34 <ssd1306_WriteCommand>
 8000aec:	20a8      	movs	r0, #168	@ 0xa8
 8000aee:	f7ff ffa1 	bl	8000a34 <ssd1306_WriteCommand>
 8000af2:	203f      	movs	r0, #63	@ 0x3f
 8000af4:	f7ff ff9e 	bl	8000a34 <ssd1306_WriteCommand>
 8000af8:	20a4      	movs	r0, #164	@ 0xa4
 8000afa:	f7ff ff9b 	bl	8000a34 <ssd1306_WriteCommand>
 8000afe:	20d3      	movs	r0, #211	@ 0xd3
 8000b00:	f7ff ff98 	bl	8000a34 <ssd1306_WriteCommand>
 8000b04:	2000      	movs	r0, #0
 8000b06:	f7ff ff95 	bl	8000a34 <ssd1306_WriteCommand>
 8000b0a:	20d5      	movs	r0, #213	@ 0xd5
 8000b0c:	f7ff ff92 	bl	8000a34 <ssd1306_WriteCommand>
 8000b10:	20f0      	movs	r0, #240	@ 0xf0
 8000b12:	f7ff ff8f 	bl	8000a34 <ssd1306_WriteCommand>
 8000b16:	20d9      	movs	r0, #217	@ 0xd9
 8000b18:	f7ff ff8c 	bl	8000a34 <ssd1306_WriteCommand>
 8000b1c:	2022      	movs	r0, #34	@ 0x22
 8000b1e:	f7ff ff89 	bl	8000a34 <ssd1306_WriteCommand>
 8000b22:	20da      	movs	r0, #218	@ 0xda
 8000b24:	f7ff ff86 	bl	8000a34 <ssd1306_WriteCommand>
 8000b28:	2012      	movs	r0, #18
 8000b2a:	f7ff ff83 	bl	8000a34 <ssd1306_WriteCommand>
 8000b2e:	20db      	movs	r0, #219	@ 0xdb
 8000b30:	f7ff ff80 	bl	8000a34 <ssd1306_WriteCommand>
 8000b34:	2020      	movs	r0, #32
 8000b36:	f7ff ff7d 	bl	8000a34 <ssd1306_WriteCommand>
 8000b3a:	208d      	movs	r0, #141	@ 0x8d
 8000b3c:	f7ff ff7a 	bl	8000a34 <ssd1306_WriteCommand>
 8000b40:	2014      	movs	r0, #20
 8000b42:	f7ff ff77 	bl	8000a34 <ssd1306_WriteCommand>
 8000b46:	2001      	movs	r0, #1
 8000b48:	f000 f974 	bl	8000e34 <ssd1306_SetDisplayOn>
 8000b4c:	2000      	movs	r0, #0
 8000b4e:	f000 f811 	bl	8000b74 <ssd1306_Fill>
 8000b52:	f000 f829 	bl	8000ba8 <ssd1306_UpdateScreen>
 8000b56:	4b06      	ldr	r3, [pc, #24]	@ (8000b70 <ssd1306_Init+0xd4>)
 8000b58:	2200      	movs	r2, #0
 8000b5a:	801a      	strh	r2, [r3, #0]
 8000b5c:	4b04      	ldr	r3, [pc, #16]	@ (8000b70 <ssd1306_Init+0xd4>)
 8000b5e:	2200      	movs	r2, #0
 8000b60:	805a      	strh	r2, [r3, #2]
 8000b62:	4b03      	ldr	r3, [pc, #12]	@ (8000b70 <ssd1306_Init+0xd4>)
 8000b64:	2201      	movs	r2, #1
 8000b66:	711a      	strb	r2, [r3, #4]
 8000b68:	46c0      	nop			@ (mov r8, r8)
 8000b6a:	46bd      	mov	sp, r7
 8000b6c:	bd80      	pop	{r7, pc}
 8000b6e:	46c0      	nop			@ (mov r8, r8)
 8000b70:	200004f8 	.word	0x200004f8

08000b74 <ssd1306_Fill>:
 8000b74:	b580      	push	{r7, lr}
 8000b76:	b082      	sub	sp, #8
 8000b78:	af00      	add	r7, sp, #0
 8000b7a:	0002      	movs	r2, r0
 8000b7c:	1dfb      	adds	r3, r7, #7
 8000b7e:	701a      	strb	r2, [r3, #0]
 8000b80:	1dfb      	adds	r3, r7, #7
 8000b82:	781b      	ldrb	r3, [r3, #0]
 8000b84:	2b00      	cmp	r3, #0
 8000b86:	d101      	bne.n	8000b8c <ssd1306_Fill+0x18>
 8000b88:	2300      	movs	r3, #0
 8000b8a:	e000      	b.n	8000b8e <ssd1306_Fill+0x1a>
 8000b8c:	23ff      	movs	r3, #255	@ 0xff
 8000b8e:	2282      	movs	r2, #130	@ 0x82
 8000b90:	00d2      	lsls	r2, r2, #3
 8000b92:	4804      	ldr	r0, [pc, #16]	@ (8000ba4 <ssd1306_Fill+0x30>)
 8000b94:	0019      	movs	r1, r3
 8000b96:	f002 fb27 	bl	80031e8 <memset>
 8000b9a:	46c0      	nop			@ (mov r8, r8)
 8000b9c:	46bd      	mov	sp, r7
 8000b9e:	b002      	add	sp, #8
 8000ba0:	bd80      	pop	{r7, pc}
 8000ba2:	46c0      	nop			@ (mov r8, r8)
 8000ba4:	200000e8 	.word	0x200000e8

08000ba8 <ssd1306_UpdateScreen>:
 8000ba8:	b580      	push	{r7, lr}
 8000baa:	b082      	sub	sp, #8
 8000bac:	af00      	add	r7, sp, #0
 8000bae:	1dfb      	adds	r3, r7, #7
 8000bb0:	2200      	movs	r2, #0
 8000bb2:	701a      	strb	r2, [r3, #0]
 8000bb4:	e01e      	b.n	8000bf4 <ssd1306_UpdateScreen+0x4c>
 8000bb6:	1dfb      	adds	r3, r7, #7
 8000bb8:	781b      	ldrb	r3, [r3, #0]
 8000bba:	3b50      	subs	r3, #80	@ 0x50
 8000bbc:	b2db      	uxtb	r3, r3
 8000bbe:	0018      	movs	r0, r3
 8000bc0:	f7ff ff38 	bl	8000a34 <ssd1306_WriteCommand>
 8000bc4:	2000      	movs	r0, #0
 8000bc6:	f7ff ff35 	bl	8000a34 <ssd1306_WriteCommand>
 8000bca:	2010      	movs	r0, #16
 8000bcc:	f7ff ff32 	bl	8000a34 <ssd1306_WriteCommand>
 8000bd0:	1dfb      	adds	r3, r7, #7
 8000bd2:	781a      	ldrb	r2, [r3, #0]
 8000bd4:	0013      	movs	r3, r2
 8000bd6:	019b      	lsls	r3, r3, #6
 8000bd8:	189b      	adds	r3, r3, r2
 8000bda:	005b      	lsls	r3, r3, #1
 8000bdc:	001a      	movs	r2, r3
 8000bde:	4b0a      	ldr	r3, [pc, #40]	@ (8000c08 <ssd1306_UpdateScreen+0x60>)
 8000be0:	18d3      	adds	r3, r2, r3
 8000be2:	2182      	movs	r1, #130	@ 0x82
 8000be4:	0018      	movs	r0, r3
 8000be6:	f7ff ff3f 	bl	8000a68 <ssd1306_WriteData>
 8000bea:	1dfb      	adds	r3, r7, #7
 8000bec:	781a      	ldrb	r2, [r3, #0]
 8000bee:	1dfb      	adds	r3, r7, #7
 8000bf0:	3201      	adds	r2, #1
 8000bf2:	701a      	strb	r2, [r3, #0]
 8000bf4:	1dfb      	adds	r3, r7, #7
 8000bf6:	781b      	ldrb	r3, [r3, #0]
 8000bf8:	2b07      	cmp	r3, #7
 8000bfa:	d9dc      	bls.n	8000bb6 <ssd1306_UpdateScreen+0xe>
 8000bfc:	46c0      	nop			@ (mov r8, r8)
 8000bfe:	46c0      	nop			@ (mov r8, r8)
 8000c00:	46bd      	mov	sp, r7
 8000c02:	b002      	add	sp, #8
 8000c04:	bd80      	pop	{r7, pc}
 8000c06:	46c0      	nop			@ (mov r8, r8)
 8000c08:	200000e8 	.word	0x200000e8

08000c0c <ssd1306_DrawPixel>:
 8000c0c:	b590      	push	{r4, r7, lr}
 8000c0e:	b083      	sub	sp, #12
 8000c10:	af00      	add	r7, sp, #0
 8000c12:	0004      	movs	r4, r0
 8000c14:	0008      	movs	r0, r1
 8000c16:	0011      	movs	r1, r2
 8000c18:	1dfb      	adds	r3, r7, #7
 8000c1a:	1c22      	adds	r2, r4, #0
 8000c1c:	701a      	strb	r2, [r3, #0]
 8000c1e:	1dbb      	adds	r3, r7, #6
 8000c20:	1c02      	adds	r2, r0, #0
 8000c22:	701a      	strb	r2, [r3, #0]
 8000c24:	1d7b      	adds	r3, r7, #5
 8000c26:	1c0a      	adds	r2, r1, #0
 8000c28:	701a      	strb	r2, [r3, #0]
 8000c2a:	1dfb      	adds	r3, r7, #7
 8000c2c:	781b      	ldrb	r3, [r3, #0]
 8000c2e:	2b81      	cmp	r3, #129	@ 0x81
 8000c30:	d853      	bhi.n	8000cda <ssd1306_DrawPixel+0xce>
 8000c32:	1dbb      	adds	r3, r7, #6
 8000c34:	781b      	ldrb	r3, [r3, #0]
 8000c36:	2b3f      	cmp	r3, #63	@ 0x3f
 8000c38:	d84f      	bhi.n	8000cda <ssd1306_DrawPixel+0xce>
 8000c3a:	1d7b      	adds	r3, r7, #5
 8000c3c:	781b      	ldrb	r3, [r3, #0]
 8000c3e:	2b01      	cmp	r3, #1
 8000c40:	d124      	bne.n	8000c8c <ssd1306_DrawPixel+0x80>
 8000c42:	1dfb      	adds	r3, r7, #7
 8000c44:	781a      	ldrb	r2, [r3, #0]
 8000c46:	1dbb      	adds	r3, r7, #6
 8000c48:	781b      	ldrb	r3, [r3, #0]
 8000c4a:	08db      	lsrs	r3, r3, #3
 8000c4c:	b2d8      	uxtb	r0, r3
 8000c4e:	0001      	movs	r1, r0
 8000c50:	000b      	movs	r3, r1
 8000c52:	019b      	lsls	r3, r3, #6
 8000c54:	185b      	adds	r3, r3, r1
 8000c56:	005b      	lsls	r3, r3, #1
 8000c58:	18d3      	adds	r3, r2, r3
 8000c5a:	4a22      	ldr	r2, [pc, #136]	@ (8000ce4 <ssd1306_DrawPixel+0xd8>)
 8000c5c:	5cd3      	ldrb	r3, [r2, r3]
 8000c5e:	b25a      	sxtb	r2, r3
 8000c60:	1dbb      	adds	r3, r7, #6
 8000c62:	781b      	ldrb	r3, [r3, #0]
 8000c64:	2107      	movs	r1, #7
 8000c66:	400b      	ands	r3, r1
 8000c68:	2101      	movs	r1, #1
 8000c6a:	4099      	lsls	r1, r3
 8000c6c:	000b      	movs	r3, r1
 8000c6e:	b25b      	sxtb	r3, r3
 8000c70:	4313      	orrs	r3, r2
 8000c72:	b25c      	sxtb	r4, r3
 8000c74:	1dfb      	adds	r3, r7, #7
 8000c76:	781a      	ldrb	r2, [r3, #0]
 8000c78:	0001      	movs	r1, r0
 8000c7a:	000b      	movs	r3, r1
 8000c7c:	019b      	lsls	r3, r3, #6
 8000c7e:	185b      	adds	r3, r3, r1
 8000c80:	005b      	lsls	r3, r3, #1
 8000c82:	18d3      	adds	r3, r2, r3
 8000c84:	b2e1      	uxtb	r1, r4
 8000c86:	4a17      	ldr	r2, [pc, #92]	@ (8000ce4 <ssd1306_DrawPixel+0xd8>)
 8000c88:	54d1      	strb	r1, [r2, r3]
 8000c8a:	e027      	b.n	8000cdc <ssd1306_DrawPixel+0xd0>
 8000c8c:	1dfb      	adds	r3, r7, #7
 8000c8e:	781a      	ldrb	r2, [r3, #0]
 8000c90:	1dbb      	adds	r3, r7, #6
 8000c92:	781b      	ldrb	r3, [r3, #0]
 8000c94:	08db      	lsrs	r3, r3, #3
 8000c96:	b2d8      	uxtb	r0, r3
 8000c98:	0001      	movs	r1, r0
 8000c9a:	000b      	movs	r3, r1
 8000c9c:	019b      	lsls	r3, r3, #6
 8000c9e:	185b      	adds	r3, r3, r1
 8000ca0:	005b      	lsls	r3, r3, #1
 8000ca2:	18d3      	adds	r3, r2, r3
 8000ca4:	4a0f      	ldr	r2, [pc, #60]	@ (8000ce4 <ssd1306_DrawPixel+0xd8>)
 8000ca6:	5cd3      	ldrb	r3, [r2, r3]
 8000ca8:	b25b      	sxtb	r3, r3
 8000caa:	1dba      	adds	r2, r7, #6
 8000cac:	7812      	ldrb	r2, [r2, #0]
 8000cae:	2107      	movs	r1, #7
 8000cb0:	400a      	ands	r2, r1
 8000cb2:	2101      	movs	r1, #1
 8000cb4:	4091      	lsls	r1, r2
 8000cb6:	000a      	movs	r2, r1
 8000cb8:	b252      	sxtb	r2, r2
 8000cba:	43d2      	mvns	r2, r2
 8000cbc:	b252      	sxtb	r2, r2
 8000cbe:	4013      	ands	r3, r2
 8000cc0:	b25c      	sxtb	r4, r3
 8000cc2:	1dfb      	adds	r3, r7, #7
 8000cc4:	781a      	ldrb	r2, [r3, #0]
 8000cc6:	0001      	movs	r1, r0
 8000cc8:	000b      	movs	r3, r1
 8000cca:	019b      	lsls	r3, r3, #6
 8000ccc:	185b      	adds	r3, r3, r1
 8000cce:	005b      	lsls	r3, r3, #1
 8000cd0:	18d3      	adds	r3, r2, r3
 8000cd2:	b2e1      	uxtb	r1, r4
 8000cd4:	4a03      	ldr	r2, [pc, #12]	@ (8000ce4 <ssd1306_DrawPixel+0xd8>)
 8000cd6:	54d1      	strb	r1, [r2, r3]
 8000cd8:	e000      	b.n	8000cdc <ssd1306_DrawPixel+0xd0>
 8000cda:	46c0      	nop			@ (mov r8, r8)
 8000cdc:	46bd      	mov	sp, r7
 8000cde:	b003      	add	sp, #12
 8000ce0:	bd90      	pop	{r4, r7, pc}
 8000ce2:	46c0      	nop			@ (mov r8, r8)
 8000ce4:	200000e8 	.word	0x200000e8

08000ce8 <ssd1306_DrawBitmap>:
 8000ce8:	b590      	push	{r4, r7, lr}
 8000cea:	b085      	sub	sp, #20
 8000cec:	af00      	add	r7, sp, #0
 8000cee:	0004      	movs	r4, r0
 8000cf0:	0008      	movs	r0, r1
 8000cf2:	603a      	str	r2, [r7, #0]
 8000cf4:	0019      	movs	r1, r3
 8000cf6:	1dfb      	adds	r3, r7, #7
 8000cf8:	1c22      	adds	r2, r4, #0
 8000cfa:	701a      	strb	r2, [r3, #0]
 8000cfc:	1dbb      	adds	r3, r7, #6
 8000cfe:	1c02      	adds	r2, r0, #0
 8000d00:	701a      	strb	r2, [r3, #0]
 8000d02:	1d7b      	adds	r3, r7, #5
 8000d04:	1c0a      	adds	r2, r1, #0
 8000d06:	701a      	strb	r2, [r3, #0]
 8000d08:	1d7b      	adds	r3, r7, #5
 8000d0a:	781b      	ldrb	r3, [r3, #0]
 8000d0c:	3307      	adds	r3, #7
 8000d0e:	2b00      	cmp	r3, #0
 8000d10:	da00      	bge.n	8000d14 <ssd1306_DrawBitmap+0x2c>
 8000d12:	3307      	adds	r3, #7
 8000d14:	10db      	asrs	r3, r3, #3
 8000d16:	001a      	movs	r2, r3
 8000d18:	230a      	movs	r3, #10
 8000d1a:	18fb      	adds	r3, r7, r3
 8000d1c:	801a      	strh	r2, [r3, #0]
 8000d1e:	230f      	movs	r3, #15
 8000d20:	18fb      	adds	r3, r7, r3
 8000d22:	2200      	movs	r2, #0
 8000d24:	701a      	strb	r2, [r3, #0]
 8000d26:	1dfb      	adds	r3, r7, #7
 8000d28:	781b      	ldrb	r3, [r3, #0]
 8000d2a:	2b81      	cmp	r3, #129	@ 0x81
 8000d2c:	d865      	bhi.n	8000dfa <ssd1306_DrawBitmap+0x112>
 8000d2e:	1dbb      	adds	r3, r7, #6
 8000d30:	781b      	ldrb	r3, [r3, #0]
 8000d32:	2b3f      	cmp	r3, #63	@ 0x3f
 8000d34:	d861      	bhi.n	8000dfa <ssd1306_DrawBitmap+0x112>
 8000d36:	230e      	movs	r3, #14
 8000d38:	18fb      	adds	r3, r7, r3
 8000d3a:	2200      	movs	r2, #0
 8000d3c:	701a      	strb	r2, [r3, #0]
 8000d3e:	e053      	b.n	8000de8 <ssd1306_DrawBitmap+0x100>
 8000d40:	230d      	movs	r3, #13
 8000d42:	18fb      	adds	r3, r7, r3
 8000d44:	2200      	movs	r2, #0
 8000d46:	701a      	strb	r2, [r3, #0]
 8000d48:	e03c      	b.n	8000dc4 <ssd1306_DrawBitmap+0xdc>
 8000d4a:	230d      	movs	r3, #13
 8000d4c:	18fb      	adds	r3, r7, r3
 8000d4e:	781b      	ldrb	r3, [r3, #0]
 8000d50:	2207      	movs	r2, #7
 8000d52:	4013      	ands	r3, r2
 8000d54:	d006      	beq.n	8000d64 <ssd1306_DrawBitmap+0x7c>
 8000d56:	230f      	movs	r3, #15
 8000d58:	18fa      	adds	r2, r7, r3
 8000d5a:	18fb      	adds	r3, r7, r3
 8000d5c:	781b      	ldrb	r3, [r3, #0]
 8000d5e:	18db      	adds	r3, r3, r3
 8000d60:	7013      	strb	r3, [r2, #0]
 8000d62:	e014      	b.n	8000d8e <ssd1306_DrawBitmap+0xa6>
 8000d64:	230e      	movs	r3, #14
 8000d66:	18fb      	adds	r3, r7, r3
 8000d68:	781b      	ldrb	r3, [r3, #0]
 8000d6a:	220a      	movs	r2, #10
 8000d6c:	18ba      	adds	r2, r7, r2
 8000d6e:	2100      	movs	r1, #0
 8000d70:	5e52      	ldrsh	r2, [r2, r1]
 8000d72:	4353      	muls	r3, r2
 8000d74:	220d      	movs	r2, #13
 8000d76:	18ba      	adds	r2, r7, r2
 8000d78:	7812      	ldrb	r2, [r2, #0]
 8000d7a:	08d2      	lsrs	r2, r2, #3
 8000d7c:	b2d2      	uxtb	r2, r2
 8000d7e:	189b      	adds	r3, r3, r2
 8000d80:	001a      	movs	r2, r3
 8000d82:	683b      	ldr	r3, [r7, #0]
 8000d84:	189a      	adds	r2, r3, r2
 8000d86:	230f      	movs	r3, #15
 8000d88:	18fb      	adds	r3, r7, r3
 8000d8a:	7812      	ldrb	r2, [r2, #0]
 8000d8c:	701a      	strb	r2, [r3, #0]
 8000d8e:	230f      	movs	r3, #15
 8000d90:	18fb      	adds	r3, r7, r3
 8000d92:	781b      	ldrb	r3, [r3, #0]
 8000d94:	b25b      	sxtb	r3, r3
 8000d96:	2b00      	cmp	r3, #0
 8000d98:	da0e      	bge.n	8000db8 <ssd1306_DrawBitmap+0xd0>
 8000d9a:	1dfa      	adds	r2, r7, #7
 8000d9c:	230d      	movs	r3, #13
 8000d9e:	18fb      	adds	r3, r7, r3
 8000da0:	7812      	ldrb	r2, [r2, #0]
 8000da2:	781b      	ldrb	r3, [r3, #0]
 8000da4:	18d3      	adds	r3, r2, r3
 8000da6:	b2d8      	uxtb	r0, r3
 8000da8:	2324      	movs	r3, #36	@ 0x24
 8000daa:	18fb      	adds	r3, r7, r3
 8000dac:	781a      	ldrb	r2, [r3, #0]
 8000dae:	1dbb      	adds	r3, r7, #6
 8000db0:	781b      	ldrb	r3, [r3, #0]
 8000db2:	0019      	movs	r1, r3
 8000db4:	f7ff ff2a 	bl	8000c0c <ssd1306_DrawPixel>
 8000db8:	210d      	movs	r1, #13
 8000dba:	187b      	adds	r3, r7, r1
 8000dbc:	781a      	ldrb	r2, [r3, #0]
 8000dbe:	187b      	adds	r3, r7, r1
 8000dc0:	3201      	adds	r2, #1
 8000dc2:	701a      	strb	r2, [r3, #0]
 8000dc4:	230d      	movs	r3, #13
 8000dc6:	18fa      	adds	r2, r7, r3
 8000dc8:	1d7b      	adds	r3, r7, #5
 8000dca:	7812      	ldrb	r2, [r2, #0]
 8000dcc:	781b      	ldrb	r3, [r3, #0]
 8000dce:	429a      	cmp	r2, r3
 8000dd0:	d3bb      	bcc.n	8000d4a <ssd1306_DrawBitmap+0x62>
 8000dd2:	210e      	movs	r1, #14
 8000dd4:	187b      	adds	r3, r7, r1
 8000dd6:	781a      	ldrb	r2, [r3, #0]
 8000dd8:	187b      	adds	r3, r7, r1
 8000dda:	3201      	adds	r2, #1
 8000ddc:	701a      	strb	r2, [r3, #0]
 8000dde:	1dbb      	adds	r3, r7, #6
 8000de0:	781a      	ldrb	r2, [r3, #0]
 8000de2:	1dbb      	adds	r3, r7, #6
 8000de4:	3201      	adds	r2, #1
 8000de6:	701a      	strb	r2, [r3, #0]
 8000de8:	230e      	movs	r3, #14
 8000dea:	18fa      	adds	r2, r7, r3
 8000dec:	2320      	movs	r3, #32
 8000dee:	18fb      	adds	r3, r7, r3
 8000df0:	7812      	ldrb	r2, [r2, #0]
 8000df2:	781b      	ldrb	r3, [r3, #0]
 8000df4:	429a      	cmp	r2, r3
 8000df6:	d3a3      	bcc.n	8000d40 <ssd1306_DrawBitmap+0x58>
 8000df8:	e000      	b.n	8000dfc <ssd1306_DrawBitmap+0x114>
 8000dfa:	46c0      	nop			@ (mov r8, r8)
 8000dfc:	46bd      	mov	sp, r7
 8000dfe:	b005      	add	sp, #20
 8000e00:	bd90      	pop	{r4, r7, pc}

08000e02 <ssd1306_SetContrast>:
 8000e02:	b580      	push	{r7, lr}
 8000e04:	b084      	sub	sp, #16
 8000e06:	af00      	add	r7, sp, #0
 8000e08:	0002      	movs	r2, r0
 8000e0a:	1dfb      	adds	r3, r7, #7
 8000e0c:	701a      	strb	r2, [r3, #0]
 8000e0e:	210f      	movs	r1, #15
 8000e10:	187b      	adds	r3, r7, r1
 8000e12:	2281      	movs	r2, #129	@ 0x81
 8000e14:	701a      	strb	r2, [r3, #0]
 8000e16:	187b      	adds	r3, r7, r1
 8000e18:	781b      	ldrb	r3, [r3, #0]
 8000e1a:	0018      	movs	r0, r3
 8000e1c:	f7ff fe0a 	bl	8000a34 <ssd1306_WriteCommand>
 8000e20:	1dfb      	adds	r3, r7, #7
 8000e22:	781b      	ldrb	r3, [r3, #0]
 8000e24:	0018      	movs	r0, r3
 8000e26:	f7ff fe05 	bl	8000a34 <ssd1306_WriteCommand>
 8000e2a:	46c0      	nop			@ (mov r8, r8)
 8000e2c:	46bd      	mov	sp, r7
 8000e2e:	b004      	add	sp, #16
 8000e30:	bd80      	pop	{r7, pc}
	...

08000e34 <ssd1306_SetDisplayOn>:
 8000e34:	b580      	push	{r7, lr}
 8000e36:	b084      	sub	sp, #16
 8000e38:	af00      	add	r7, sp, #0
 8000e3a:	0002      	movs	r2, r0
 8000e3c:	1dfb      	adds	r3, r7, #7
 8000e3e:	701a      	strb	r2, [r3, #0]
 8000e40:	1dfb      	adds	r3, r7, #7
 8000e42:	781b      	ldrb	r3, [r3, #0]
 8000e44:	2b00      	cmp	r3, #0
 8000e46:	d007      	beq.n	8000e58 <ssd1306_SetDisplayOn+0x24>
 8000e48:	230f      	movs	r3, #15
 8000e4a:	18fb      	adds	r3, r7, r3
 8000e4c:	22af      	movs	r2, #175	@ 0xaf
 8000e4e:	701a      	strb	r2, [r3, #0]
 8000e50:	4b0a      	ldr	r3, [pc, #40]	@ (8000e7c <ssd1306_SetDisplayOn+0x48>)
 8000e52:	2201      	movs	r2, #1
 8000e54:	715a      	strb	r2, [r3, #5]
 8000e56:	e006      	b.n	8000e66 <ssd1306_SetDisplayOn+0x32>
 8000e58:	230f      	movs	r3, #15
 8000e5a:	18fb      	adds	r3, r7, r3
 8000e5c:	22ae      	movs	r2, #174	@ 0xae
 8000e5e:	701a      	strb	r2, [r3, #0]
 8000e60:	4b06      	ldr	r3, [pc, #24]	@ (8000e7c <ssd1306_SetDisplayOn+0x48>)
 8000e62:	2200      	movs	r2, #0
 8000e64:	715a      	strb	r2, [r3, #5]
 8000e66:	230f      	movs	r3, #15
 8000e68:	18fb      	adds	r3, r7, r3
 8000e6a:	781b      	ldrb	r3, [r3, #0]
 8000e6c:	0018      	movs	r0, r3
 8000e6e:	f7ff fde1 	bl	8000a34 <ssd1306_WriteCommand>
 8000e72:	46c0      	nop			@ (mov r8, r8)
 8000e74:	46bd      	mov	sp, r7
 8000e76:	b004      	add	sp, #16
 8000e78:	bd80      	pop	{r7, pc}
 8000e7a:	46c0      	nop			@ (mov r8, r8)
 8000e7c:	200004f8 	.word	0x200004f8

08000e80 <HAL_MspInit>:
 8000e80:	b580      	push	{r7, lr}
 8000e82:	b082      	sub	sp, #8
 8000e84:	af00      	add	r7, sp, #0
 8000e86:	4b0f      	ldr	r3, [pc, #60]	@ (8000ec4 <HAL_MspInit+0x44>)
 8000e88:	6c1a      	ldr	r2, [r3, #64]	@ 0x40
 8000e8a:	4b0e      	ldr	r3, [pc, #56]	@ (8000ec4 <HAL_MspInit+0x44>)
 8000e8c:	2101      	movs	r1, #1
 8000e8e:	430a      	orrs	r2, r1
 8000e90:	641a      	str	r2, [r3, #64]	@ 0x40
 8000e92:	4b0c      	ldr	r3, [pc, #48]	@ (8000ec4 <HAL_MspInit+0x44>)
 8000e94:	6c1b      	ldr	r3, [r3, #64]	@ 0x40
 8000e96:	2201      	movs	r2, #1
 8000e98:	4013      	ands	r3, r2
 8000e9a:	607b      	str	r3, [r7, #4]
 8000e9c:	687b      	ldr	r3, [r7, #4]
 8000e9e:	4b09      	ldr	r3, [pc, #36]	@ (8000ec4 <HAL_MspInit+0x44>)
 8000ea0:	6bda      	ldr	r2, [r3, #60]	@ 0x3c
 8000ea2:	4b08      	ldr	r3, [pc, #32]	@ (8000ec4 <HAL_MspInit+0x44>)
 8000ea4:	2180      	movs	r1, #128	@ 0x80
 8000ea6:	0549      	lsls	r1, r1, #21
 8000ea8:	430a      	orrs	r2, r1
 8000eaa:	63da      	str	r2, [r3, #60]	@ 0x3c
 8000eac:	4b05      	ldr	r3, [pc, #20]	@ (8000ec4 <HAL_MspInit+0x44>)
 8000eae:	6bda      	ldr	r2, [r3, #60]	@ 0x3c
 8000eb0:	2380      	movs	r3, #128	@ 0x80
 8000eb2:	055b      	lsls	r3, r3, #21
 8000eb4:	4013      	ands	r3, r2
 8000eb6:	603b      	str	r3, [r7, #0]
 8000eb8:	683b      	ldr	r3, [r7, #0]
 8000eba:	46c0      	nop			@ (mov r8, r8)
 8000ebc:	46bd      	mov	sp, r7
 8000ebe:	b002      	add	sp, #8
 8000ec0:	bd80      	pop	{r7, pc}
 8000ec2:	46c0      	nop			@ (mov r8, r8)
 8000ec4:	40021000 	.word	0x40021000

08000ec8 <HAL_I2C_MspInit>:
 8000ec8:	b590      	push	{r4, r7, lr}
 8000eca:	b091      	sub	sp, #68	@ 0x44
 8000ecc:	af00      	add	r7, sp, #0
 8000ece:	6078      	str	r0, [r7, #4]
 8000ed0:	232c      	movs	r3, #44	@ 0x2c
 8000ed2:	18fb      	adds	r3, r7, r3
 8000ed4:	0018      	movs	r0, r3
 8000ed6:	2314      	movs	r3, #20
 8000ed8:	001a      	movs	r2, r3
 8000eda:	2100      	movs	r1, #0
 8000edc:	f002 f984 	bl	80031e8 <memset>
 8000ee0:	2414      	movs	r4, #20
 8000ee2:	193b      	adds	r3, r7, r4
 8000ee4:	0018      	movs	r0, r3
 8000ee6:	2318      	movs	r3, #24
 8000ee8:	001a      	movs	r2, r3
 8000eea:	2100      	movs	r1, #0
 8000eec:	f002 f97c 	bl	80031e8 <memset>
 8000ef0:	687b      	ldr	r3, [r7, #4]
 8000ef2:	681b      	ldr	r3, [r3, #0]
 8000ef4:	4a35      	ldr	r2, [pc, #212]	@ (8000fcc <HAL_I2C_MspInit+0x104>)
 8000ef6:	4293      	cmp	r3, r2
 8000ef8:	d163      	bne.n	8000fc2 <HAL_I2C_MspInit+0xfa>
 8000efa:	193b      	adds	r3, r7, r4
 8000efc:	2220      	movs	r2, #32
 8000efe:	601a      	str	r2, [r3, #0]
 8000f00:	193b      	adds	r3, r7, r4
 8000f02:	2200      	movs	r2, #0
 8000f04:	609a      	str	r2, [r3, #8]
 8000f06:	193b      	adds	r3, r7, r4
 8000f08:	0018      	movs	r0, r3
 8000f0a:	f001 fde7 	bl	8002adc <HAL_RCCEx_PeriphCLKConfig>
 8000f0e:	1e03      	subs	r3, r0, #0
 8000f10:	d001      	beq.n	8000f16 <HAL_I2C_MspInit+0x4e>
 8000f12:	f7ff fd83 	bl	8000a1c <Error_Handler>
 8000f16:	4b2e      	ldr	r3, [pc, #184]	@ (8000fd0 <HAL_I2C_MspInit+0x108>)
 8000f18:	6b5a      	ldr	r2, [r3, #52]	@ 0x34
 8000f1a:	4b2d      	ldr	r3, [pc, #180]	@ (8000fd0 <HAL_I2C_MspInit+0x108>)
 8000f1c:	2102      	movs	r1, #2
 8000f1e:	430a      	orrs	r2, r1
 8000f20:	635a      	str	r2, [r3, #52]	@ 0x34
 8000f22:	4b2b      	ldr	r3, [pc, #172]	@ (8000fd0 <HAL_I2C_MspInit+0x108>)
 8000f24:	6b5b      	ldr	r3, [r3, #52]	@ 0x34
 8000f26:	2202      	movs	r2, #2
 8000f28:	4013      	ands	r3, r2
 8000f2a:	613b      	str	r3, [r7, #16]
 8000f2c:	693b      	ldr	r3, [r7, #16]
 8000f2e:	4b28      	ldr	r3, [pc, #160]	@ (8000fd0 <HAL_I2C_MspInit+0x108>)
 8000f30:	6b5a      	ldr	r2, [r3, #52]	@ 0x34
 8000f32:	4b27      	ldr	r3, [pc, #156]	@ (8000fd0 <HAL_I2C_MspInit+0x108>)
 8000f34:	2101      	movs	r1, #1
 8000f36:	430a      	orrs	r2, r1
 8000f38:	635a      	str	r2, [r3, #52]	@ 0x34
 8000f3a:	4b25      	ldr	r3, [pc, #148]	@ (8000fd0 <HAL_I2C_MspInit+0x108>)
 8000f3c:	6b5b      	ldr	r3, [r3, #52]	@ 0x34
 8000f3e:	2201      	movs	r2, #1
 8000f40:	4013      	ands	r3, r2
 8000f42:	60fb      	str	r3, [r7, #12]
 8000f44:	68fb      	ldr	r3, [r7, #12]
 8000f46:	212c      	movs	r1, #44	@ 0x2c
 8000f48:	187b      	adds	r3, r7, r1
 8000f4a:	2280      	movs	r2, #128	@ 0x80
 8000f4c:	0092      	lsls	r2, r2, #2
 8000f4e:	601a      	str	r2, [r3, #0]
 8000f50:	000c      	movs	r4, r1
 8000f52:	193b      	adds	r3, r7, r4
 8000f54:	2212      	movs	r2, #18
 8000f56:	605a      	str	r2, [r3, #4]
 8000f58:	193b      	adds	r3, r7, r4
 8000f5a:	2201      	movs	r2, #1
 8000f5c:	609a      	str	r2, [r3, #8]
 8000f5e:	193b      	adds	r3, r7, r4
 8000f60:	2203      	movs	r2, #3
 8000f62:	60da      	str	r2, [r3, #12]
 8000f64:	193b      	adds	r3, r7, r4
 8000f66:	2206      	movs	r2, #6
 8000f68:	611a      	str	r2, [r3, #16]
 8000f6a:	193b      	adds	r3, r7, r4
 8000f6c:	4a19      	ldr	r2, [pc, #100]	@ (8000fd4 <HAL_I2C_MspInit+0x10c>)
 8000f6e:	0019      	movs	r1, r3
 8000f70:	0010      	movs	r0, r2
 8000f72:	f000 fa33 	bl	80013dc <HAL_GPIO_Init>
 8000f76:	0021      	movs	r1, r4
 8000f78:	187b      	adds	r3, r7, r1
 8000f7a:	2280      	movs	r2, #128	@ 0x80
 8000f7c:	0092      	lsls	r2, r2, #2
 8000f7e:	601a      	str	r2, [r3, #0]
 8000f80:	187b      	adds	r3, r7, r1
 8000f82:	2212      	movs	r2, #18
 8000f84:	605a      	str	r2, [r3, #4]
 8000f86:	187b      	adds	r3, r7, r1
 8000f88:	2201      	movs	r2, #1
 8000f8a:	609a      	str	r2, [r3, #8]
 8000f8c:	187b      	adds	r3, r7, r1
 8000f8e:	2203      	movs	r2, #3
 8000f90:	60da      	str	r2, [r3, #12]
 8000f92:	187b      	adds	r3, r7, r1
 8000f94:	2206      	movs	r2, #6
 8000f96:	611a      	str	r2, [r3, #16]
 8000f98:	187a      	adds	r2, r7, r1
 8000f9a:	23a0      	movs	r3, #160	@ 0xa0
 8000f9c:	05db      	lsls	r3, r3, #23
 8000f9e:	0011      	movs	r1, r2
 8000fa0:	0018      	movs	r0, r3
 8000fa2:	f000 fa1b 	bl	80013dc <HAL_GPIO_Init>
 8000fa6:	4b0a      	ldr	r3, [pc, #40]	@ (8000fd0 <HAL_I2C_MspInit+0x108>)
 8000fa8:	6bda      	ldr	r2, [r3, #60]	@ 0x3c
 8000faa:	4b09      	ldr	r3, [pc, #36]	@ (8000fd0 <HAL_I2C_MspInit+0x108>)
 8000fac:	2180      	movs	r1, #128	@ 0x80
 8000fae:	0389      	lsls	r1, r1, #14
 8000fb0:	430a      	orrs	r2, r1
 8000fb2:	63da      	str	r2, [r3, #60]	@ 0x3c
 8000fb4:	4b06      	ldr	r3, [pc, #24]	@ (8000fd0 <HAL_I2C_MspInit+0x108>)
 8000fb6:	6bda      	ldr	r2, [r3, #60]	@ 0x3c
 8000fb8:	2380      	movs	r3, #128	@ 0x80
 8000fba:	039b      	lsls	r3, r3, #14
 8000fbc:	4013      	ands	r3, r2
 8000fbe:	60bb      	str	r3, [r7, #8]
 8000fc0:	68bb      	ldr	r3, [r7, #8]
 8000fc2:	46c0      	nop			@ (mov r8, r8)
 8000fc4:	46bd      	mov	sp, r7
 8000fc6:	b011      	add	sp, #68	@ 0x44
 8000fc8:	bd90      	pop	{r4, r7, pc}
 8000fca:	46c0      	nop			@ (mov r8, r8)
 8000fcc:	40005400 	.word	0x40005400
 8000fd0:	40021000 	.word	0x40021000
 8000fd4:	50000400 	.word	0x50000400

08000fd8 <HAL_TIM_Base_MspInit>:
 8000fd8:	b580      	push	{r7, lr}
 8000fda:	b084      	sub	sp, #16
 8000fdc:	af00      	add	r7, sp, #0
 8000fde:	6078      	str	r0, [r7, #4]
 8000fe0:	687b      	ldr	r3, [r7, #4]
 8000fe2:	681b      	ldr	r3, [r3, #0]
 8000fe4:	4a0a      	ldr	r2, [pc, #40]	@ (8001010 <HAL_TIM_Base_MspInit+0x38>)
 8000fe6:	4293      	cmp	r3, r2
 8000fe8:	d10d      	bne.n	8001006 <HAL_TIM_Base_MspInit+0x2e>
 8000fea:	4b0a      	ldr	r3, [pc, #40]	@ (8001014 <HAL_TIM_Base_MspInit+0x3c>)
 8000fec:	6c1a      	ldr	r2, [r3, #64]	@ 0x40
 8000fee:	4b09      	ldr	r3, [pc, #36]	@ (8001014 <HAL_TIM_Base_MspInit+0x3c>)
 8000ff0:	2180      	movs	r1, #128	@ 0x80
 8000ff2:	0209      	lsls	r1, r1, #8
 8000ff4:	430a      	orrs	r2, r1
 8000ff6:	641a      	str	r2, [r3, #64]	@ 0x40
 8000ff8:	4b06      	ldr	r3, [pc, #24]	@ (8001014 <HAL_TIM_Base_MspInit+0x3c>)
 8000ffa:	6c1a      	ldr	r2, [r3, #64]	@ 0x40
 8000ffc:	2380      	movs	r3, #128	@ 0x80
 8000ffe:	021b      	lsls	r3, r3, #8
 8001000:	4013      	ands	r3, r2
 8001002:	60fb      	str	r3, [r7, #12]
 8001004:	68fb      	ldr	r3, [r7, #12]
 8001006:	46c0      	nop			@ (mov r8, r8)
 8001008:	46bd      	mov	sp, r7
 800100a:	b004      	add	sp, #16
 800100c:	bd80      	pop	{r7, pc}
 800100e:	46c0      	nop			@ (mov r8, r8)
 8001010:	40002000 	.word	0x40002000
 8001014:	40021000 	.word	0x40021000

08001018 <NMI_Handler>:
 8001018:	b580      	push	{r7, lr}
 800101a:	af00      	add	r7, sp, #0
 800101c:	46c0      	nop			@ (mov r8, r8)
 800101e:	e7fd      	b.n	800101c <NMI_Handler+0x4>

08001020 <HardFault_Handler>:
 8001020:	b580      	push	{r7, lr}
 8001022:	af00      	add	r7, sp, #0
 8001024:	46c0      	nop			@ (mov r8, r8)
 8001026:	e7fd      	b.n	8001024 <HardFault_Handler+0x4>

08001028 <SVC_Handler>:
 8001028:	b580      	push	{r7, lr}
 800102a:	af00      	add	r7, sp, #0
 800102c:	46c0      	nop			@ (mov r8, r8)
 800102e:	46bd      	mov	sp, r7
 8001030:	bd80      	pop	{r7, pc}

08001032 <PendSV_Handler>:
 8001032:	b580      	push	{r7, lr}
 8001034:	af00      	add	r7, sp, #0
 8001036:	46c0      	nop			@ (mov r8, r8)
 8001038:	46bd      	mov	sp, r7
 800103a:	bd80      	pop	{r7, pc}

0800103c <SysTick_Handler>:
 800103c:	b580      	push	{r7, lr}
 800103e:	af00      	add	r7, sp, #0
 8001040:	f000 f8ae 	bl	80011a0 <HAL_IncTick>
 8001044:	46c0      	nop			@ (mov r8, r8)
 8001046:	46bd      	mov	sp, r7
 8001048:	bd80      	pop	{r7, pc}

0800104a <RCC_IRQHandler>:
 800104a:	b580      	push	{r7, lr}
 800104c:	af00      	add	r7, sp, #0
 800104e:	46c0      	nop			@ (mov r8, r8)
 8001050:	46bd      	mov	sp, r7
 8001052:	bd80      	pop	{r7, pc}

08001054 <TIM14_IRQHandler>:
 8001054:	b580      	push	{r7, lr}
 8001056:	af00      	add	r7, sp, #0
 8001058:	4b03      	ldr	r3, [pc, #12]	@ (8001068 <TIM14_IRQHandler+0x14>)
 800105a:	0018      	movs	r0, r3
 800105c:	f001 ff0a 	bl	8002e74 <HAL_TIM_IRQHandler>
 8001060:	46c0      	nop			@ (mov r8, r8)
 8001062:	46bd      	mov	sp, r7
 8001064:	bd80      	pop	{r7, pc}
 8001066:	46c0      	nop			@ (mov r8, r8)
 8001068:	20000090 	.word	0x20000090

0800106c <SystemInit>:
 800106c:	b580      	push	{r7, lr}
 800106e:	af00      	add	r7, sp, #0
 8001070:	46c0      	nop			@ (mov r8, r8)
 8001072:	46bd      	mov	sp, r7
 8001074:	bd80      	pop	{r7, pc}
	...

08001078 <Reset_Handler>:
 8001078:	480d      	ldr	r0, [pc, #52]	@ (80010b0 <LoopForever+0x2>)
 800107a:	4685      	mov	sp, r0
 800107c:	f7ff fff6 	bl	800106c <SystemInit>
 8001080:	480c      	ldr	r0, [pc, #48]	@ (80010b4 <LoopForever+0x6>)
 8001082:	490d      	ldr	r1, [pc, #52]	@ (80010b8 <LoopForever+0xa>)
 8001084:	4a0d      	ldr	r2, [pc, #52]	@ (80010bc <LoopForever+0xe>)
 8001086:	2300      	movs	r3, #0
 8001088:	e002      	b.n	8001090 <LoopCopyDataInit>

0800108a <CopyDataInit>:
 800108a:	58d4      	ldr	r4, [r2, r3]
 800108c:	50c4      	str	r4, [r0, r3]
 800108e:	3304      	adds	r3, #4

08001090 <LoopCopyDataInit>:
 8001090:	18c4      	adds	r4, r0, r3
 8001092:	428c      	cmp	r4, r1
 8001094:	d3f9      	bcc.n	800108a <CopyDataInit>
 8001096:	4a0a      	ldr	r2, [pc, #40]	@ (80010c0 <LoopForever+0x12>)
 8001098:	4c0a      	ldr	r4, [pc, #40]	@ (80010c4 <LoopForever+0x16>)
 800109a:	2300      	movs	r3, #0
 800109c:	e001      	b.n	80010a2 <LoopFillZerobss>

0800109e <FillZerobss>:
 800109e:	6013      	str	r3, [r2, #0]
 80010a0:	3204      	adds	r2, #4

080010a2 <LoopFillZerobss>:
 80010a2:	42a2      	cmp	r2, r4
 80010a4:	d3fb      	bcc.n	800109e <FillZerobss>
 80010a6:	f002 f8a7 	bl	80031f8 <__libc_init_array>
 80010aa:	f7ff fa01 	bl	80004b0 <main>

080010ae <LoopForever>:
 80010ae:	e7fe      	b.n	80010ae <LoopForever>
 80010b0:	20002000 	.word	0x20002000
 80010b4:	20000000 	.word	0x20000000
 80010b8:	20000020 	.word	0x20000020
 80010bc:	08005ea0 	.word	0x08005ea0
 80010c0:	20000020 	.word	0x20000020
 80010c4:	20000504 	.word	0x20000504

080010c8 <ADC1_IRQHandler>:
 80010c8:	e7fe      	b.n	80010c8 <ADC1_IRQHandler>
	...

080010cc <HAL_Init>:
 80010cc:	b580      	push	{r7, lr}
 80010ce:	b082      	sub	sp, #8
 80010d0:	af00      	add	r7, sp, #0
 80010d2:	1dfb      	adds	r3, r7, #7
 80010d4:	2200      	movs	r2, #0
 80010d6:	701a      	strb	r2, [r3, #0]
 80010d8:	4b0b      	ldr	r3, [pc, #44]	@ (8001108 <HAL_Init+0x3c>)
 80010da:	681a      	ldr	r2, [r3, #0]
 80010dc:	4b0a      	ldr	r3, [pc, #40]	@ (8001108 <HAL_Init+0x3c>)
 80010de:	2180      	movs	r1, #128	@ 0x80
 80010e0:	0049      	lsls	r1, r1, #1
 80010e2:	430a      	orrs	r2, r1
 80010e4:	601a      	str	r2, [r3, #0]
 80010e6:	2003      	movs	r0, #3
 80010e8:	f000 f810 	bl	800110c <HAL_InitTick>
 80010ec:	1e03      	subs	r3, r0, #0
 80010ee:	d003      	beq.n	80010f8 <HAL_Init+0x2c>
 80010f0:	1dfb      	adds	r3, r7, #7
 80010f2:	2201      	movs	r2, #1
 80010f4:	701a      	strb	r2, [r3, #0]
 80010f6:	e001      	b.n	80010fc <HAL_Init+0x30>
 80010f8:	f7ff fec2 	bl	8000e80 <HAL_MspInit>
 80010fc:	1dfb      	adds	r3, r7, #7
 80010fe:	781b      	ldrb	r3, [r3, #0]
 8001100:	0018      	movs	r0, r3
 8001102:	46bd      	mov	sp, r7
 8001104:	b002      	add	sp, #8
 8001106:	bd80      	pop	{r7, pc}
 8001108:	40022000 	.word	0x40022000

0800110c <HAL_InitTick>:
 800110c:	b590      	push	{r4, r7, lr}
 800110e:	b085      	sub	sp, #20
 8001110:	af00      	add	r7, sp, #0
 8001112:	6078      	str	r0, [r7, #4]
 8001114:	230f      	movs	r3, #15
 8001116:	18fb      	adds	r3, r7, r3
 8001118:	2200      	movs	r2, #0
 800111a:	701a      	strb	r2, [r3, #0]
 800111c:	4b1d      	ldr	r3, [pc, #116]	@ (8001194 <HAL_InitTick+0x88>)
 800111e:	781b      	ldrb	r3, [r3, #0]
 8001120:	2b00      	cmp	r3, #0
 8001122:	d02b      	beq.n	800117c <HAL_InitTick+0x70>
 8001124:	4b1c      	ldr	r3, [pc, #112]	@ (8001198 <HAL_InitTick+0x8c>)
 8001126:	681c      	ldr	r4, [r3, #0]
 8001128:	4b1a      	ldr	r3, [pc, #104]	@ (8001194 <HAL_InitTick+0x88>)
 800112a:	781b      	ldrb	r3, [r3, #0]
 800112c:	0019      	movs	r1, r3
 800112e:	23fa      	movs	r3, #250	@ 0xfa
 8001130:	0098      	lsls	r0, r3, #2
 8001132:	f7fe ffe5 	bl	8000100 <__udivsi3>
 8001136:	0003      	movs	r3, r0
 8001138:	0019      	movs	r1, r3
 800113a:	0020      	movs	r0, r4
 800113c:	f7fe ffe0 	bl	8000100 <__udivsi3>
 8001140:	0003      	movs	r3, r0
 8001142:	0018      	movs	r0, r3
 8001144:	f000 f93d 	bl	80013c2 <HAL_SYSTICK_Config>
 8001148:	1e03      	subs	r3, r0, #0
 800114a:	d112      	bne.n	8001172 <HAL_InitTick+0x66>
 800114c:	687b      	ldr	r3, [r7, #4]
 800114e:	2b03      	cmp	r3, #3
 8001150:	d80a      	bhi.n	8001168 <HAL_InitTick+0x5c>
 8001152:	6879      	ldr	r1, [r7, #4]
 8001154:	2301      	movs	r3, #1
 8001156:	425b      	negs	r3, r3
 8001158:	2200      	movs	r2, #0
 800115a:	0018      	movs	r0, r3
 800115c:	f000 f90c 	bl	8001378 <HAL_NVIC_SetPriority>
 8001160:	4b0e      	ldr	r3, [pc, #56]	@ (800119c <HAL_InitTick+0x90>)
 8001162:	687a      	ldr	r2, [r7, #4]
 8001164:	601a      	str	r2, [r3, #0]
 8001166:	e00d      	b.n	8001184 <HAL_InitTick+0x78>
 8001168:	230f      	movs	r3, #15
 800116a:	18fb      	adds	r3, r7, r3
 800116c:	2201      	movs	r2, #1
 800116e:	701a      	strb	r2, [r3, #0]
 8001170:	e008      	b.n	8001184 <HAL_InitTick+0x78>
 8001172:	230f      	movs	r3, #15
 8001174:	18fb      	adds	r3, r7, r3
 8001176:	2201      	movs	r2, #1
 8001178:	701a      	strb	r2, [r3, #0]
 800117a:	e003      	b.n	8001184 <HAL_InitTick+0x78>
 800117c:	230f      	movs	r3, #15
 800117e:	18fb      	adds	r3, r7, r3
 8001180:	2201      	movs	r2, #1
 8001182:	701a      	strb	r2, [r3, #0]
 8001184:	230f      	movs	r3, #15
 8001186:	18fb      	adds	r3, r7, r3
 8001188:	781b      	ldrb	r3, [r3, #0]
 800118a:	0018      	movs	r0, r3
 800118c:	46bd      	mov	sp, r7
 800118e:	b005      	add	sp, #20
 8001190:	bd90      	pop	{r4, r7, pc}
 8001192:	46c0      	nop			@ (mov r8, r8)
 8001194:	2000001c 	.word	0x2000001c
 8001198:	20000014 	.word	0x20000014
 800119c:	20000018 	.word	0x20000018

080011a0 <HAL_IncTick>:
 80011a0:	b580      	push	{r7, lr}
 80011a2:	af00      	add	r7, sp, #0
 80011a4:	4b05      	ldr	r3, [pc, #20]	@ (80011bc <HAL_IncTick+0x1c>)
 80011a6:	781b      	ldrb	r3, [r3, #0]
 80011a8:	001a      	movs	r2, r3
 80011aa:	4b05      	ldr	r3, [pc, #20]	@ (80011c0 <HAL_IncTick+0x20>)
 80011ac:	681b      	ldr	r3, [r3, #0]
 80011ae:	18d2      	adds	r2, r2, r3
 80011b0:	4b03      	ldr	r3, [pc, #12]	@ (80011c0 <HAL_IncTick+0x20>)
 80011b2:	601a      	str	r2, [r3, #0]
 80011b4:	46c0      	nop			@ (mov r8, r8)
 80011b6:	46bd      	mov	sp, r7
 80011b8:	bd80      	pop	{r7, pc}
 80011ba:	46c0      	nop			@ (mov r8, r8)
 80011bc:	2000001c 	.word	0x2000001c
 80011c0:	20000500 	.word	0x20000500

080011c4 <HAL_GetTick>:
 80011c4:	b580      	push	{r7, lr}
 80011c6:	af00      	add	r7, sp, #0
 80011c8:	4b02      	ldr	r3, [pc, #8]	@ (80011d4 <HAL_GetTick+0x10>)
 80011ca:	681b      	ldr	r3, [r3, #0]
 80011cc:	0018      	movs	r0, r3
 80011ce:	46bd      	mov	sp, r7
 80011d0:	bd80      	pop	{r7, pc}
 80011d2:	46c0      	nop			@ (mov r8, r8)
 80011d4:	20000500 	.word	0x20000500

080011d8 <HAL_Delay>:
 80011d8:	b580      	push	{r7, lr}
 80011da:	b084      	sub	sp, #16
 80011dc:	af00      	add	r7, sp, #0
 80011de:	6078      	str	r0, [r7, #4]
 80011e0:	f7ff fff0 	bl	80011c4 <HAL_GetTick>
 80011e4:	0003      	movs	r3, r0
 80011e6:	60bb      	str	r3, [r7, #8]
 80011e8:	687b      	ldr	r3, [r7, #4]
 80011ea:	60fb      	str	r3, [r7, #12]
 80011ec:	68fb      	ldr	r3, [r7, #12]
 80011ee:	3301      	adds	r3, #1
 80011f0:	d005      	beq.n	80011fe <HAL_Delay+0x26>
 80011f2:	4b0a      	ldr	r3, [pc, #40]	@ (800121c <HAL_Delay+0x44>)
 80011f4:	781b      	ldrb	r3, [r3, #0]
 80011f6:	001a      	movs	r2, r3
 80011f8:	68fb      	ldr	r3, [r7, #12]
 80011fa:	189b      	adds	r3, r3, r2
 80011fc:	60fb      	str	r3, [r7, #12]
 80011fe:	46c0      	nop			@ (mov r8, r8)
 8001200:	f7ff ffe0 	bl	80011c4 <HAL_GetTick>
 8001204:	0002      	movs	r2, r0
 8001206:	68bb      	ldr	r3, [r7, #8]
 8001208:	1ad3      	subs	r3, r2, r3
 800120a:	68fa      	ldr	r2, [r7, #12]
 800120c:	429a      	cmp	r2, r3
 800120e:	d8f7      	bhi.n	8001200 <HAL_Delay+0x28>
 8001210:	46c0      	nop			@ (mov r8, r8)
 8001212:	46c0      	nop			@ (mov r8, r8)
 8001214:	46bd      	mov	sp, r7
 8001216:	b004      	add	sp, #16
 8001218:	bd80      	pop	{r7, pc}
 800121a:	46c0      	nop			@ (mov r8, r8)
 800121c:	2000001c 	.word	0x2000001c

08001220 <__NVIC_EnableIRQ>:
 8001220:	b580      	push	{r7, lr}
 8001222:	b082      	sub	sp, #8
 8001224:	af00      	add	r7, sp, #0
 8001226:	0002      	movs	r2, r0
 8001228:	1dfb      	adds	r3, r7, #7
 800122a:	701a      	strb	r2, [r3, #0]
 800122c:	1dfb      	adds	r3, r7, #7
 800122e:	781b      	ldrb	r3, [r3, #0]
 8001230:	2b7f      	cmp	r3, #127	@ 0x7f
 8001232:	d809      	bhi.n	8001248 <__NVIC_EnableIRQ+0x28>
 8001234:	1dfb      	adds	r3, r7, #7
 8001236:	781b      	ldrb	r3, [r3, #0]
 8001238:	001a      	movs	r2, r3
 800123a:	231f      	movs	r3, #31
 800123c:	401a      	ands	r2, r3
 800123e:	4b04      	ldr	r3, [pc, #16]	@ (8001250 <__NVIC_EnableIRQ+0x30>)
 8001240:	2101      	movs	r1, #1
 8001242:	4091      	lsls	r1, r2
 8001244:	000a      	movs	r2, r1
 8001246:	601a      	str	r2, [r3, #0]
 8001248:	46c0      	nop			@ (mov r8, r8)
 800124a:	46bd      	mov	sp, r7
 800124c:	b002      	add	sp, #8
 800124e:	bd80      	pop	{r7, pc}
 8001250:	e000e100 	.word	0xe000e100

08001254 <__NVIC_SetPriority>:
 8001254:	b590      	push	{r4, r7, lr}
 8001256:	b083      	sub	sp, #12
 8001258:	af00      	add	r7, sp, #0
 800125a:	0002      	movs	r2, r0
 800125c:	6039      	str	r1, [r7, #0]
 800125e:	1dfb      	adds	r3, r7, #7
 8001260:	701a      	strb	r2, [r3, #0]
 8001262:	1dfb      	adds	r3, r7, #7
 8001264:	781b      	ldrb	r3, [r3, #0]
 8001266:	2b7f      	cmp	r3, #127	@ 0x7f
 8001268:	d828      	bhi.n	80012bc <__NVIC_SetPriority+0x68>
 800126a:	4a2f      	ldr	r2, [pc, #188]	@ (8001328 <__NVIC_SetPriority+0xd4>)
 800126c:	1dfb      	adds	r3, r7, #7
 800126e:	781b      	ldrb	r3, [r3, #0]
 8001270:	b25b      	sxtb	r3, r3
 8001272:	089b      	lsrs	r3, r3, #2
 8001274:	33c0      	adds	r3, #192	@ 0xc0
 8001276:	009b      	lsls	r3, r3, #2
 8001278:	589b      	ldr	r3, [r3, r2]
 800127a:	1dfa      	adds	r2, r7, #7
 800127c:	7812      	ldrb	r2, [r2, #0]
 800127e:	0011      	movs	r1, r2
 8001280:	2203      	movs	r2, #3
 8001282:	400a      	ands	r2, r1
 8001284:	00d2      	lsls	r2, r2, #3
 8001286:	21ff      	movs	r1, #255	@ 0xff
 8001288:	4091      	lsls	r1, r2
 800128a:	000a      	movs	r2, r1
 800128c:	43d2      	mvns	r2, r2
 800128e:	401a      	ands	r2, r3
 8001290:	0011      	movs	r1, r2
 8001292:	683b      	ldr	r3, [r7, #0]
 8001294:	019b      	lsls	r3, r3, #6
 8001296:	22ff      	movs	r2, #255	@ 0xff
 8001298:	401a      	ands	r2, r3
 800129a:	1dfb      	adds	r3, r7, #7
 800129c:	781b      	ldrb	r3, [r3, #0]
 800129e:	0018      	movs	r0, r3
 80012a0:	2303      	movs	r3, #3
 80012a2:	4003      	ands	r3, r0
 80012a4:	00db      	lsls	r3, r3, #3
 80012a6:	409a      	lsls	r2, r3
 80012a8:	481f      	ldr	r0, [pc, #124]	@ (8001328 <__NVIC_SetPriority+0xd4>)
 80012aa:	1dfb      	adds	r3, r7, #7
 80012ac:	781b      	ldrb	r3, [r3, #0]
 80012ae:	b25b      	sxtb	r3, r3
 80012b0:	089b      	lsrs	r3, r3, #2
 80012b2:	430a      	orrs	r2, r1
 80012b4:	33c0      	adds	r3, #192	@ 0xc0
 80012b6:	009b      	lsls	r3, r3, #2
 80012b8:	501a      	str	r2, [r3, r0]
 80012ba:	e031      	b.n	8001320 <__NVIC_SetPriority+0xcc>
 80012bc:	4a1b      	ldr	r2, [pc, #108]	@ (800132c <__NVIC_SetPriority+0xd8>)
 80012be:	1dfb      	adds	r3, r7, #7
 80012c0:	781b      	ldrb	r3, [r3, #0]
 80012c2:	0019      	movs	r1, r3
 80012c4:	230f      	movs	r3, #15
 80012c6:	400b      	ands	r3, r1
 80012c8:	3b08      	subs	r3, #8
 80012ca:	089b      	lsrs	r3, r3, #2
 80012cc:	3306      	adds	r3, #6
 80012ce:	009b      	lsls	r3, r3, #2
 80012d0:	18d3      	adds	r3, r2, r3
 80012d2:	3304      	adds	r3, #4
 80012d4:	681b      	ldr	r3, [r3, #0]
 80012d6:	1dfa      	adds	r2, r7, #7
 80012d8:	7812      	ldrb	r2, [r2, #0]
 80012da:	0011      	movs	r1, r2
 80012dc:	2203      	movs	r2, #3
 80012de:	400a      	ands	r2, r1
 80012e0:	00d2      	lsls	r2, r2, #3
 80012e2:	21ff      	movs	r1, #255	@ 0xff
 80012e4:	4091      	lsls	r1, r2
 80012e6:	000a      	movs	r2, r1
 80012e8:	43d2      	mvns	r2, r2
 80012ea:	401a      	ands	r2, r3
 80012ec:	0011      	movs	r1, r2
 80012ee:	683b      	ldr	r3, [r7, #0]
 80012f0:	019b      	lsls	r3, r3, #6
 80012f2:	22ff      	movs	r2, #255	@ 0xff
 80012f4:	401a      	ands	r2, r3
 80012f6:	1dfb      	adds	r3, r7, #7
 80012f8:	781b      	ldrb	r3, [r3, #0]
 80012fa:	0018      	movs	r0, r3
 80012fc:	2303      	movs	r3, #3
 80012fe:	4003      	ands	r3, r0
 8001300:	00db      	lsls	r3, r3, #3
 8001302:	409a      	lsls	r2, r3
 8001304:	4809      	ldr	r0, [pc, #36]	@ (800132c <__NVIC_SetPriority+0xd8>)
 8001306:	1dfb      	adds	r3, r7, #7
 8001308:	781b      	ldrb	r3, [r3, #0]
 800130a:	001c      	movs	r4, r3
 800130c:	230f      	movs	r3, #15
 800130e:	4023      	ands	r3, r4
 8001310:	3b08      	subs	r3, #8
 8001312:	089b      	lsrs	r3, r3, #2
 8001314:	430a      	orrs	r2, r1
 8001316:	3306      	adds	r3, #6
 8001318:	009b      	lsls	r3, r3, #2
 800131a:	18c3      	adds	r3, r0, r3
 800131c:	3304      	adds	r3, #4
 800131e:	601a      	str	r2, [r3, #0]
 8001320:	46c0      	nop			@ (mov r8, r8)
 8001322:	46bd      	mov	sp, r7
 8001324:	b003      	add	sp, #12
 8001326:	bd90      	pop	{r4, r7, pc}
 8001328:	e000e100 	.word	0xe000e100
 800132c:	e000ed00 	.word	0xe000ed00

08001330 <SysTick_Config>:
 8001330:	b580      	push	{r7, lr}
 8001332:	b082      	sub	sp, #8
 8001334:	af00      	add	r7, sp, #0
 8001336:	6078      	str	r0, [r7, #4]
 8001338:	687b      	ldr	r3, [r7, #4]
 800133a:	1e5a      	subs	r2, r3, #1
 800133c:	2380      	movs	r3, #128	@ 0x80
 800133e:	045b      	lsls	r3, r3, #17
 8001340:	429a      	cmp	r2, r3
 8001342:	d301      	bcc.n	8001348 <SysTick_Config+0x18>
 8001344:	2301      	movs	r3, #1
 8001346:	e010      	b.n	800136a <SysTick_Config+0x3a>
 8001348:	4b0a      	ldr	r3, [pc, #40]	@ (8001374 <SysTick_Config+0x44>)
 800134a:	687a      	ldr	r2, [r7, #4]
 800134c:	3a01      	subs	r2, #1
 800134e:	605a      	str	r2, [r3, #4]
 8001350:	2301      	movs	r3, #1
 8001352:	425b      	negs	r3, r3
 8001354:	2103      	movs	r1, #3
 8001356:	0018      	movs	r0, r3
 8001358:	f7ff ff7c 	bl	8001254 <__NVIC_SetPriority>
 800135c:	4b05      	ldr	r3, [pc, #20]	@ (8001374 <SysTick_Config+0x44>)
 800135e:	2200      	movs	r2, #0
 8001360:	609a      	str	r2, [r3, #8]
 8001362:	4b04      	ldr	r3, [pc, #16]	@ (8001374 <SysTick_Config+0x44>)
 8001364:	2207      	movs	r2, #7
 8001366:	601a      	str	r2, [r3, #0]
 8001368:	2300      	movs	r3, #0
 800136a:	0018      	movs	r0, r3
 800136c:	46bd      	mov	sp, r7
 800136e:	b002      	add	sp, #8
 8001370:	bd80      	pop	{r7, pc}
 8001372:	46c0      	nop			@ (mov r8, r8)
 8001374:	e000e010 	.word	0xe000e010

08001378 <HAL_NVIC_SetPriority>:
 8001378:	b580      	push	{r7, lr}
 800137a:	b084      	sub	sp, #16
 800137c:	af00      	add	r7, sp, #0
 800137e:	60b9      	str	r1, [r7, #8]
 8001380:	607a      	str	r2, [r7, #4]
 8001382:	210f      	movs	r1, #15
 8001384:	187b      	adds	r3, r7, r1
 8001386:	1c02      	adds	r2, r0, #0
 8001388:	701a      	strb	r2, [r3, #0]
 800138a:	68ba      	ldr	r2, [r7, #8]
 800138c:	187b      	adds	r3, r7, r1
 800138e:	781b      	ldrb	r3, [r3, #0]
 8001390:	b25b      	sxtb	r3, r3
 8001392:	0011      	movs	r1, r2
 8001394:	0018      	movs	r0, r3
 8001396:	f7ff ff5d 	bl	8001254 <__NVIC_SetPriority>
 800139a:	46c0      	nop			@ (mov r8, r8)
 800139c:	46bd      	mov	sp, r7
 800139e:	b004      	add	sp, #16
 80013a0:	bd80      	pop	{r7, pc}

080013a2 <HAL_NVIC_EnableIRQ>:
 80013a2:	b580      	push	{r7, lr}
 80013a4:	b082      	sub	sp, #8
 80013a6:	af00      	add	r7, sp, #0
 80013a8:	0002      	movs	r2, r0
 80013aa:	1dfb      	adds	r3, r7, #7
 80013ac:	701a      	strb	r2, [r3, #0]
 80013ae:	1dfb      	adds	r3, r7, #7
 80013b0:	781b      	ldrb	r3, [r3, #0]
 80013b2:	b25b      	sxtb	r3, r3
 80013b4:	0018      	movs	r0, r3
 80013b6:	f7ff ff33 	bl	8001220 <__NVIC_EnableIRQ>
 80013ba:	46c0      	nop			@ (mov r8, r8)
 80013bc:	46bd      	mov	sp, r7
 80013be:	b002      	add	sp, #8
 80013c0:	bd80      	pop	{r7, pc}

080013c2 <HAL_SYSTICK_Config>:
 80013c2:	b580      	push	{r7, lr}
 80013c4:	b082      	sub	sp, #8
 80013c6:	af00      	add	r7, sp, #0
 80013c8:	6078      	str	r0, [r7, #4]
 80013ca:	687b      	ldr	r3, [r7, #4]
 80013cc:	0018      	movs	r0, r3
 80013ce:	f7ff ffaf 	bl	8001330 <SysTick_Config>
 80013d2:	0003      	movs	r3, r0
 80013d4:	0018      	movs	r0, r3
 80013d6:	46bd      	mov	sp, r7
 80013d8:	b002      	add	sp, #8
 80013da:	bd80      	pop	{r7, pc}

080013dc <HAL_GPIO_Init>:
 80013dc:	b580      	push	{r7, lr}
 80013de:	b086      	sub	sp, #24
 80013e0:	af00      	add	r7, sp, #0
 80013e2:	6078      	str	r0, [r7, #4]
 80013e4:	6039      	str	r1, [r7, #0]
 80013e6:	2300      	movs	r3, #0
 80013e8:	617b      	str	r3, [r7, #20]
 80013ea:	e147      	b.n	800167c <HAL_GPIO_Init+0x2a0>
 80013ec:	683b      	ldr	r3, [r7, #0]
 80013ee:	681b      	ldr	r3, [r3, #0]
 80013f0:	2101      	movs	r1, #1
 80013f2:	697a      	ldr	r2, [r7, #20]
 80013f4:	4091      	lsls	r1, r2
 80013f6:	000a      	movs	r2, r1
 80013f8:	4013      	ands	r3, r2
 80013fa:	60fb      	str	r3, [r7, #12]
 80013fc:	68fb      	ldr	r3, [r7, #12]
 80013fe:	2b00      	cmp	r3, #0
 8001400:	d100      	bne.n	8001404 <HAL_GPIO_Init+0x28>
 8001402:	e138      	b.n	8001676 <HAL_GPIO_Init+0x29a>
 8001404:	683b      	ldr	r3, [r7, #0]
 8001406:	685b      	ldr	r3, [r3, #4]
 8001408:	2203      	movs	r2, #3
 800140a:	4013      	ands	r3, r2
 800140c:	2b01      	cmp	r3, #1
 800140e:	d005      	beq.n	800141c <HAL_GPIO_Init+0x40>
 8001410:	683b      	ldr	r3, [r7, #0]
 8001412:	685b      	ldr	r3, [r3, #4]
 8001414:	2203      	movs	r2, #3
 8001416:	4013      	ands	r3, r2
 8001418:	2b02      	cmp	r3, #2
 800141a:	d130      	bne.n	800147e <HAL_GPIO_Init+0xa2>
 800141c:	687b      	ldr	r3, [r7, #4]
 800141e:	689b      	ldr	r3, [r3, #8]
 8001420:	613b      	str	r3, [r7, #16]
 8001422:	697b      	ldr	r3, [r7, #20]
 8001424:	005b      	lsls	r3, r3, #1
 8001426:	2203      	movs	r2, #3
 8001428:	409a      	lsls	r2, r3
 800142a:	0013      	movs	r3, r2
 800142c:	43da      	mvns	r2, r3
 800142e:	693b      	ldr	r3, [r7, #16]
 8001430:	4013      	ands	r3, r2
 8001432:	613b      	str	r3, [r7, #16]
 8001434:	683b      	ldr	r3, [r7, #0]
 8001436:	68da      	ldr	r2, [r3, #12]
 8001438:	697b      	ldr	r3, [r7, #20]
 800143a:	005b      	lsls	r3, r3, #1
 800143c:	409a      	lsls	r2, r3
 800143e:	0013      	movs	r3, r2
 8001440:	693a      	ldr	r2, [r7, #16]
 8001442:	4313      	orrs	r3, r2
 8001444:	613b      	str	r3, [r7, #16]
 8001446:	687b      	ldr	r3, [r7, #4]
 8001448:	693a      	ldr	r2, [r7, #16]
 800144a:	609a      	str	r2, [r3, #8]
 800144c:	687b      	ldr	r3, [r7, #4]
 800144e:	685b      	ldr	r3, [r3, #4]
 8001450:	613b      	str	r3, [r7, #16]
 8001452:	2201      	movs	r2, #1
 8001454:	697b      	ldr	r3, [r7, #20]
 8001456:	409a      	lsls	r2, r3
 8001458:	0013      	movs	r3, r2
 800145a:	43da      	mvns	r2, r3
 800145c:	693b      	ldr	r3, [r7, #16]
 800145e:	4013      	ands	r3, r2
 8001460:	613b      	str	r3, [r7, #16]
 8001462:	683b      	ldr	r3, [r7, #0]
 8001464:	685b      	ldr	r3, [r3, #4]
 8001466:	091b      	lsrs	r3, r3, #4
 8001468:	2201      	movs	r2, #1
 800146a:	401a      	ands	r2, r3
 800146c:	697b      	ldr	r3, [r7, #20]
 800146e:	409a      	lsls	r2, r3
 8001470:	0013      	movs	r3, r2
 8001472:	693a      	ldr	r2, [r7, #16]
 8001474:	4313      	orrs	r3, r2
 8001476:	613b      	str	r3, [r7, #16]
 8001478:	687b      	ldr	r3, [r7, #4]
 800147a:	693a      	ldr	r2, [r7, #16]
 800147c:	605a      	str	r2, [r3, #4]
 800147e:	683b      	ldr	r3, [r7, #0]
 8001480:	685b      	ldr	r3, [r3, #4]
 8001482:	2203      	movs	r2, #3
 8001484:	4013      	ands	r3, r2
 8001486:	2b03      	cmp	r3, #3
 8001488:	d017      	beq.n	80014ba <HAL_GPIO_Init+0xde>
 800148a:	687b      	ldr	r3, [r7, #4]
 800148c:	68db      	ldr	r3, [r3, #12]
 800148e:	613b      	str	r3, [r7, #16]
 8001490:	697b      	ldr	r3, [r7, #20]
 8001492:	005b      	lsls	r3, r3, #1
 8001494:	2203      	movs	r2, #3
 8001496:	409a      	lsls	r2, r3
 8001498:	0013      	movs	r3, r2
 800149a:	43da      	mvns	r2, r3
 800149c:	693b      	ldr	r3, [r7, #16]
 800149e:	4013      	ands	r3, r2
 80014a0:	613b      	str	r3, [r7, #16]
 80014a2:	683b      	ldr	r3, [r7, #0]
 80014a4:	689a      	ldr	r2, [r3, #8]
 80014a6:	697b      	ldr	r3, [r7, #20]
 80014a8:	005b      	lsls	r3, r3, #1
 80014aa:	409a      	lsls	r2, r3
 80014ac:	0013      	movs	r3, r2
 80014ae:	693a      	ldr	r2, [r7, #16]
 80014b0:	4313      	orrs	r3, r2
 80014b2:	613b      	str	r3, [r7, #16]
 80014b4:	687b      	ldr	r3, [r7, #4]
 80014b6:	693a      	ldr	r2, [r7, #16]
 80014b8:	60da      	str	r2, [r3, #12]
 80014ba:	683b      	ldr	r3, [r7, #0]
 80014bc:	685b      	ldr	r3, [r3, #4]
 80014be:	2203      	movs	r2, #3
 80014c0:	4013      	ands	r3, r2
 80014c2:	2b02      	cmp	r3, #2
 80014c4:	d123      	bne.n	800150e <HAL_GPIO_Init+0x132>
 80014c6:	697b      	ldr	r3, [r7, #20]
 80014c8:	08da      	lsrs	r2, r3, #3
 80014ca:	687b      	ldr	r3, [r7, #4]
 80014cc:	3208      	adds	r2, #8
 80014ce:	0092      	lsls	r2, r2, #2
 80014d0:	58d3      	ldr	r3, [r2, r3]
 80014d2:	613b      	str	r3, [r7, #16]
 80014d4:	697b      	ldr	r3, [r7, #20]
 80014d6:	2207      	movs	r2, #7
 80014d8:	4013      	ands	r3, r2
 80014da:	009b      	lsls	r3, r3, #2
 80014dc:	220f      	movs	r2, #15
 80014de:	409a      	lsls	r2, r3
 80014e0:	0013      	movs	r3, r2
 80014e2:	43da      	mvns	r2, r3
 80014e4:	693b      	ldr	r3, [r7, #16]
 80014e6:	4013      	ands	r3, r2
 80014e8:	613b      	str	r3, [r7, #16]
 80014ea:	683b      	ldr	r3, [r7, #0]
 80014ec:	691a      	ldr	r2, [r3, #16]
 80014ee:	697b      	ldr	r3, [r7, #20]
 80014f0:	2107      	movs	r1, #7
 80014f2:	400b      	ands	r3, r1
 80014f4:	009b      	lsls	r3, r3, #2
 80014f6:	409a      	lsls	r2, r3
 80014f8:	0013      	movs	r3, r2
 80014fa:	693a      	ldr	r2, [r7, #16]
 80014fc:	4313      	orrs	r3, r2
 80014fe:	613b      	str	r3, [r7, #16]
 8001500:	697b      	ldr	r3, [r7, #20]
 8001502:	08da      	lsrs	r2, r3, #3
 8001504:	687b      	ldr	r3, [r7, #4]
 8001506:	3208      	adds	r2, #8
 8001508:	0092      	lsls	r2, r2, #2
 800150a:	6939      	ldr	r1, [r7, #16]
 800150c:	50d1      	str	r1, [r2, r3]
 800150e:	687b      	ldr	r3, [r7, #4]
 8001510:	681b      	ldr	r3, [r3, #0]
 8001512:	613b      	str	r3, [r7, #16]
 8001514:	697b      	ldr	r3, [r7, #20]
 8001516:	005b      	lsls	r3, r3, #1
 8001518:	2203      	movs	r2, #3
 800151a:	409a      	lsls	r2, r3
 800151c:	0013      	movs	r3, r2
 800151e:	43da      	mvns	r2, r3
 8001520:	693b      	ldr	r3, [r7, #16]
 8001522:	4013      	ands	r3, r2
 8001524:	613b      	str	r3, [r7, #16]
 8001526:	683b      	ldr	r3, [r7, #0]
 8001528:	685b      	ldr	r3, [r3, #4]
 800152a:	2203      	movs	r2, #3
 800152c:	401a      	ands	r2, r3
 800152e:	697b      	ldr	r3, [r7, #20]
 8001530:	005b      	lsls	r3, r3, #1
 8001532:	409a      	lsls	r2, r3
 8001534:	0013      	movs	r3, r2
 8001536:	693a      	ldr	r2, [r7, #16]
 8001538:	4313      	orrs	r3, r2
 800153a:	613b      	str	r3, [r7, #16]
 800153c:	687b      	ldr	r3, [r7, #4]
 800153e:	693a      	ldr	r2, [r7, #16]
 8001540:	601a      	str	r2, [r3, #0]
 8001542:	683b      	ldr	r3, [r7, #0]
 8001544:	685a      	ldr	r2, [r3, #4]
 8001546:	23c0      	movs	r3, #192	@ 0xc0
 8001548:	029b      	lsls	r3, r3, #10
 800154a:	4013      	ands	r3, r2
 800154c:	d100      	bne.n	8001550 <HAL_GPIO_Init+0x174>
 800154e:	e092      	b.n	8001676 <HAL_GPIO_Init+0x29a>
 8001550:	4a50      	ldr	r2, [pc, #320]	@ (8001694 <HAL_GPIO_Init+0x2b8>)
 8001552:	697b      	ldr	r3, [r7, #20]
 8001554:	089b      	lsrs	r3, r3, #2
 8001556:	3318      	adds	r3, #24
 8001558:	009b      	lsls	r3, r3, #2
 800155a:	589b      	ldr	r3, [r3, r2]
 800155c:	613b      	str	r3, [r7, #16]
 800155e:	697b      	ldr	r3, [r7, #20]
 8001560:	2203      	movs	r2, #3
 8001562:	4013      	ands	r3, r2
 8001564:	00db      	lsls	r3, r3, #3
 8001566:	220f      	movs	r2, #15
 8001568:	409a      	lsls	r2, r3
 800156a:	0013      	movs	r3, r2
 800156c:	43da      	mvns	r2, r3
 800156e:	693b      	ldr	r3, [r7, #16]
 8001570:	4013      	ands	r3, r2
 8001572:	613b      	str	r3, [r7, #16]
 8001574:	687a      	ldr	r2, [r7, #4]
 8001576:	23a0      	movs	r3, #160	@ 0xa0
 8001578:	05db      	lsls	r3, r3, #23
 800157a:	429a      	cmp	r2, r3
 800157c:	d013      	beq.n	80015a6 <HAL_GPIO_Init+0x1ca>
 800157e:	687b      	ldr	r3, [r7, #4]
 8001580:	4a45      	ldr	r2, [pc, #276]	@ (8001698 <HAL_GPIO_Init+0x2bc>)
 8001582:	4293      	cmp	r3, r2
 8001584:	d00d      	beq.n	80015a2 <HAL_GPIO_Init+0x1c6>
 8001586:	687b      	ldr	r3, [r7, #4]
 8001588:	4a44      	ldr	r2, [pc, #272]	@ (800169c <HAL_GPIO_Init+0x2c0>)
 800158a:	4293      	cmp	r3, r2
 800158c:	d007      	beq.n	800159e <HAL_GPIO_Init+0x1c2>
 800158e:	687b      	ldr	r3, [r7, #4]
 8001590:	4a43      	ldr	r2, [pc, #268]	@ (80016a0 <HAL_GPIO_Init+0x2c4>)
 8001592:	4293      	cmp	r3, r2
 8001594:	d101      	bne.n	800159a <HAL_GPIO_Init+0x1be>
 8001596:	2303      	movs	r3, #3
 8001598:	e006      	b.n	80015a8 <HAL_GPIO_Init+0x1cc>
 800159a:	2305      	movs	r3, #5
 800159c:	e004      	b.n	80015a8 <HAL_GPIO_Init+0x1cc>
 800159e:	2302      	movs	r3, #2
 80015a0:	e002      	b.n	80015a8 <HAL_GPIO_Init+0x1cc>
 80015a2:	2301      	movs	r3, #1
 80015a4:	e000      	b.n	80015a8 <HAL_GPIO_Init+0x1cc>
 80015a6:	2300      	movs	r3, #0
 80015a8:	697a      	ldr	r2, [r7, #20]
 80015aa:	2103      	movs	r1, #3
 80015ac:	400a      	ands	r2, r1
 80015ae:	00d2      	lsls	r2, r2, #3
 80015b0:	4093      	lsls	r3, r2
 80015b2:	693a      	ldr	r2, [r7, #16]
 80015b4:	4313      	orrs	r3, r2
 80015b6:	613b      	str	r3, [r7, #16]
 80015b8:	4936      	ldr	r1, [pc, #216]	@ (8001694 <HAL_GPIO_Init+0x2b8>)
 80015ba:	697b      	ldr	r3, [r7, #20]
 80015bc:	089b      	lsrs	r3, r3, #2
 80015be:	3318      	adds	r3, #24
 80015c0:	009b      	lsls	r3, r3, #2
 80015c2:	693a      	ldr	r2, [r7, #16]
 80015c4:	505a      	str	r2, [r3, r1]
 80015c6:	4b33      	ldr	r3, [pc, #204]	@ (8001694 <HAL_GPIO_Init+0x2b8>)
 80015c8:	681b      	ldr	r3, [r3, #0]
 80015ca:	613b      	str	r3, [r7, #16]
 80015cc:	68fb      	ldr	r3, [r7, #12]
 80015ce:	43da      	mvns	r2, r3
 80015d0:	693b      	ldr	r3, [r7, #16]
 80015d2:	4013      	ands	r3, r2
 80015d4:	613b      	str	r3, [r7, #16]
 80015d6:	683b      	ldr	r3, [r7, #0]
 80015d8:	685a      	ldr	r2, [r3, #4]
 80015da:	2380      	movs	r3, #128	@ 0x80
 80015dc:	035b      	lsls	r3, r3, #13
 80015de:	4013      	ands	r3, r2
 80015e0:	d003      	beq.n	80015ea <HAL_GPIO_Init+0x20e>
 80015e2:	693a      	ldr	r2, [r7, #16]
 80015e4:	68fb      	ldr	r3, [r7, #12]
 80015e6:	4313      	orrs	r3, r2
 80015e8:	613b      	str	r3, [r7, #16]
 80015ea:	4b2a      	ldr	r3, [pc, #168]	@ (8001694 <HAL_GPIO_Init+0x2b8>)
 80015ec:	693a      	ldr	r2, [r7, #16]
 80015ee:	601a      	str	r2, [r3, #0]
 80015f0:	4b28      	ldr	r3, [pc, #160]	@ (8001694 <HAL_GPIO_Init+0x2b8>)
 80015f2:	685b      	ldr	r3, [r3, #4]
 80015f4:	613b      	str	r3, [r7, #16]
 80015f6:	68fb      	ldr	r3, [r7, #12]
 80015f8:	43da      	mvns	r2, r3
 80015fa:	693b      	ldr	r3, [r7, #16]
 80015fc:	4013      	ands	r3, r2
 80015fe:	613b      	str	r3, [r7, #16]
 8001600:	683b      	ldr	r3, [r7, #0]
 8001602:	685a      	ldr	r2, [r3, #4]
 8001604:	2380      	movs	r3, #128	@ 0x80
 8001606:	039b      	lsls	r3, r3, #14
 8001608:	4013      	ands	r3, r2
 800160a:	d003      	beq.n	8001614 <HAL_GPIO_Init+0x238>
 800160c:	693a      	ldr	r2, [r7, #16]
 800160e:	68fb      	ldr	r3, [r7, #12]
 8001610:	4313      	orrs	r3, r2
 8001612:	613b      	str	r3, [r7, #16]
 8001614:	4b1f      	ldr	r3, [pc, #124]	@ (8001694 <HAL_GPIO_Init+0x2b8>)
 8001616:	693a      	ldr	r2, [r7, #16]
 8001618:	605a      	str	r2, [r3, #4]
 800161a:	4a1e      	ldr	r2, [pc, #120]	@ (8001694 <HAL_GPIO_Init+0x2b8>)
 800161c:	2384      	movs	r3, #132	@ 0x84
 800161e:	58d3      	ldr	r3, [r2, r3]
 8001620:	613b      	str	r3, [r7, #16]
 8001622:	68fb      	ldr	r3, [r7, #12]
 8001624:	43da      	mvns	r2, r3
 8001626:	693b      	ldr	r3, [r7, #16]
 8001628:	4013      	ands	r3, r2
 800162a:	613b      	str	r3, [r7, #16]
 800162c:	683b      	ldr	r3, [r7, #0]
 800162e:	685a      	ldr	r2, [r3, #4]
 8001630:	2380      	movs	r3, #128	@ 0x80
 8001632:	029b      	lsls	r3, r3, #10
 8001634:	4013      	ands	r3, r2
 8001636:	d003      	beq.n	8001640 <HAL_GPIO_Init+0x264>
 8001638:	693a      	ldr	r2, [r7, #16]
 800163a:	68fb      	ldr	r3, [r7, #12]
 800163c:	4313      	orrs	r3, r2
 800163e:	613b      	str	r3, [r7, #16]
 8001640:	4914      	ldr	r1, [pc, #80]	@ (8001694 <HAL_GPIO_Init+0x2b8>)
 8001642:	2284      	movs	r2, #132	@ 0x84
 8001644:	693b      	ldr	r3, [r7, #16]
 8001646:	508b      	str	r3, [r1, r2]
 8001648:	4a12      	ldr	r2, [pc, #72]	@ (8001694 <HAL_GPIO_Init+0x2b8>)
 800164a:	2380      	movs	r3, #128	@ 0x80
 800164c:	58d3      	ldr	r3, [r2, r3]
 800164e:	613b      	str	r3, [r7, #16]
 8001650:	68fb      	ldr	r3, [r7, #12]
 8001652:	43da      	mvns	r2, r3
 8001654:	693b      	ldr	r3, [r7, #16]
 8001656:	4013      	ands	r3, r2
 8001658:	613b      	str	r3, [r7, #16]
 800165a:	683b      	ldr	r3, [r7, #0]
 800165c:	685a      	ldr	r2, [r3, #4]
 800165e:	2380      	movs	r3, #128	@ 0x80
 8001660:	025b      	lsls	r3, r3, #9
 8001662:	4013      	ands	r3, r2
 8001664:	d003      	beq.n	800166e <HAL_GPIO_Init+0x292>
 8001666:	693a      	ldr	r2, [r7, #16]
 8001668:	68fb      	ldr	r3, [r7, #12]
 800166a:	4313      	orrs	r3, r2
 800166c:	613b      	str	r3, [r7, #16]
 800166e:	4909      	ldr	r1, [pc, #36]	@ (8001694 <HAL_GPIO_Init+0x2b8>)
 8001670:	2280      	movs	r2, #128	@ 0x80
 8001672:	693b      	ldr	r3, [r7, #16]
 8001674:	508b      	str	r3, [r1, r2]
 8001676:	697b      	ldr	r3, [r7, #20]
 8001678:	3301      	adds	r3, #1
 800167a:	617b      	str	r3, [r7, #20]
 800167c:	683b      	ldr	r3, [r7, #0]
 800167e:	681a      	ldr	r2, [r3, #0]
 8001680:	697b      	ldr	r3, [r7, #20]
 8001682:	40da      	lsrs	r2, r3
 8001684:	1e13      	subs	r3, r2, #0
 8001686:	d000      	beq.n	800168a <HAL_GPIO_Init+0x2ae>
 8001688:	e6b0      	b.n	80013ec <HAL_GPIO_Init+0x10>
 800168a:	46c0      	nop			@ (mov r8, r8)
 800168c:	46c0      	nop			@ (mov r8, r8)
 800168e:	46bd      	mov	sp, r7
 8001690:	b006      	add	sp, #24
 8001692:	bd80      	pop	{r7, pc}
 8001694:	40021800 	.word	0x40021800
 8001698:	50000400 	.word	0x50000400
 800169c:	50000800 	.word	0x50000800
 80016a0:	50000c00 	.word	0x50000c00

080016a4 <HAL_GPIO_ReadPin>:
 80016a4:	b580      	push	{r7, lr}
 80016a6:	b084      	sub	sp, #16
 80016a8:	af00      	add	r7, sp, #0
 80016aa:	6078      	str	r0, [r7, #4]
 80016ac:	000a      	movs	r2, r1
 80016ae:	1cbb      	adds	r3, r7, #2
 80016b0:	801a      	strh	r2, [r3, #0]
 80016b2:	687b      	ldr	r3, [r7, #4]
 80016b4:	691b      	ldr	r3, [r3, #16]
 80016b6:	1cba      	adds	r2, r7, #2
 80016b8:	8812      	ldrh	r2, [r2, #0]
 80016ba:	4013      	ands	r3, r2
 80016bc:	d004      	beq.n	80016c8 <HAL_GPIO_ReadPin+0x24>
 80016be:	230f      	movs	r3, #15
 80016c0:	18fb      	adds	r3, r7, r3
 80016c2:	2201      	movs	r2, #1
 80016c4:	701a      	strb	r2, [r3, #0]
 80016c6:	e003      	b.n	80016d0 <HAL_GPIO_ReadPin+0x2c>
 80016c8:	230f      	movs	r3, #15
 80016ca:	18fb      	adds	r3, r7, r3
 80016cc:	2200      	movs	r2, #0
 80016ce:	701a      	strb	r2, [r3, #0]
 80016d0:	230f      	movs	r3, #15
 80016d2:	18fb      	adds	r3, r7, r3
 80016d4:	781b      	ldrb	r3, [r3, #0]
 80016d6:	0018      	movs	r0, r3
 80016d8:	46bd      	mov	sp, r7
 80016da:	b004      	add	sp, #16
 80016dc:	bd80      	pop	{r7, pc}
	...

080016e0 <HAL_I2C_Init>:
 80016e0:	b580      	push	{r7, lr}
 80016e2:	b082      	sub	sp, #8
 80016e4:	af00      	add	r7, sp, #0
 80016e6:	6078      	str	r0, [r7, #4]
 80016e8:	687b      	ldr	r3, [r7, #4]
 80016ea:	2b00      	cmp	r3, #0
 80016ec:	d101      	bne.n	80016f2 <HAL_I2C_Init+0x12>
 80016ee:	2301      	movs	r3, #1
 80016f0:	e08f      	b.n	8001812 <HAL_I2C_Init+0x132>
 80016f2:	687b      	ldr	r3, [r7, #4]
 80016f4:	2241      	movs	r2, #65	@ 0x41
 80016f6:	5c9b      	ldrb	r3, [r3, r2]
 80016f8:	b2db      	uxtb	r3, r3
 80016fa:	2b00      	cmp	r3, #0
 80016fc:	d107      	bne.n	800170e <HAL_I2C_Init+0x2e>
 80016fe:	687b      	ldr	r3, [r7, #4]
 8001700:	2240      	movs	r2, #64	@ 0x40
 8001702:	2100      	movs	r1, #0
 8001704:	5499      	strb	r1, [r3, r2]
 8001706:	687b      	ldr	r3, [r7, #4]
 8001708:	0018      	movs	r0, r3
 800170a:	f7ff fbdd 	bl	8000ec8 <HAL_I2C_MspInit>
 800170e:	687b      	ldr	r3, [r7, #4]
 8001710:	2241      	movs	r2, #65	@ 0x41
 8001712:	2124      	movs	r1, #36	@ 0x24
 8001714:	5499      	strb	r1, [r3, r2]
 8001716:	687b      	ldr	r3, [r7, #4]
 8001718:	681b      	ldr	r3, [r3, #0]
 800171a:	681a      	ldr	r2, [r3, #0]
 800171c:	687b      	ldr	r3, [r7, #4]
 800171e:	681b      	ldr	r3, [r3, #0]
 8001720:	2101      	movs	r1, #1
 8001722:	438a      	bics	r2, r1
 8001724:	601a      	str	r2, [r3, #0]
 8001726:	687b      	ldr	r3, [r7, #4]
 8001728:	685a      	ldr	r2, [r3, #4]
 800172a:	687b      	ldr	r3, [r7, #4]
 800172c:	681b      	ldr	r3, [r3, #0]
 800172e:	493b      	ldr	r1, [pc, #236]	@ (800181c <HAL_I2C_Init+0x13c>)
 8001730:	400a      	ands	r2, r1
 8001732:	611a      	str	r2, [r3, #16]
 8001734:	687b      	ldr	r3, [r7, #4]
 8001736:	681b      	ldr	r3, [r3, #0]
 8001738:	689a      	ldr	r2, [r3, #8]
 800173a:	687b      	ldr	r3, [r7, #4]
 800173c:	681b      	ldr	r3, [r3, #0]
 800173e:	4938      	ldr	r1, [pc, #224]	@ (8001820 <HAL_I2C_Init+0x140>)
 8001740:	400a      	ands	r2, r1
 8001742:	609a      	str	r2, [r3, #8]
 8001744:	687b      	ldr	r3, [r7, #4]
 8001746:	68db      	ldr	r3, [r3, #12]
 8001748:	2b01      	cmp	r3, #1
 800174a:	d108      	bne.n	800175e <HAL_I2C_Init+0x7e>
 800174c:	687b      	ldr	r3, [r7, #4]
 800174e:	689a      	ldr	r2, [r3, #8]
 8001750:	687b      	ldr	r3, [r7, #4]
 8001752:	681b      	ldr	r3, [r3, #0]
 8001754:	2180      	movs	r1, #128	@ 0x80
 8001756:	0209      	lsls	r1, r1, #8
 8001758:	430a      	orrs	r2, r1
 800175a:	609a      	str	r2, [r3, #8]
 800175c:	e007      	b.n	800176e <HAL_I2C_Init+0x8e>
 800175e:	687b      	ldr	r3, [r7, #4]
 8001760:	689a      	ldr	r2, [r3, #8]
 8001762:	687b      	ldr	r3, [r7, #4]
 8001764:	681b      	ldr	r3, [r3, #0]
 8001766:	2184      	movs	r1, #132	@ 0x84
 8001768:	0209      	lsls	r1, r1, #8
 800176a:	430a      	orrs	r2, r1
 800176c:	609a      	str	r2, [r3, #8]
 800176e:	687b      	ldr	r3, [r7, #4]
 8001770:	68db      	ldr	r3, [r3, #12]
 8001772:	2b02      	cmp	r3, #2
 8001774:	d109      	bne.n	800178a <HAL_I2C_Init+0xaa>
 8001776:	687b      	ldr	r3, [r7, #4]
 8001778:	681b      	ldr	r3, [r3, #0]
 800177a:	685a      	ldr	r2, [r3, #4]
 800177c:	687b      	ldr	r3, [r7, #4]
 800177e:	681b      	ldr	r3, [r3, #0]
 8001780:	2180      	movs	r1, #128	@ 0x80
 8001782:	0109      	lsls	r1, r1, #4
 8001784:	430a      	orrs	r2, r1
 8001786:	605a      	str	r2, [r3, #4]
 8001788:	e007      	b.n	800179a <HAL_I2C_Init+0xba>
 800178a:	687b      	ldr	r3, [r7, #4]
 800178c:	681b      	ldr	r3, [r3, #0]
 800178e:	685a      	ldr	r2, [r3, #4]
 8001790:	687b      	ldr	r3, [r7, #4]
 8001792:	681b      	ldr	r3, [r3, #0]
 8001794:	4923      	ldr	r1, [pc, #140]	@ (8001824 <HAL_I2C_Init+0x144>)
 8001796:	400a      	ands	r2, r1
 8001798:	605a      	str	r2, [r3, #4]
 800179a:	687b      	ldr	r3, [r7, #4]
 800179c:	681b      	ldr	r3, [r3, #0]
 800179e:	685a      	ldr	r2, [r3, #4]
 80017a0:	687b      	ldr	r3, [r7, #4]
 80017a2:	681b      	ldr	r3, [r3, #0]
 80017a4:	4920      	ldr	r1, [pc, #128]	@ (8001828 <HAL_I2C_Init+0x148>)
 80017a6:	430a      	orrs	r2, r1
 80017a8:	605a      	str	r2, [r3, #4]
 80017aa:	687b      	ldr	r3, [r7, #4]
 80017ac:	681b      	ldr	r3, [r3, #0]
 80017ae:	68da      	ldr	r2, [r3, #12]
 80017b0:	687b      	ldr	r3, [r7, #4]
 80017b2:	681b      	ldr	r3, [r3, #0]
 80017b4:	491a      	ldr	r1, [pc, #104]	@ (8001820 <HAL_I2C_Init+0x140>)
 80017b6:	400a      	ands	r2, r1
 80017b8:	60da      	str	r2, [r3, #12]
 80017ba:	687b      	ldr	r3, [r7, #4]
 80017bc:	691a      	ldr	r2, [r3, #16]
 80017be:	687b      	ldr	r3, [r7, #4]
 80017c0:	695b      	ldr	r3, [r3, #20]
 80017c2:	431a      	orrs	r2, r3
 80017c4:	0011      	movs	r1, r2
 80017c6:	687b      	ldr	r3, [r7, #4]
 80017c8:	699b      	ldr	r3, [r3, #24]
 80017ca:	021a      	lsls	r2, r3, #8
 80017cc:	687b      	ldr	r3, [r7, #4]
 80017ce:	681b      	ldr	r3, [r3, #0]
 80017d0:	430a      	orrs	r2, r1
 80017d2:	60da      	str	r2, [r3, #12]
 80017d4:	687b      	ldr	r3, [r7, #4]
 80017d6:	69d9      	ldr	r1, [r3, #28]
 80017d8:	687b      	ldr	r3, [r7, #4]
 80017da:	6a1a      	ldr	r2, [r3, #32]
 80017dc:	687b      	ldr	r3, [r7, #4]
 80017de:	681b      	ldr	r3, [r3, #0]
 80017e0:	430a      	orrs	r2, r1
 80017e2:	601a      	str	r2, [r3, #0]
 80017e4:	687b      	ldr	r3, [r7, #4]
 80017e6:	681b      	ldr	r3, [r3, #0]
 80017e8:	681a      	ldr	r2, [r3, #0]
 80017ea:	687b      	ldr	r3, [r7, #4]
 80017ec:	681b      	ldr	r3, [r3, #0]
 80017ee:	2101      	movs	r1, #1
 80017f0:	430a      	orrs	r2, r1
 80017f2:	601a      	str	r2, [r3, #0]
 80017f4:	687b      	ldr	r3, [r7, #4]
 80017f6:	2200      	movs	r2, #0
 80017f8:	645a      	str	r2, [r3, #68]	@ 0x44
 80017fa:	687b      	ldr	r3, [r7, #4]
 80017fc:	2241      	movs	r2, #65	@ 0x41
 80017fe:	2120      	movs	r1, #32
 8001800:	5499      	strb	r1, [r3, r2]
 8001802:	687b      	ldr	r3, [r7, #4]
 8001804:	2200      	movs	r2, #0
 8001806:	631a      	str	r2, [r3, #48]	@ 0x30
 8001808:	687b      	ldr	r3, [r7, #4]
 800180a:	2242      	movs	r2, #66	@ 0x42
 800180c:	2100      	movs	r1, #0
 800180e:	5499      	strb	r1, [r3, r2]
 8001810:	2300      	movs	r3, #0
 8001812:	0018      	movs	r0, r3
 8001814:	46bd      	mov	sp, r7
 8001816:	b002      	add	sp, #8
 8001818:	bd80      	pop	{r7, pc}
 800181a:	46c0      	nop			@ (mov r8, r8)
 800181c:	f0ffffff 	.word	0xf0ffffff
 8001820:	ffff7fff 	.word	0xffff7fff
 8001824:	fffff7ff 	.word	0xfffff7ff
 8001828:	02008000 	.word	0x02008000

0800182c <HAL_I2C_Mem_Write>:
 800182c:	b590      	push	{r4, r7, lr}
 800182e:	b089      	sub	sp, #36	@ 0x24
 8001830:	af02      	add	r7, sp, #8
 8001832:	60f8      	str	r0, [r7, #12]
 8001834:	000c      	movs	r4, r1
 8001836:	0010      	movs	r0, r2
 8001838:	0019      	movs	r1, r3
 800183a:	230a      	movs	r3, #10
 800183c:	18fb      	adds	r3, r7, r3
 800183e:	1c22      	adds	r2, r4, #0
 8001840:	801a      	strh	r2, [r3, #0]
 8001842:	2308      	movs	r3, #8
 8001844:	18fb      	adds	r3, r7, r3
 8001846:	1c02      	adds	r2, r0, #0
 8001848:	801a      	strh	r2, [r3, #0]
 800184a:	1dbb      	adds	r3, r7, #6
 800184c:	1c0a      	adds	r2, r1, #0
 800184e:	801a      	strh	r2, [r3, #0]
 8001850:	68fb      	ldr	r3, [r7, #12]
 8001852:	2241      	movs	r2, #65	@ 0x41
 8001854:	5c9b      	ldrb	r3, [r3, r2]
 8001856:	b2db      	uxtb	r3, r3
 8001858:	2b20      	cmp	r3, #32
 800185a:	d000      	beq.n	800185e <HAL_I2C_Mem_Write+0x32>
 800185c:	e10c      	b.n	8001a78 <HAL_I2C_Mem_Write+0x24c>
 800185e:	6abb      	ldr	r3, [r7, #40]	@ 0x28
 8001860:	2b00      	cmp	r3, #0
 8001862:	d004      	beq.n	800186e <HAL_I2C_Mem_Write+0x42>
 8001864:	232c      	movs	r3, #44	@ 0x2c
 8001866:	18fb      	adds	r3, r7, r3
 8001868:	881b      	ldrh	r3, [r3, #0]
 800186a:	2b00      	cmp	r3, #0
 800186c:	d105      	bne.n	800187a <HAL_I2C_Mem_Write+0x4e>
 800186e:	68fb      	ldr	r3, [r7, #12]
 8001870:	2280      	movs	r2, #128	@ 0x80
 8001872:	0092      	lsls	r2, r2, #2
 8001874:	645a      	str	r2, [r3, #68]	@ 0x44
 8001876:	2301      	movs	r3, #1
 8001878:	e0ff      	b.n	8001a7a <HAL_I2C_Mem_Write+0x24e>
 800187a:	68fb      	ldr	r3, [r7, #12]
 800187c:	2240      	movs	r2, #64	@ 0x40
 800187e:	5c9b      	ldrb	r3, [r3, r2]
 8001880:	2b01      	cmp	r3, #1
 8001882:	d101      	bne.n	8001888 <HAL_I2C_Mem_Write+0x5c>
 8001884:	2302      	movs	r3, #2
 8001886:	e0f8      	b.n	8001a7a <HAL_I2C_Mem_Write+0x24e>
 8001888:	68fb      	ldr	r3, [r7, #12]
 800188a:	2240      	movs	r2, #64	@ 0x40
 800188c:	2101      	movs	r1, #1
 800188e:	5499      	strb	r1, [r3, r2]
 8001890:	f7ff fc98 	bl	80011c4 <HAL_GetTick>
 8001894:	0003      	movs	r3, r0
 8001896:	617b      	str	r3, [r7, #20]
 8001898:	2380      	movs	r3, #128	@ 0x80
 800189a:	0219      	lsls	r1, r3, #8
 800189c:	68f8      	ldr	r0, [r7, #12]
 800189e:	697b      	ldr	r3, [r7, #20]
 80018a0:	9300      	str	r3, [sp, #0]
 80018a2:	2319      	movs	r3, #25
 80018a4:	2201      	movs	r2, #1
 80018a6:	f000 f975 	bl	8001b94 <I2C_WaitOnFlagUntilTimeout>
 80018aa:	1e03      	subs	r3, r0, #0
 80018ac:	d001      	beq.n	80018b2 <HAL_I2C_Mem_Write+0x86>
 80018ae:	2301      	movs	r3, #1
 80018b0:	e0e3      	b.n	8001a7a <HAL_I2C_Mem_Write+0x24e>
 80018b2:	68fb      	ldr	r3, [r7, #12]
 80018b4:	2241      	movs	r2, #65	@ 0x41
 80018b6:	2121      	movs	r1, #33	@ 0x21
 80018b8:	5499      	strb	r1, [r3, r2]
 80018ba:	68fb      	ldr	r3, [r7, #12]
 80018bc:	2242      	movs	r2, #66	@ 0x42
 80018be:	2140      	movs	r1, #64	@ 0x40
 80018c0:	5499      	strb	r1, [r3, r2]
 80018c2:	68fb      	ldr	r3, [r7, #12]
 80018c4:	2200      	movs	r2, #0
 80018c6:	645a      	str	r2, [r3, #68]	@ 0x44
 80018c8:	68fb      	ldr	r3, [r7, #12]
 80018ca:	6aba      	ldr	r2, [r7, #40]	@ 0x28
 80018cc:	625a      	str	r2, [r3, #36]	@ 0x24
 80018ce:	68fb      	ldr	r3, [r7, #12]
 80018d0:	222c      	movs	r2, #44	@ 0x2c
 80018d2:	18ba      	adds	r2, r7, r2
 80018d4:	8812      	ldrh	r2, [r2, #0]
 80018d6:	855a      	strh	r2, [r3, #42]	@ 0x2a
 80018d8:	68fb      	ldr	r3, [r7, #12]
 80018da:	2200      	movs	r2, #0
 80018dc:	635a      	str	r2, [r3, #52]	@ 0x34
 80018de:	1dbb      	adds	r3, r7, #6
 80018e0:	881c      	ldrh	r4, [r3, #0]
 80018e2:	2308      	movs	r3, #8
 80018e4:	18fb      	adds	r3, r7, r3
 80018e6:	881a      	ldrh	r2, [r3, #0]
 80018e8:	230a      	movs	r3, #10
 80018ea:	18fb      	adds	r3, r7, r3
 80018ec:	8819      	ldrh	r1, [r3, #0]
 80018ee:	68f8      	ldr	r0, [r7, #12]
 80018f0:	697b      	ldr	r3, [r7, #20]
 80018f2:	9301      	str	r3, [sp, #4]
 80018f4:	6b3b      	ldr	r3, [r7, #48]	@ 0x30
 80018f6:	9300      	str	r3, [sp, #0]
 80018f8:	0023      	movs	r3, r4
 80018fa:	f000 f8c5 	bl	8001a88 <I2C_RequestMemoryWrite>
 80018fe:	1e03      	subs	r3, r0, #0
 8001900:	d005      	beq.n	800190e <HAL_I2C_Mem_Write+0xe2>
 8001902:	68fb      	ldr	r3, [r7, #12]
 8001904:	2240      	movs	r2, #64	@ 0x40
 8001906:	2100      	movs	r1, #0
 8001908:	5499      	strb	r1, [r3, r2]
 800190a:	2301      	movs	r3, #1
 800190c:	e0b5      	b.n	8001a7a <HAL_I2C_Mem_Write+0x24e>
 800190e:	68fb      	ldr	r3, [r7, #12]
 8001910:	8d5b      	ldrh	r3, [r3, #42]	@ 0x2a
 8001912:	b29b      	uxth	r3, r3
 8001914:	2bff      	cmp	r3, #255	@ 0xff
 8001916:	d911      	bls.n	800193c <HAL_I2C_Mem_Write+0x110>
 8001918:	68fb      	ldr	r3, [r7, #12]
 800191a:	22ff      	movs	r2, #255	@ 0xff
 800191c:	851a      	strh	r2, [r3, #40]	@ 0x28
 800191e:	68fb      	ldr	r3, [r7, #12]
 8001920:	8d1b      	ldrh	r3, [r3, #40]	@ 0x28
 8001922:	b2da      	uxtb	r2, r3
 8001924:	2380      	movs	r3, #128	@ 0x80
 8001926:	045c      	lsls	r4, r3, #17
 8001928:	230a      	movs	r3, #10
 800192a:	18fb      	adds	r3, r7, r3
 800192c:	8819      	ldrh	r1, [r3, #0]
 800192e:	68f8      	ldr	r0, [r7, #12]
 8001930:	2300      	movs	r3, #0
 8001932:	9300      	str	r3, [sp, #0]
 8001934:	0023      	movs	r3, r4
 8001936:	f000 fb07 	bl	8001f48 <I2C_TransferConfig>
 800193a:	e012      	b.n	8001962 <HAL_I2C_Mem_Write+0x136>
 800193c:	68fb      	ldr	r3, [r7, #12]
 800193e:	8d5b      	ldrh	r3, [r3, #42]	@ 0x2a
 8001940:	b29a      	uxth	r2, r3
 8001942:	68fb      	ldr	r3, [r7, #12]
 8001944:	851a      	strh	r2, [r3, #40]	@ 0x28
 8001946:	68fb      	ldr	r3, [r7, #12]
 8001948:	8d1b      	ldrh	r3, [r3, #40]	@ 0x28
 800194a:	b2da      	uxtb	r2, r3
 800194c:	2380      	movs	r3, #128	@ 0x80
 800194e:	049c      	lsls	r4, r3, #18
 8001950:	230a      	movs	r3, #10
 8001952:	18fb      	adds	r3, r7, r3
 8001954:	8819      	ldrh	r1, [r3, #0]
 8001956:	68f8      	ldr	r0, [r7, #12]
 8001958:	2300      	movs	r3, #0
 800195a:	9300      	str	r3, [sp, #0]
 800195c:	0023      	movs	r3, r4
 800195e:	f000 faf3 	bl	8001f48 <I2C_TransferConfig>
 8001962:	697a      	ldr	r2, [r7, #20]
 8001964:	6b39      	ldr	r1, [r7, #48]	@ 0x30
 8001966:	68fb      	ldr	r3, [r7, #12]
 8001968:	0018      	movs	r0, r3
 800196a:	f000 f96b 	bl	8001c44 <I2C_WaitOnTXISFlagUntilTimeout>
 800196e:	1e03      	subs	r3, r0, #0
 8001970:	d001      	beq.n	8001976 <HAL_I2C_Mem_Write+0x14a>
 8001972:	2301      	movs	r3, #1
 8001974:	e081      	b.n	8001a7a <HAL_I2C_Mem_Write+0x24e>
 8001976:	68fb      	ldr	r3, [r7, #12]
 8001978:	6a5b      	ldr	r3, [r3, #36]	@ 0x24
 800197a:	781a      	ldrb	r2, [r3, #0]
 800197c:	68fb      	ldr	r3, [r7, #12]
 800197e:	681b      	ldr	r3, [r3, #0]
 8001980:	629a      	str	r2, [r3, #40]	@ 0x28
 8001982:	68fb      	ldr	r3, [r7, #12]
 8001984:	6a5b      	ldr	r3, [r3, #36]	@ 0x24
 8001986:	1c5a      	adds	r2, r3, #1
 8001988:	68fb      	ldr	r3, [r7, #12]
 800198a:	625a      	str	r2, [r3, #36]	@ 0x24
 800198c:	68fb      	ldr	r3, [r7, #12]
 800198e:	8d5b      	ldrh	r3, [r3, #42]	@ 0x2a
 8001990:	b29b      	uxth	r3, r3
 8001992:	3b01      	subs	r3, #1
 8001994:	b29a      	uxth	r2, r3
 8001996:	68fb      	ldr	r3, [r7, #12]
 8001998:	855a      	strh	r2, [r3, #42]	@ 0x2a
 800199a:	68fb      	ldr	r3, [r7, #12]
 800199c:	8d1b      	ldrh	r3, [r3, #40]	@ 0x28
 800199e:	3b01      	subs	r3, #1
 80019a0:	b29a      	uxth	r2, r3
 80019a2:	68fb      	ldr	r3, [r7, #12]
 80019a4:	851a      	strh	r2, [r3, #40]	@ 0x28
 80019a6:	68fb      	ldr	r3, [r7, #12]
 80019a8:	8d5b      	ldrh	r3, [r3, #42]	@ 0x2a
 80019aa:	b29b      	uxth	r3, r3
 80019ac:	2b00      	cmp	r3, #0
 80019ae:	d03a      	beq.n	8001a26 <HAL_I2C_Mem_Write+0x1fa>
 80019b0:	68fb      	ldr	r3, [r7, #12]
 80019b2:	8d1b      	ldrh	r3, [r3, #40]	@ 0x28
 80019b4:	2b00      	cmp	r3, #0
 80019b6:	d136      	bne.n	8001a26 <HAL_I2C_Mem_Write+0x1fa>
 80019b8:	6b3a      	ldr	r2, [r7, #48]	@ 0x30
 80019ba:	68f8      	ldr	r0, [r7, #12]
 80019bc:	697b      	ldr	r3, [r7, #20]
 80019be:	9300      	str	r3, [sp, #0]
 80019c0:	0013      	movs	r3, r2
 80019c2:	2200      	movs	r2, #0
 80019c4:	2180      	movs	r1, #128	@ 0x80
 80019c6:	f000 f8e5 	bl	8001b94 <I2C_WaitOnFlagUntilTimeout>
 80019ca:	1e03      	subs	r3, r0, #0
 80019cc:	d001      	beq.n	80019d2 <HAL_I2C_Mem_Write+0x1a6>
 80019ce:	2301      	movs	r3, #1
 80019d0:	e053      	b.n	8001a7a <HAL_I2C_Mem_Write+0x24e>
 80019d2:	68fb      	ldr	r3, [r7, #12]
 80019d4:	8d5b      	ldrh	r3, [r3, #42]	@ 0x2a
 80019d6:	b29b      	uxth	r3, r3
 80019d8:	2bff      	cmp	r3, #255	@ 0xff
 80019da:	d911      	bls.n	8001a00 <HAL_I2C_Mem_Write+0x1d4>
 80019dc:	68fb      	ldr	r3, [r7, #12]
 80019de:	22ff      	movs	r2, #255	@ 0xff
 80019e0:	851a      	strh	r2, [r3, #40]	@ 0x28
 80019e2:	68fb      	ldr	r3, [r7, #12]
 80019e4:	8d1b      	ldrh	r3, [r3, #40]	@ 0x28
 80019e6:	b2da      	uxtb	r2, r3
 80019e8:	2380      	movs	r3, #128	@ 0x80
 80019ea:	045c      	lsls	r4, r3, #17
 80019ec:	230a      	movs	r3, #10
 80019ee:	18fb      	adds	r3, r7, r3
 80019f0:	8819      	ldrh	r1, [r3, #0]
 80019f2:	68f8      	ldr	r0, [r7, #12]
 80019f4:	2300      	movs	r3, #0
 80019f6:	9300      	str	r3, [sp, #0]
 80019f8:	0023      	movs	r3, r4
 80019fa:	f000 faa5 	bl	8001f48 <I2C_TransferConfig>
 80019fe:	e012      	b.n	8001a26 <HAL_I2C_Mem_Write+0x1fa>
 8001a00:	68fb      	ldr	r3, [r7, #12]
 8001a02:	8d5b      	ldrh	r3, [r3, #42]	@ 0x2a
 8001a04:	b29a      	uxth	r2, r3
 8001a06:	68fb      	ldr	r3, [r7, #12]
 8001a08:	851a      	strh	r2, [r3, #40]	@ 0x28
 8001a0a:	68fb      	ldr	r3, [r7, #12]
 8001a0c:	8d1b      	ldrh	r3, [r3, #40]	@ 0x28
 8001a0e:	b2da      	uxtb	r2, r3
 8001a10:	2380      	movs	r3, #128	@ 0x80
 8001a12:	049c      	lsls	r4, r3, #18
 8001a14:	230a      	movs	r3, #10
 8001a16:	18fb      	adds	r3, r7, r3
 8001a18:	8819      	ldrh	r1, [r3, #0]
 8001a1a:	68f8      	ldr	r0, [r7, #12]
 8001a1c:	2300      	movs	r3, #0
 8001a1e:	9300      	str	r3, [sp, #0]
 8001a20:	0023      	movs	r3, r4
 8001a22:	f000 fa91 	bl	8001f48 <I2C_TransferConfig>
 8001a26:	68fb      	ldr	r3, [r7, #12]
 8001a28:	8d5b      	ldrh	r3, [r3, #42]	@ 0x2a
 8001a2a:	b29b      	uxth	r3, r3
 8001a2c:	2b00      	cmp	r3, #0
 8001a2e:	d198      	bne.n	8001962 <HAL_I2C_Mem_Write+0x136>
 8001a30:	697a      	ldr	r2, [r7, #20]
 8001a32:	6b39      	ldr	r1, [r7, #48]	@ 0x30
 8001a34:	68fb      	ldr	r3, [r7, #12]
 8001a36:	0018      	movs	r0, r3
 8001a38:	f000 f94a 	bl	8001cd0 <I2C_WaitOnSTOPFlagUntilTimeout>
 8001a3c:	1e03      	subs	r3, r0, #0
 8001a3e:	d001      	beq.n	8001a44 <HAL_I2C_Mem_Write+0x218>
 8001a40:	2301      	movs	r3, #1
 8001a42:	e01a      	b.n	8001a7a <HAL_I2C_Mem_Write+0x24e>
 8001a44:	68fb      	ldr	r3, [r7, #12]
 8001a46:	681b      	ldr	r3, [r3, #0]
 8001a48:	2220      	movs	r2, #32
 8001a4a:	61da      	str	r2, [r3, #28]
 8001a4c:	68fb      	ldr	r3, [r7, #12]
 8001a4e:	681b      	ldr	r3, [r3, #0]
 8001a50:	685a      	ldr	r2, [r3, #4]
 8001a52:	68fb      	ldr	r3, [r7, #12]
 8001a54:	681b      	ldr	r3, [r3, #0]
 8001a56:	490b      	ldr	r1, [pc, #44]	@ (8001a84 <HAL_I2C_Mem_Write+0x258>)
 8001a58:	400a      	ands	r2, r1
 8001a5a:	605a      	str	r2, [r3, #4]
 8001a5c:	68fb      	ldr	r3, [r7, #12]
 8001a5e:	2241      	movs	r2, #65	@ 0x41
 8001a60:	2120      	movs	r1, #32
 8001a62:	5499      	strb	r1, [r3, r2]
 8001a64:	68fb      	ldr	r3, [r7, #12]
 8001a66:	2242      	movs	r2, #66	@ 0x42
 8001a68:	2100      	movs	r1, #0
 8001a6a:	5499      	strb	r1, [r3, r2]
 8001a6c:	68fb      	ldr	r3, [r7, #12]
 8001a6e:	2240      	movs	r2, #64	@ 0x40
 8001a70:	2100      	movs	r1, #0
 8001a72:	5499      	strb	r1, [r3, r2]
 8001a74:	2300      	movs	r3, #0
 8001a76:	e000      	b.n	8001a7a <HAL_I2C_Mem_Write+0x24e>
 8001a78:	2302      	movs	r3, #2
 8001a7a:	0018      	movs	r0, r3
 8001a7c:	46bd      	mov	sp, r7
 8001a7e:	b007      	add	sp, #28
 8001a80:	bd90      	pop	{r4, r7, pc}
 8001a82:	46c0      	nop			@ (mov r8, r8)
 8001a84:	fe00e800 	.word	0xfe00e800

08001a88 <I2C_RequestMemoryWrite>:
 8001a88:	b5b0      	push	{r4, r5, r7, lr}
 8001a8a:	b086      	sub	sp, #24
 8001a8c:	af02      	add	r7, sp, #8
 8001a8e:	60f8      	str	r0, [r7, #12]
 8001a90:	000c      	movs	r4, r1
 8001a92:	0010      	movs	r0, r2
 8001a94:	0019      	movs	r1, r3
 8001a96:	250a      	movs	r5, #10
 8001a98:	197b      	adds	r3, r7, r5
 8001a9a:	1c22      	adds	r2, r4, #0
 8001a9c:	801a      	strh	r2, [r3, #0]
 8001a9e:	2308      	movs	r3, #8
 8001aa0:	18fb      	adds	r3, r7, r3
 8001aa2:	1c02      	adds	r2, r0, #0
 8001aa4:	801a      	strh	r2, [r3, #0]
 8001aa6:	1dbb      	adds	r3, r7, #6
 8001aa8:	1c0a      	adds	r2, r1, #0
 8001aaa:	801a      	strh	r2, [r3, #0]
 8001aac:	1dbb      	adds	r3, r7, #6
 8001aae:	881b      	ldrh	r3, [r3, #0]
 8001ab0:	b2da      	uxtb	r2, r3
 8001ab2:	2380      	movs	r3, #128	@ 0x80
 8001ab4:	045c      	lsls	r4, r3, #17
 8001ab6:	197b      	adds	r3, r7, r5
 8001ab8:	8819      	ldrh	r1, [r3, #0]
 8001aba:	68f8      	ldr	r0, [r7, #12]
 8001abc:	4b23      	ldr	r3, [pc, #140]	@ (8001b4c <I2C_RequestMemoryWrite+0xc4>)
 8001abe:	9300      	str	r3, [sp, #0]
 8001ac0:	0023      	movs	r3, r4
 8001ac2:	f000 fa41 	bl	8001f48 <I2C_TransferConfig>
 8001ac6:	6a7a      	ldr	r2, [r7, #36]	@ 0x24
 8001ac8:	6a39      	ldr	r1, [r7, #32]
 8001aca:	68fb      	ldr	r3, [r7, #12]
 8001acc:	0018      	movs	r0, r3
 8001ace:	f000 f8b9 	bl	8001c44 <I2C_WaitOnTXISFlagUntilTimeout>
 8001ad2:	1e03      	subs	r3, r0, #0
 8001ad4:	d001      	beq.n	8001ada <I2C_RequestMemoryWrite+0x52>
 8001ad6:	2301      	movs	r3, #1
 8001ad8:	e033      	b.n	8001b42 <I2C_RequestMemoryWrite+0xba>
 8001ada:	1dbb      	adds	r3, r7, #6
 8001adc:	881b      	ldrh	r3, [r3, #0]
 8001ade:	2b01      	cmp	r3, #1
 8001ae0:	d107      	bne.n	8001af2 <I2C_RequestMemoryWrite+0x6a>
 8001ae2:	2308      	movs	r3, #8
 8001ae4:	18fb      	adds	r3, r7, r3
 8001ae6:	881b      	ldrh	r3, [r3, #0]
 8001ae8:	b2da      	uxtb	r2, r3
 8001aea:	68fb      	ldr	r3, [r7, #12]
 8001aec:	681b      	ldr	r3, [r3, #0]
 8001aee:	629a      	str	r2, [r3, #40]	@ 0x28
 8001af0:	e019      	b.n	8001b26 <I2C_RequestMemoryWrite+0x9e>
 8001af2:	2308      	movs	r3, #8
 8001af4:	18fb      	adds	r3, r7, r3
 8001af6:	881b      	ldrh	r3, [r3, #0]
 8001af8:	0a1b      	lsrs	r3, r3, #8
 8001afa:	b29b      	uxth	r3, r3
 8001afc:	b2da      	uxtb	r2, r3
 8001afe:	68fb      	ldr	r3, [r7, #12]
 8001b00:	681b      	ldr	r3, [r3, #0]
 8001b02:	629a      	str	r2, [r3, #40]	@ 0x28
 8001b04:	6a7a      	ldr	r2, [r7, #36]	@ 0x24
 8001b06:	6a39      	ldr	r1, [r7, #32]
 8001b08:	68fb      	ldr	r3, [r7, #12]
 8001b0a:	0018      	movs	r0, r3
 8001b0c:	f000 f89a 	bl	8001c44 <I2C_WaitOnTXISFlagUntilTimeout>
 8001b10:	1e03      	subs	r3, r0, #0
 8001b12:	d001      	beq.n	8001b18 <I2C_RequestMemoryWrite+0x90>
 8001b14:	2301      	movs	r3, #1
 8001b16:	e014      	b.n	8001b42 <I2C_RequestMemoryWrite+0xba>
 8001b18:	2308      	movs	r3, #8
 8001b1a:	18fb      	adds	r3, r7, r3
 8001b1c:	881b      	ldrh	r3, [r3, #0]
 8001b1e:	b2da      	uxtb	r2, r3
 8001b20:	68fb      	ldr	r3, [r7, #12]
 8001b22:	681b      	ldr	r3, [r3, #0]
 8001b24:	629a      	str	r2, [r3, #40]	@ 0x28
 8001b26:	6a3a      	ldr	r2, [r7, #32]
 8001b28:	68f8      	ldr	r0, [r7, #12]
 8001b2a:	6a7b      	ldr	r3, [r7, #36]	@ 0x24
 8001b2c:	9300      	str	r3, [sp, #0]
 8001b2e:	0013      	movs	r3, r2
 8001b30:	2200      	movs	r2, #0
 8001b32:	2180      	movs	r1, #128	@ 0x80
 8001b34:	f000 f82e 	bl	8001b94 <I2C_WaitOnFlagUntilTimeout>
 8001b38:	1e03      	subs	r3, r0, #0
 8001b3a:	d001      	beq.n	8001b40 <I2C_RequestMemoryWrite+0xb8>
 8001b3c:	2301      	movs	r3, #1
 8001b3e:	e000      	b.n	8001b42 <I2C_RequestMemoryWrite+0xba>
 8001b40:	2300      	movs	r3, #0
 8001b42:	0018      	movs	r0, r3
 8001b44:	46bd      	mov	sp, r7
 8001b46:	b004      	add	sp, #16
 8001b48:	bdb0      	pop	{r4, r5, r7, pc}
 8001b4a:	46c0      	nop			@ (mov r8, r8)
 8001b4c:	80002000 	.word	0x80002000

08001b50 <I2C_Flush_TXDR>:
 8001b50:	b580      	push	{r7, lr}
 8001b52:	b082      	sub	sp, #8
 8001b54:	af00      	add	r7, sp, #0
 8001b56:	6078      	str	r0, [r7, #4]
 8001b58:	687b      	ldr	r3, [r7, #4]
 8001b5a:	681b      	ldr	r3, [r3, #0]
 8001b5c:	699b      	ldr	r3, [r3, #24]
 8001b5e:	2202      	movs	r2, #2
 8001b60:	4013      	ands	r3, r2
 8001b62:	2b02      	cmp	r3, #2
 8001b64:	d103      	bne.n	8001b6e <I2C_Flush_TXDR+0x1e>
 8001b66:	687b      	ldr	r3, [r7, #4]
 8001b68:	681b      	ldr	r3, [r3, #0]
 8001b6a:	2200      	movs	r2, #0
 8001b6c:	629a      	str	r2, [r3, #40]	@ 0x28
 8001b6e:	687b      	ldr	r3, [r7, #4]
 8001b70:	681b      	ldr	r3, [r3, #0]
 8001b72:	699b      	ldr	r3, [r3, #24]
 8001b74:	2201      	movs	r2, #1
 8001b76:	4013      	ands	r3, r2
 8001b78:	2b01      	cmp	r3, #1
 8001b7a:	d007      	beq.n	8001b8c <I2C_Flush_TXDR+0x3c>
 8001b7c:	687b      	ldr	r3, [r7, #4]
 8001b7e:	681b      	ldr	r3, [r3, #0]
 8001b80:	699a      	ldr	r2, [r3, #24]
 8001b82:	687b      	ldr	r3, [r7, #4]
 8001b84:	681b      	ldr	r3, [r3, #0]
 8001b86:	2101      	movs	r1, #1
 8001b88:	430a      	orrs	r2, r1
 8001b8a:	619a      	str	r2, [r3, #24]
 8001b8c:	46c0      	nop			@ (mov r8, r8)
 8001b8e:	46bd      	mov	sp, r7
 8001b90:	b002      	add	sp, #8
 8001b92:	bd80      	pop	{r7, pc}

08001b94 <I2C_WaitOnFlagUntilTimeout>:
 8001b94:	b580      	push	{r7, lr}
 8001b96:	b084      	sub	sp, #16
 8001b98:	af00      	add	r7, sp, #0
 8001b9a:	60f8      	str	r0, [r7, #12]
 8001b9c:	60b9      	str	r1, [r7, #8]
 8001b9e:	603b      	str	r3, [r7, #0]
 8001ba0:	1dfb      	adds	r3, r7, #7
 8001ba2:	701a      	strb	r2, [r3, #0]
 8001ba4:	e03a      	b.n	8001c1c <I2C_WaitOnFlagUntilTimeout+0x88>
 8001ba6:	69ba      	ldr	r2, [r7, #24]
 8001ba8:	6839      	ldr	r1, [r7, #0]
 8001baa:	68fb      	ldr	r3, [r7, #12]
 8001bac:	0018      	movs	r0, r3
 8001bae:	f000 f8d3 	bl	8001d58 <I2C_IsErrorOccurred>
 8001bb2:	1e03      	subs	r3, r0, #0
 8001bb4:	d001      	beq.n	8001bba <I2C_WaitOnFlagUntilTimeout+0x26>
 8001bb6:	2301      	movs	r3, #1
 8001bb8:	e040      	b.n	8001c3c <I2C_WaitOnFlagUntilTimeout+0xa8>
 8001bba:	683b      	ldr	r3, [r7, #0]
 8001bbc:	3301      	adds	r3, #1
 8001bbe:	d02d      	beq.n	8001c1c <I2C_WaitOnFlagUntilTimeout+0x88>
 8001bc0:	f7ff fb00 	bl	80011c4 <HAL_GetTick>
 8001bc4:	0002      	movs	r2, r0
 8001bc6:	69bb      	ldr	r3, [r7, #24]
 8001bc8:	1ad3      	subs	r3, r2, r3
 8001bca:	683a      	ldr	r2, [r7, #0]
 8001bcc:	429a      	cmp	r2, r3
 8001bce:	d302      	bcc.n	8001bd6 <I2C_WaitOnFlagUntilTimeout+0x42>
 8001bd0:	683b      	ldr	r3, [r7, #0]
 8001bd2:	2b00      	cmp	r3, #0
 8001bd4:	d122      	bne.n	8001c1c <I2C_WaitOnFlagUntilTimeout+0x88>
 8001bd6:	68fb      	ldr	r3, [r7, #12]
 8001bd8:	681b      	ldr	r3, [r3, #0]
 8001bda:	699b      	ldr	r3, [r3, #24]
 8001bdc:	68ba      	ldr	r2, [r7, #8]
 8001bde:	4013      	ands	r3, r2
 8001be0:	68ba      	ldr	r2, [r7, #8]
 8001be2:	1ad3      	subs	r3, r2, r3
 8001be4:	425a      	negs	r2, r3
 8001be6:	4153      	adcs	r3, r2
 8001be8:	b2db      	uxtb	r3, r3
 8001bea:	001a      	movs	r2, r3
 8001bec:	1dfb      	adds	r3, r7, #7
 8001bee:	781b      	ldrb	r3, [r3, #0]
 8001bf0:	429a      	cmp	r2, r3
 8001bf2:	d113      	bne.n	8001c1c <I2C_WaitOnFlagUntilTimeout+0x88>
 8001bf4:	68fb      	ldr	r3, [r7, #12]
 8001bf6:	6c5b      	ldr	r3, [r3, #68]	@ 0x44
 8001bf8:	2220      	movs	r2, #32
 8001bfa:	431a      	orrs	r2, r3
 8001bfc:	68fb      	ldr	r3, [r7, #12]
 8001bfe:	645a      	str	r2, [r3, #68]	@ 0x44
 8001c00:	68fb      	ldr	r3, [r7, #12]
 8001c02:	2241      	movs	r2, #65	@ 0x41
 8001c04:	2120      	movs	r1, #32
 8001c06:	5499      	strb	r1, [r3, r2]
 8001c08:	68fb      	ldr	r3, [r7, #12]
 8001c0a:	2242      	movs	r2, #66	@ 0x42
 8001c0c:	2100      	movs	r1, #0
 8001c0e:	5499      	strb	r1, [r3, r2]
 8001c10:	68fb      	ldr	r3, [r7, #12]
 8001c12:	2240      	movs	r2, #64	@ 0x40
 8001c14:	2100      	movs	r1, #0
 8001c16:	5499      	strb	r1, [r3, r2]
 8001c18:	2301      	movs	r3, #1
 8001c1a:	e00f      	b.n	8001c3c <I2C_WaitOnFlagUntilTimeout+0xa8>
 8001c1c:	68fb      	ldr	r3, [r7, #12]
 8001c1e:	681b      	ldr	r3, [r3, #0]
 8001c20:	699b      	ldr	r3, [r3, #24]
 8001c22:	68ba      	ldr	r2, [r7, #8]
 8001c24:	4013      	ands	r3, r2
 8001c26:	68ba      	ldr	r2, [r7, #8]
 8001c28:	1ad3      	subs	r3, r2, r3
 8001c2a:	425a      	negs	r2, r3
 8001c2c:	4153      	adcs	r3, r2
 8001c2e:	b2db      	uxtb	r3, r3
 8001c30:	001a      	movs	r2, r3
 8001c32:	1dfb      	adds	r3, r7, #7
 8001c34:	781b      	ldrb	r3, [r3, #0]
 8001c36:	429a      	cmp	r2, r3
 8001c38:	d0b5      	beq.n	8001ba6 <I2C_WaitOnFlagUntilTimeout+0x12>
 8001c3a:	2300      	movs	r3, #0
 8001c3c:	0018      	movs	r0, r3
 8001c3e:	46bd      	mov	sp, r7
 8001c40:	b004      	add	sp, #16
 8001c42:	bd80      	pop	{r7, pc}

08001c44 <I2C_WaitOnTXISFlagUntilTimeout>:
 8001c44:	b580      	push	{r7, lr}
 8001c46:	b084      	sub	sp, #16
 8001c48:	af00      	add	r7, sp, #0
 8001c4a:	60f8      	str	r0, [r7, #12]
 8001c4c:	60b9      	str	r1, [r7, #8]
 8001c4e:	607a      	str	r2, [r7, #4]
 8001c50:	e032      	b.n	8001cb8 <I2C_WaitOnTXISFlagUntilTimeout+0x74>
 8001c52:	687a      	ldr	r2, [r7, #4]
 8001c54:	68b9      	ldr	r1, [r7, #8]
 8001c56:	68fb      	ldr	r3, [r7, #12]
 8001c58:	0018      	movs	r0, r3
 8001c5a:	f000 f87d 	bl	8001d58 <I2C_IsErrorOccurred>
 8001c5e:	1e03      	subs	r3, r0, #0
 8001c60:	d001      	beq.n	8001c66 <I2C_WaitOnTXISFlagUntilTimeout+0x22>
 8001c62:	2301      	movs	r3, #1
 8001c64:	e030      	b.n	8001cc8 <I2C_WaitOnTXISFlagUntilTimeout+0x84>
 8001c66:	68bb      	ldr	r3, [r7, #8]
 8001c68:	3301      	adds	r3, #1
 8001c6a:	d025      	beq.n	8001cb8 <I2C_WaitOnTXISFlagUntilTimeout+0x74>
 8001c6c:	f7ff faaa 	bl	80011c4 <HAL_GetTick>
 8001c70:	0002      	movs	r2, r0
 8001c72:	687b      	ldr	r3, [r7, #4]
 8001c74:	1ad3      	subs	r3, r2, r3
 8001c76:	68ba      	ldr	r2, [r7, #8]
 8001c78:	429a      	cmp	r2, r3
 8001c7a:	d302      	bcc.n	8001c82 <I2C_WaitOnTXISFlagUntilTimeout+0x3e>
 8001c7c:	68bb      	ldr	r3, [r7, #8]
 8001c7e:	2b00      	cmp	r3, #0
 8001c80:	d11a      	bne.n	8001cb8 <I2C_WaitOnTXISFlagUntilTimeout+0x74>
 8001c82:	68fb      	ldr	r3, [r7, #12]
 8001c84:	681b      	ldr	r3, [r3, #0]
 8001c86:	699b      	ldr	r3, [r3, #24]
 8001c88:	2202      	movs	r2, #2
 8001c8a:	4013      	ands	r3, r2
 8001c8c:	2b02      	cmp	r3, #2
 8001c8e:	d013      	beq.n	8001cb8 <I2C_WaitOnTXISFlagUntilTimeout+0x74>
 8001c90:	68fb      	ldr	r3, [r7, #12]
 8001c92:	6c5b      	ldr	r3, [r3, #68]	@ 0x44
 8001c94:	2220      	movs	r2, #32
 8001c96:	431a      	orrs	r2, r3
 8001c98:	68fb      	ldr	r3, [r7, #12]
 8001c9a:	645a      	str	r2, [r3, #68]	@ 0x44
 8001c9c:	68fb      	ldr	r3, [r7, #12]
 8001c9e:	2241      	movs	r2, #65	@ 0x41
 8001ca0:	2120      	movs	r1, #32
 8001ca2:	5499      	strb	r1, [r3, r2]
 8001ca4:	68fb      	ldr	r3, [r7, #12]
 8001ca6:	2242      	movs	r2, #66	@ 0x42
 8001ca8:	2100      	movs	r1, #0
 8001caa:	5499      	strb	r1, [r3, r2]
 8001cac:	68fb      	ldr	r3, [r7, #12]
 8001cae:	2240      	movs	r2, #64	@ 0x40
 8001cb0:	2100      	movs	r1, #0
 8001cb2:	5499      	strb	r1, [r3, r2]
 8001cb4:	2301      	movs	r3, #1
 8001cb6:	e007      	b.n	8001cc8 <I2C_WaitOnTXISFlagUntilTimeout+0x84>
 8001cb8:	68fb      	ldr	r3, [r7, #12]
 8001cba:	681b      	ldr	r3, [r3, #0]
 8001cbc:	699b      	ldr	r3, [r3, #24]
 8001cbe:	2202      	movs	r2, #2
 8001cc0:	4013      	ands	r3, r2
 8001cc2:	2b02      	cmp	r3, #2
 8001cc4:	d1c5      	bne.n	8001c52 <I2C_WaitOnTXISFlagUntilTimeout+0xe>
 8001cc6:	2300      	movs	r3, #0
 8001cc8:	0018      	movs	r0, r3
 8001cca:	46bd      	mov	sp, r7
 8001ccc:	b004      	add	sp, #16
 8001cce:	bd80      	pop	{r7, pc}

08001cd0 <I2C_WaitOnSTOPFlagUntilTimeout>:
 8001cd0:	b580      	push	{r7, lr}
 8001cd2:	b084      	sub	sp, #16
 8001cd4:	af00      	add	r7, sp, #0
 8001cd6:	60f8      	str	r0, [r7, #12]
 8001cd8:	60b9      	str	r1, [r7, #8]
 8001cda:	607a      	str	r2, [r7, #4]
 8001cdc:	e02f      	b.n	8001d3e <I2C_WaitOnSTOPFlagUntilTimeout+0x6e>
 8001cde:	687a      	ldr	r2, [r7, #4]
 8001ce0:	68b9      	ldr	r1, [r7, #8]
 8001ce2:	68fb      	ldr	r3, [r7, #12]
 8001ce4:	0018      	movs	r0, r3
 8001ce6:	f000 f837 	bl	8001d58 <I2C_IsErrorOccurred>
 8001cea:	1e03      	subs	r3, r0, #0
 8001cec:	d001      	beq.n	8001cf2 <I2C_WaitOnSTOPFlagUntilTimeout+0x22>
 8001cee:	2301      	movs	r3, #1
 8001cf0:	e02d      	b.n	8001d4e <I2C_WaitOnSTOPFlagUntilTimeout+0x7e>
 8001cf2:	f7ff fa67 	bl	80011c4 <HAL_GetTick>
 8001cf6:	0002      	movs	r2, r0
 8001cf8:	687b      	ldr	r3, [r7, #4]
 8001cfa:	1ad3      	subs	r3, r2, r3
 8001cfc:	68ba      	ldr	r2, [r7, #8]
 8001cfe:	429a      	cmp	r2, r3
 8001d00:	d302      	bcc.n	8001d08 <I2C_WaitOnSTOPFlagUntilTimeout+0x38>
 8001d02:	68bb      	ldr	r3, [r7, #8]
 8001d04:	2b00      	cmp	r3, #0
 8001d06:	d11a      	bne.n	8001d3e <I2C_WaitOnSTOPFlagUntilTimeout+0x6e>
 8001d08:	68fb      	ldr	r3, [r7, #12]
 8001d0a:	681b      	ldr	r3, [r3, #0]
 8001d0c:	699b      	ldr	r3, [r3, #24]
 8001d0e:	2220      	movs	r2, #32
 8001d10:	4013      	ands	r3, r2
 8001d12:	2b20      	cmp	r3, #32
 8001d14:	d013      	beq.n	8001d3e <I2C_WaitOnSTOPFlagUntilTimeout+0x6e>
 8001d16:	68fb      	ldr	r3, [r7, #12]
 8001d18:	6c5b      	ldr	r3, [r3, #68]	@ 0x44
 8001d1a:	2220      	movs	r2, #32
 8001d1c:	431a      	orrs	r2, r3
 8001d1e:	68fb      	ldr	r3, [r7, #12]
 8001d20:	645a      	str	r2, [r3, #68]	@ 0x44
 8001d22:	68fb      	ldr	r3, [r7, #12]
 8001d24:	2241      	movs	r2, #65	@ 0x41
 8001d26:	2120      	movs	r1, #32
 8001d28:	5499      	strb	r1, [r3, r2]
 8001d2a:	68fb      	ldr	r3, [r7, #12]
 8001d2c:	2242      	movs	r2, #66	@ 0x42
 8001d2e:	2100      	movs	r1, #0
 8001d30:	5499      	strb	r1, [r3, r2]
 8001d32:	68fb      	ldr	r3, [r7, #12]
 8001d34:	2240      	movs	r2, #64	@ 0x40
 8001d36:	2100      	movs	r1, #0
 8001d38:	5499      	strb	r1, [r3, r2]
 8001d3a:	2301      	movs	r3, #1
 8001d3c:	e007      	b.n	8001d4e <I2C_WaitOnSTOPFlagUntilTimeout+0x7e>
 8001d3e:	68fb      	ldr	r3, [r7, #12]
 8001d40:	681b      	ldr	r3, [r3, #0]
 8001d42:	699b      	ldr	r3, [r3, #24]
 8001d44:	2220      	movs	r2, #32
 8001d46:	4013      	ands	r3, r2
 8001d48:	2b20      	cmp	r3, #32
 8001d4a:	d1c8      	bne.n	8001cde <I2C_WaitOnSTOPFlagUntilTimeout+0xe>
 8001d4c:	2300      	movs	r3, #0
 8001d4e:	0018      	movs	r0, r3
 8001d50:	46bd      	mov	sp, r7
 8001d52:	b004      	add	sp, #16
 8001d54:	bd80      	pop	{r7, pc}
	...

08001d58 <I2C_IsErrorOccurred>:
 8001d58:	b580      	push	{r7, lr}
 8001d5a:	b08a      	sub	sp, #40	@ 0x28
 8001d5c:	af00      	add	r7, sp, #0
 8001d5e:	60f8      	str	r0, [r7, #12]
 8001d60:	60b9      	str	r1, [r7, #8]
 8001d62:	607a      	str	r2, [r7, #4]
 8001d64:	2327      	movs	r3, #39	@ 0x27
 8001d66:	18fb      	adds	r3, r7, r3
 8001d68:	2200      	movs	r2, #0
 8001d6a:	701a      	strb	r2, [r3, #0]
 8001d6c:	68fb      	ldr	r3, [r7, #12]
 8001d6e:	681b      	ldr	r3, [r3, #0]
 8001d70:	699b      	ldr	r3, [r3, #24]
 8001d72:	61bb      	str	r3, [r7, #24]
 8001d74:	2300      	movs	r3, #0
 8001d76:	623b      	str	r3, [r7, #32]
 8001d78:	687b      	ldr	r3, [r7, #4]
 8001d7a:	61fb      	str	r3, [r7, #28]
 8001d7c:	69bb      	ldr	r3, [r7, #24]
 8001d7e:	2210      	movs	r2, #16
 8001d80:	4013      	ands	r3, r2
 8001d82:	d100      	bne.n	8001d86 <I2C_IsErrorOccurred+0x2e>
 8001d84:	e079      	b.n	8001e7a <I2C_IsErrorOccurred+0x122>
 8001d86:	68fb      	ldr	r3, [r7, #12]
 8001d88:	681b      	ldr	r3, [r3, #0]
 8001d8a:	2210      	movs	r2, #16
 8001d8c:	61da      	str	r2, [r3, #28]
 8001d8e:	e057      	b.n	8001e40 <I2C_IsErrorOccurred+0xe8>
 8001d90:	2227      	movs	r2, #39	@ 0x27
 8001d92:	18bb      	adds	r3, r7, r2
 8001d94:	18ba      	adds	r2, r7, r2
 8001d96:	7812      	ldrb	r2, [r2, #0]
 8001d98:	701a      	strb	r2, [r3, #0]
 8001d9a:	68bb      	ldr	r3, [r7, #8]
 8001d9c:	3301      	adds	r3, #1
 8001d9e:	d04f      	beq.n	8001e40 <I2C_IsErrorOccurred+0xe8>
 8001da0:	f7ff fa10 	bl	80011c4 <HAL_GetTick>
 8001da4:	0002      	movs	r2, r0
 8001da6:	69fb      	ldr	r3, [r7, #28]
 8001da8:	1ad3      	subs	r3, r2, r3
 8001daa:	68ba      	ldr	r2, [r7, #8]
 8001dac:	429a      	cmp	r2, r3
 8001dae:	d302      	bcc.n	8001db6 <I2C_IsErrorOccurred+0x5e>
 8001db0:	68bb      	ldr	r3, [r7, #8]
 8001db2:	2b00      	cmp	r3, #0
 8001db4:	d144      	bne.n	8001e40 <I2C_IsErrorOccurred+0xe8>
 8001db6:	68fb      	ldr	r3, [r7, #12]
 8001db8:	681b      	ldr	r3, [r3, #0]
 8001dba:	685a      	ldr	r2, [r3, #4]
 8001dbc:	2380      	movs	r3, #128	@ 0x80
 8001dbe:	01db      	lsls	r3, r3, #7
 8001dc0:	4013      	ands	r3, r2
 8001dc2:	617b      	str	r3, [r7, #20]
 8001dc4:	2013      	movs	r0, #19
 8001dc6:	183b      	adds	r3, r7, r0
 8001dc8:	68fa      	ldr	r2, [r7, #12]
 8001dca:	2142      	movs	r1, #66	@ 0x42
 8001dcc:	5c52      	ldrb	r2, [r2, r1]
 8001dce:	701a      	strb	r2, [r3, #0]
 8001dd0:	68fb      	ldr	r3, [r7, #12]
 8001dd2:	681b      	ldr	r3, [r3, #0]
 8001dd4:	699a      	ldr	r2, [r3, #24]
 8001dd6:	2380      	movs	r3, #128	@ 0x80
 8001dd8:	021b      	lsls	r3, r3, #8
 8001dda:	401a      	ands	r2, r3
 8001ddc:	2380      	movs	r3, #128	@ 0x80
 8001dde:	021b      	lsls	r3, r3, #8
 8001de0:	429a      	cmp	r2, r3
 8001de2:	d126      	bne.n	8001e32 <I2C_IsErrorOccurred+0xda>
 8001de4:	697a      	ldr	r2, [r7, #20]
 8001de6:	2380      	movs	r3, #128	@ 0x80
 8001de8:	01db      	lsls	r3, r3, #7
 8001dea:	429a      	cmp	r2, r3
 8001dec:	d021      	beq.n	8001e32 <I2C_IsErrorOccurred+0xda>
 8001dee:	183b      	adds	r3, r7, r0
 8001df0:	781b      	ldrb	r3, [r3, #0]
 8001df2:	2b20      	cmp	r3, #32
 8001df4:	d01d      	beq.n	8001e32 <I2C_IsErrorOccurred+0xda>
 8001df6:	68fb      	ldr	r3, [r7, #12]
 8001df8:	681b      	ldr	r3, [r3, #0]
 8001dfa:	685a      	ldr	r2, [r3, #4]
 8001dfc:	68fb      	ldr	r3, [r7, #12]
 8001dfe:	681b      	ldr	r3, [r3, #0]
 8001e00:	2180      	movs	r1, #128	@ 0x80
 8001e02:	01c9      	lsls	r1, r1, #7
 8001e04:	430a      	orrs	r2, r1
 8001e06:	605a      	str	r2, [r3, #4]
 8001e08:	f7ff f9dc 	bl	80011c4 <HAL_GetTick>
 8001e0c:	0003      	movs	r3, r0
 8001e0e:	61fb      	str	r3, [r7, #28]
 8001e10:	e00f      	b.n	8001e32 <I2C_IsErrorOccurred+0xda>
 8001e12:	f7ff f9d7 	bl	80011c4 <HAL_GetTick>
 8001e16:	0002      	movs	r2, r0
 8001e18:	69fb      	ldr	r3, [r7, #28]
 8001e1a:	1ad3      	subs	r3, r2, r3
 8001e1c:	2b19      	cmp	r3, #25
 8001e1e:	d908      	bls.n	8001e32 <I2C_IsErrorOccurred+0xda>
 8001e20:	6a3b      	ldr	r3, [r7, #32]
 8001e22:	2220      	movs	r2, #32
 8001e24:	4313      	orrs	r3, r2
 8001e26:	623b      	str	r3, [r7, #32]
 8001e28:	2327      	movs	r3, #39	@ 0x27
 8001e2a:	18fb      	adds	r3, r7, r3
 8001e2c:	2201      	movs	r2, #1
 8001e2e:	701a      	strb	r2, [r3, #0]
 8001e30:	e006      	b.n	8001e40 <I2C_IsErrorOccurred+0xe8>
 8001e32:	68fb      	ldr	r3, [r7, #12]
 8001e34:	681b      	ldr	r3, [r3, #0]
 8001e36:	699b      	ldr	r3, [r3, #24]
 8001e38:	2220      	movs	r2, #32
 8001e3a:	4013      	ands	r3, r2
 8001e3c:	2b20      	cmp	r3, #32
 8001e3e:	d1e8      	bne.n	8001e12 <I2C_IsErrorOccurred+0xba>
 8001e40:	68fb      	ldr	r3, [r7, #12]
 8001e42:	681b      	ldr	r3, [r3, #0]
 8001e44:	699b      	ldr	r3, [r3, #24]
 8001e46:	2220      	movs	r2, #32
 8001e48:	4013      	ands	r3, r2
 8001e4a:	2b20      	cmp	r3, #32
 8001e4c:	d004      	beq.n	8001e58 <I2C_IsErrorOccurred+0x100>
 8001e4e:	2327      	movs	r3, #39	@ 0x27
 8001e50:	18fb      	adds	r3, r7, r3
 8001e52:	781b      	ldrb	r3, [r3, #0]
 8001e54:	2b00      	cmp	r3, #0
 8001e56:	d09b      	beq.n	8001d90 <I2C_IsErrorOccurred+0x38>
 8001e58:	2327      	movs	r3, #39	@ 0x27
 8001e5a:	18fb      	adds	r3, r7, r3
 8001e5c:	781b      	ldrb	r3, [r3, #0]
 8001e5e:	2b00      	cmp	r3, #0
 8001e60:	d103      	bne.n	8001e6a <I2C_IsErrorOccurred+0x112>
 8001e62:	68fb      	ldr	r3, [r7, #12]
 8001e64:	681b      	ldr	r3, [r3, #0]
 8001e66:	2220      	movs	r2, #32
 8001e68:	61da      	str	r2, [r3, #28]
 8001e6a:	6a3b      	ldr	r3, [r7, #32]
 8001e6c:	2204      	movs	r2, #4
 8001e6e:	4313      	orrs	r3, r2
 8001e70:	623b      	str	r3, [r7, #32]
 8001e72:	2327      	movs	r3, #39	@ 0x27
 8001e74:	18fb      	adds	r3, r7, r3
 8001e76:	2201      	movs	r2, #1
 8001e78:	701a      	strb	r2, [r3, #0]
 8001e7a:	68fb      	ldr	r3, [r7, #12]
 8001e7c:	681b      	ldr	r3, [r3, #0]
 8001e7e:	699b      	ldr	r3, [r3, #24]
 8001e80:	61bb      	str	r3, [r7, #24]
 8001e82:	69ba      	ldr	r2, [r7, #24]
 8001e84:	2380      	movs	r3, #128	@ 0x80
 8001e86:	005b      	lsls	r3, r3, #1
 8001e88:	4013      	ands	r3, r2
 8001e8a:	d00c      	beq.n	8001ea6 <I2C_IsErrorOccurred+0x14e>
 8001e8c:	6a3b      	ldr	r3, [r7, #32]
 8001e8e:	2201      	movs	r2, #1
 8001e90:	4313      	orrs	r3, r2
 8001e92:	623b      	str	r3, [r7, #32]
 8001e94:	68fb      	ldr	r3, [r7, #12]
 8001e96:	681b      	ldr	r3, [r3, #0]
 8001e98:	2280      	movs	r2, #128	@ 0x80
 8001e9a:	0052      	lsls	r2, r2, #1
 8001e9c:	61da      	str	r2, [r3, #28]
 8001e9e:	2327      	movs	r3, #39	@ 0x27
 8001ea0:	18fb      	adds	r3, r7, r3
 8001ea2:	2201      	movs	r2, #1
 8001ea4:	701a      	strb	r2, [r3, #0]
 8001ea6:	69ba      	ldr	r2, [r7, #24]
 8001ea8:	2380      	movs	r3, #128	@ 0x80
 8001eaa:	00db      	lsls	r3, r3, #3
 8001eac:	4013      	ands	r3, r2
 8001eae:	d00c      	beq.n	8001eca <I2C_IsErrorOccurred+0x172>
 8001eb0:	6a3b      	ldr	r3, [r7, #32]
 8001eb2:	2208      	movs	r2, #8
 8001eb4:	4313      	orrs	r3, r2
 8001eb6:	623b      	str	r3, [r7, #32]
 8001eb8:	68fb      	ldr	r3, [r7, #12]
 8001eba:	681b      	ldr	r3, [r3, #0]
 8001ebc:	2280      	movs	r2, #128	@ 0x80
 8001ebe:	00d2      	lsls	r2, r2, #3
 8001ec0:	61da      	str	r2, [r3, #28]
 8001ec2:	2327      	movs	r3, #39	@ 0x27
 8001ec4:	18fb      	adds	r3, r7, r3
 8001ec6:	2201      	movs	r2, #1
 8001ec8:	701a      	strb	r2, [r3, #0]
 8001eca:	69ba      	ldr	r2, [r7, #24]
 8001ecc:	2380      	movs	r3, #128	@ 0x80
 8001ece:	009b      	lsls	r3, r3, #2
 8001ed0:	4013      	ands	r3, r2
 8001ed2:	d00c      	beq.n	8001eee <I2C_IsErrorOccurred+0x196>
 8001ed4:	6a3b      	ldr	r3, [r7, #32]
 8001ed6:	2202      	movs	r2, #2
 8001ed8:	4313      	orrs	r3, r2
 8001eda:	623b      	str	r3, [r7, #32]
 8001edc:	68fb      	ldr	r3, [r7, #12]
 8001ede:	681b      	ldr	r3, [r3, #0]
 8001ee0:	2280      	movs	r2, #128	@ 0x80
 8001ee2:	0092      	lsls	r2, r2, #2
 8001ee4:	61da      	str	r2, [r3, #28]
 8001ee6:	2327      	movs	r3, #39	@ 0x27
 8001ee8:	18fb      	adds	r3, r7, r3
 8001eea:	2201      	movs	r2, #1
 8001eec:	701a      	strb	r2, [r3, #0]
 8001eee:	2327      	movs	r3, #39	@ 0x27
 8001ef0:	18fb      	adds	r3, r7, r3
 8001ef2:	781b      	ldrb	r3, [r3, #0]
 8001ef4:	2b00      	cmp	r3, #0
 8001ef6:	d01d      	beq.n	8001f34 <I2C_IsErrorOccurred+0x1dc>
 8001ef8:	68fb      	ldr	r3, [r7, #12]
 8001efa:	0018      	movs	r0, r3
 8001efc:	f7ff fe28 	bl	8001b50 <I2C_Flush_TXDR>
 8001f00:	68fb      	ldr	r3, [r7, #12]
 8001f02:	681b      	ldr	r3, [r3, #0]
 8001f04:	685a      	ldr	r2, [r3, #4]
 8001f06:	68fb      	ldr	r3, [r7, #12]
 8001f08:	681b      	ldr	r3, [r3, #0]
 8001f0a:	490e      	ldr	r1, [pc, #56]	@ (8001f44 <I2C_IsErrorOccurred+0x1ec>)
 8001f0c:	400a      	ands	r2, r1
 8001f0e:	605a      	str	r2, [r3, #4]
 8001f10:	68fb      	ldr	r3, [r7, #12]
 8001f12:	6c5a      	ldr	r2, [r3, #68]	@ 0x44
 8001f14:	6a3b      	ldr	r3, [r7, #32]
 8001f16:	431a      	orrs	r2, r3
 8001f18:	68fb      	ldr	r3, [r7, #12]
 8001f1a:	645a      	str	r2, [r3, #68]	@ 0x44
 8001f1c:	68fb      	ldr	r3, [r7, #12]
 8001f1e:	2241      	movs	r2, #65	@ 0x41
 8001f20:	2120      	movs	r1, #32
 8001f22:	5499      	strb	r1, [r3, r2]
 8001f24:	68fb      	ldr	r3, [r7, #12]
 8001f26:	2242      	movs	r2, #66	@ 0x42
 8001f28:	2100      	movs	r1, #0
 8001f2a:	5499      	strb	r1, [r3, r2]
 8001f2c:	68fb      	ldr	r3, [r7, #12]
 8001f2e:	2240      	movs	r2, #64	@ 0x40
 8001f30:	2100      	movs	r1, #0
 8001f32:	5499      	strb	r1, [r3, r2]
 8001f34:	2327      	movs	r3, #39	@ 0x27
 8001f36:	18fb      	adds	r3, r7, r3
 8001f38:	781b      	ldrb	r3, [r3, #0]
 8001f3a:	0018      	movs	r0, r3
 8001f3c:	46bd      	mov	sp, r7
 8001f3e:	b00a      	add	sp, #40	@ 0x28
 8001f40:	bd80      	pop	{r7, pc}
 8001f42:	46c0      	nop			@ (mov r8, r8)
 8001f44:	fe00e800 	.word	0xfe00e800

08001f48 <I2C_TransferConfig>:
 8001f48:	b590      	push	{r4, r7, lr}
 8001f4a:	b087      	sub	sp, #28
 8001f4c:	af00      	add	r7, sp, #0
 8001f4e:	60f8      	str	r0, [r7, #12]
 8001f50:	0008      	movs	r0, r1
 8001f52:	0011      	movs	r1, r2
 8001f54:	607b      	str	r3, [r7, #4]
 8001f56:	240a      	movs	r4, #10
 8001f58:	193b      	adds	r3, r7, r4
 8001f5a:	1c02      	adds	r2, r0, #0
 8001f5c:	801a      	strh	r2, [r3, #0]
 8001f5e:	2009      	movs	r0, #9
 8001f60:	183b      	adds	r3, r7, r0
 8001f62:	1c0a      	adds	r2, r1, #0
 8001f64:	701a      	strb	r2, [r3, #0]
 8001f66:	193b      	adds	r3, r7, r4
 8001f68:	881b      	ldrh	r3, [r3, #0]
 8001f6a:	059b      	lsls	r3, r3, #22
 8001f6c:	0d9a      	lsrs	r2, r3, #22
 8001f6e:	183b      	adds	r3, r7, r0
 8001f70:	781b      	ldrb	r3, [r3, #0]
 8001f72:	0419      	lsls	r1, r3, #16
 8001f74:	23ff      	movs	r3, #255	@ 0xff
 8001f76:	041b      	lsls	r3, r3, #16
 8001f78:	400b      	ands	r3, r1
 8001f7a:	431a      	orrs	r2, r3
 8001f7c:	687b      	ldr	r3, [r7, #4]
 8001f7e:	431a      	orrs	r2, r3
 8001f80:	6abb      	ldr	r3, [r7, #40]	@ 0x28
 8001f82:	4313      	orrs	r3, r2
 8001f84:	005b      	lsls	r3, r3, #1
 8001f86:	085b      	lsrs	r3, r3, #1
 8001f88:	617b      	str	r3, [r7, #20]
 8001f8a:	68fb      	ldr	r3, [r7, #12]
 8001f8c:	681b      	ldr	r3, [r3, #0]
 8001f8e:	685b      	ldr	r3, [r3, #4]
 8001f90:	6aba      	ldr	r2, [r7, #40]	@ 0x28
 8001f92:	0d51      	lsrs	r1, r2, #21
 8001f94:	2280      	movs	r2, #128	@ 0x80
 8001f96:	00d2      	lsls	r2, r2, #3
 8001f98:	400a      	ands	r2, r1
 8001f9a:	4907      	ldr	r1, [pc, #28]	@ (8001fb8 <I2C_TransferConfig+0x70>)
 8001f9c:	430a      	orrs	r2, r1
 8001f9e:	43d2      	mvns	r2, r2
 8001fa0:	401a      	ands	r2, r3
 8001fa2:	0011      	movs	r1, r2
 8001fa4:	68fb      	ldr	r3, [r7, #12]
 8001fa6:	681b      	ldr	r3, [r3, #0]
 8001fa8:	697a      	ldr	r2, [r7, #20]
 8001faa:	430a      	orrs	r2, r1
 8001fac:	605a      	str	r2, [r3, #4]
 8001fae:	46c0      	nop			@ (mov r8, r8)
 8001fb0:	46bd      	mov	sp, r7
 8001fb2:	b007      	add	sp, #28
 8001fb4:	bd90      	pop	{r4, r7, pc}
 8001fb6:	46c0      	nop			@ (mov r8, r8)
 8001fb8:	03ff63ff 	.word	0x03ff63ff

08001fbc <HAL_I2CEx_ConfigAnalogFilter>:
 8001fbc:	b580      	push	{r7, lr}
 8001fbe:	b082      	sub	sp, #8
 8001fc0:	af00      	add	r7, sp, #0
 8001fc2:	6078      	str	r0, [r7, #4]
 8001fc4:	6039      	str	r1, [r7, #0]
 8001fc6:	687b      	ldr	r3, [r7, #4]
 8001fc8:	2241      	movs	r2, #65	@ 0x41
 8001fca:	5c9b      	ldrb	r3, [r3, r2]
 8001fcc:	b2db      	uxtb	r3, r3
 8001fce:	2b20      	cmp	r3, #32
 8001fd0:	d138      	bne.n	8002044 <HAL_I2CEx_ConfigAnalogFilter+0x88>
 8001fd2:	687b      	ldr	r3, [r7, #4]
 8001fd4:	2240      	movs	r2, #64	@ 0x40
 8001fd6:	5c9b      	ldrb	r3, [r3, r2]
 8001fd8:	2b01      	cmp	r3, #1
 8001fda:	d101      	bne.n	8001fe0 <HAL_I2CEx_ConfigAnalogFilter+0x24>
 8001fdc:	2302      	movs	r3, #2
 8001fde:	e032      	b.n	8002046 <HAL_I2CEx_ConfigAnalogFilter+0x8a>
 8001fe0:	687b      	ldr	r3, [r7, #4]
 8001fe2:	2240      	movs	r2, #64	@ 0x40
 8001fe4:	2101      	movs	r1, #1
 8001fe6:	5499      	strb	r1, [r3, r2]
 8001fe8:	687b      	ldr	r3, [r7, #4]
 8001fea:	2241      	movs	r2, #65	@ 0x41
 8001fec:	2124      	movs	r1, #36	@ 0x24
 8001fee:	5499      	strb	r1, [r3, r2]
 8001ff0:	687b      	ldr	r3, [r7, #4]
 8001ff2:	681b      	ldr	r3, [r3, #0]
 8001ff4:	681a      	ldr	r2, [r3, #0]
 8001ff6:	687b      	ldr	r3, [r7, #4]
 8001ff8:	681b      	ldr	r3, [r3, #0]
 8001ffa:	2101      	movs	r1, #1
 8001ffc:	438a      	bics	r2, r1
 8001ffe:	601a      	str	r2, [r3, #0]
 8002000:	687b      	ldr	r3, [r7, #4]
 8002002:	681b      	ldr	r3, [r3, #0]
 8002004:	681a      	ldr	r2, [r3, #0]
 8002006:	687b      	ldr	r3, [r7, #4]
 8002008:	681b      	ldr	r3, [r3, #0]
 800200a:	4911      	ldr	r1, [pc, #68]	@ (8002050 <HAL_I2CEx_ConfigAnalogFilter+0x94>)
 800200c:	400a      	ands	r2, r1
 800200e:	601a      	str	r2, [r3, #0]
 8002010:	687b      	ldr	r3, [r7, #4]
 8002012:	681b      	ldr	r3, [r3, #0]
 8002014:	6819      	ldr	r1, [r3, #0]
 8002016:	687b      	ldr	r3, [r7, #4]
 8002018:	681b      	ldr	r3, [r3, #0]
 800201a:	683a      	ldr	r2, [r7, #0]
 800201c:	430a      	orrs	r2, r1
 800201e:	601a      	str	r2, [r3, #0]
 8002020:	687b      	ldr	r3, [r7, #4]
 8002022:	681b      	ldr	r3, [r3, #0]
 8002024:	681a      	ldr	r2, [r3, #0]
 8002026:	687b      	ldr	r3, [r7, #4]
 8002028:	681b      	ldr	r3, [r3, #0]
 800202a:	2101      	movs	r1, #1
 800202c:	430a      	orrs	r2, r1
 800202e:	601a      	str	r2, [r3, #0]
 8002030:	687b      	ldr	r3, [r7, #4]
 8002032:	2241      	movs	r2, #65	@ 0x41
 8002034:	2120      	movs	r1, #32
 8002036:	5499      	strb	r1, [r3, r2]
 8002038:	687b      	ldr	r3, [r7, #4]
 800203a:	2240      	movs	r2, #64	@ 0x40
 800203c:	2100      	movs	r1, #0
 800203e:	5499      	strb	r1, [r3, r2]
 8002040:	2300      	movs	r3, #0
 8002042:	e000      	b.n	8002046 <HAL_I2CEx_ConfigAnalogFilter+0x8a>
 8002044:	2302      	movs	r3, #2
 8002046:	0018      	movs	r0, r3
 8002048:	46bd      	mov	sp, r7
 800204a:	b002      	add	sp, #8
 800204c:	bd80      	pop	{r7, pc}
 800204e:	46c0      	nop			@ (mov r8, r8)
 8002050:	ffffefff 	.word	0xffffefff

08002054 <HAL_I2CEx_ConfigDigitalFilter>:
 8002054:	b580      	push	{r7, lr}
 8002056:	b084      	sub	sp, #16
 8002058:	af00      	add	r7, sp, #0
 800205a:	6078      	str	r0, [r7, #4]
 800205c:	6039      	str	r1, [r7, #0]
 800205e:	687b      	ldr	r3, [r7, #4]
 8002060:	2241      	movs	r2, #65	@ 0x41
 8002062:	5c9b      	ldrb	r3, [r3, r2]
 8002064:	b2db      	uxtb	r3, r3
 8002066:	2b20      	cmp	r3, #32
 8002068:	d139      	bne.n	80020de <HAL_I2CEx_ConfigDigitalFilter+0x8a>
 800206a:	687b      	ldr	r3, [r7, #4]
 800206c:	2240      	movs	r2, #64	@ 0x40
 800206e:	5c9b      	ldrb	r3, [r3, r2]
 8002070:	2b01      	cmp	r3, #1
 8002072:	d101      	bne.n	8002078 <HAL_I2CEx_ConfigDigitalFilter+0x24>
 8002074:	2302      	movs	r3, #2
 8002076:	e033      	b.n	80020e0 <HAL_I2CEx_ConfigDigitalFilter+0x8c>
 8002078:	687b      	ldr	r3, [r7, #4]
 800207a:	2240      	movs	r2, #64	@ 0x40
 800207c:	2101      	movs	r1, #1
 800207e:	5499      	strb	r1, [r3, r2]
 8002080:	687b      	ldr	r3, [r7, #4]
 8002082:	2241      	movs	r2, #65	@ 0x41
 8002084:	2124      	movs	r1, #36	@ 0x24
 8002086:	5499      	strb	r1, [r3, r2]
 8002088:	687b      	ldr	r3, [r7, #4]
 800208a:	681b      	ldr	r3, [r3, #0]
 800208c:	681a      	ldr	r2, [r3, #0]
 800208e:	687b      	ldr	r3, [r7, #4]
 8002090:	681b      	ldr	r3, [r3, #0]
 8002092:	2101      	movs	r1, #1
 8002094:	438a      	bics	r2, r1
 8002096:	601a      	str	r2, [r3, #0]
 8002098:	687b      	ldr	r3, [r7, #4]
 800209a:	681b      	ldr	r3, [r3, #0]
 800209c:	681b      	ldr	r3, [r3, #0]
 800209e:	60fb      	str	r3, [r7, #12]
 80020a0:	68fb      	ldr	r3, [r7, #12]
 80020a2:	4a11      	ldr	r2, [pc, #68]	@ (80020e8 <HAL_I2CEx_ConfigDigitalFilter+0x94>)
 80020a4:	4013      	ands	r3, r2
 80020a6:	60fb      	str	r3, [r7, #12]
 80020a8:	683b      	ldr	r3, [r7, #0]
 80020aa:	021b      	lsls	r3, r3, #8
 80020ac:	68fa      	ldr	r2, [r7, #12]
 80020ae:	4313      	orrs	r3, r2
 80020b0:	60fb      	str	r3, [r7, #12]
 80020b2:	687b      	ldr	r3, [r7, #4]
 80020b4:	681b      	ldr	r3, [r3, #0]
 80020b6:	68fa      	ldr	r2, [r7, #12]
 80020b8:	601a      	str	r2, [r3, #0]
 80020ba:	687b      	ldr	r3, [r7, #4]
 80020bc:	681b      	ldr	r3, [r3, #0]
 80020be:	681a      	ldr	r2, [r3, #0]
 80020c0:	687b      	ldr	r3, [r7, #4]
 80020c2:	681b      	ldr	r3, [r3, #0]
 80020c4:	2101      	movs	r1, #1
 80020c6:	430a      	orrs	r2, r1
 80020c8:	601a      	str	r2, [r3, #0]
 80020ca:	687b      	ldr	r3, [r7, #4]
 80020cc:	2241      	movs	r2, #65	@ 0x41
 80020ce:	2120      	movs	r1, #32
 80020d0:	5499      	strb	r1, [r3, r2]
 80020d2:	687b      	ldr	r3, [r7, #4]
 80020d4:	2240      	movs	r2, #64	@ 0x40
 80020d6:	2100      	movs	r1, #0
 80020d8:	5499      	strb	r1, [r3, r2]
 80020da:	2300      	movs	r3, #0
 80020dc:	e000      	b.n	80020e0 <HAL_I2CEx_ConfigDigitalFilter+0x8c>
 80020de:	2302      	movs	r3, #2
 80020e0:	0018      	movs	r0, r3
 80020e2:	46bd      	mov	sp, r7
 80020e4:	b004      	add	sp, #16
 80020e6:	bd80      	pop	{r7, pc}
 80020e8:	fffff0ff 	.word	0xfffff0ff

080020ec <HAL_I2CEx_EnableFastModePlus>:
 80020ec:	b580      	push	{r7, lr}
 80020ee:	b084      	sub	sp, #16
 80020f0:	af00      	add	r7, sp, #0
 80020f2:	6078      	str	r0, [r7, #4]
 80020f4:	4b0a      	ldr	r3, [pc, #40]	@ (8002120 <HAL_I2CEx_EnableFastModePlus+0x34>)
 80020f6:	6c1a      	ldr	r2, [r3, #64]	@ 0x40
 80020f8:	4b09      	ldr	r3, [pc, #36]	@ (8002120 <HAL_I2CEx_EnableFastModePlus+0x34>)
 80020fa:	2101      	movs	r1, #1
 80020fc:	430a      	orrs	r2, r1
 80020fe:	641a      	str	r2, [r3, #64]	@ 0x40
 8002100:	4b07      	ldr	r3, [pc, #28]	@ (8002120 <HAL_I2CEx_EnableFastModePlus+0x34>)
 8002102:	6c1b      	ldr	r3, [r3, #64]	@ 0x40
 8002104:	2201      	movs	r2, #1
 8002106:	4013      	ands	r3, r2
 8002108:	60fb      	str	r3, [r7, #12]
 800210a:	68fb      	ldr	r3, [r7, #12]
 800210c:	4b05      	ldr	r3, [pc, #20]	@ (8002124 <HAL_I2CEx_EnableFastModePlus+0x38>)
 800210e:	6819      	ldr	r1, [r3, #0]
 8002110:	4b04      	ldr	r3, [pc, #16]	@ (8002124 <HAL_I2CEx_EnableFastModePlus+0x38>)
 8002112:	687a      	ldr	r2, [r7, #4]
 8002114:	430a      	orrs	r2, r1
 8002116:	601a      	str	r2, [r3, #0]
 8002118:	46c0      	nop			@ (mov r8, r8)
 800211a:	46bd      	mov	sp, r7
 800211c:	b004      	add	sp, #16
 800211e:	bd80      	pop	{r7, pc}
 8002120:	40021000 	.word	0x40021000
 8002124:	40010000 	.word	0x40010000

08002128 <HAL_PWREx_ControlVoltageScaling>:
 8002128:	b580      	push	{r7, lr}
 800212a:	b084      	sub	sp, #16
 800212c:	af00      	add	r7, sp, #0
 800212e:	6078      	str	r0, [r7, #4]
 8002130:	4b19      	ldr	r3, [pc, #100]	@ (8002198 <HAL_PWREx_ControlVoltageScaling+0x70>)
 8002132:	681b      	ldr	r3, [r3, #0]
 8002134:	4a19      	ldr	r2, [pc, #100]	@ (800219c <HAL_PWREx_ControlVoltageScaling+0x74>)
 8002136:	4013      	ands	r3, r2
 8002138:	0019      	movs	r1, r3
 800213a:	4b17      	ldr	r3, [pc, #92]	@ (8002198 <HAL_PWREx_ControlVoltageScaling+0x70>)
 800213c:	687a      	ldr	r2, [r7, #4]
 800213e:	430a      	orrs	r2, r1
 8002140:	601a      	str	r2, [r3, #0]
 8002142:	687a      	ldr	r2, [r7, #4]
 8002144:	2380      	movs	r3, #128	@ 0x80
 8002146:	009b      	lsls	r3, r3, #2
 8002148:	429a      	cmp	r2, r3
 800214a:	d11f      	bne.n	800218c <HAL_PWREx_ControlVoltageScaling+0x64>
 800214c:	4b14      	ldr	r3, [pc, #80]	@ (80021a0 <HAL_PWREx_ControlVoltageScaling+0x78>)
 800214e:	681a      	ldr	r2, [r3, #0]
 8002150:	0013      	movs	r3, r2
 8002152:	005b      	lsls	r3, r3, #1
 8002154:	189b      	adds	r3, r3, r2
 8002156:	005b      	lsls	r3, r3, #1
 8002158:	4912      	ldr	r1, [pc, #72]	@ (80021a4 <HAL_PWREx_ControlVoltageScaling+0x7c>)
 800215a:	0018      	movs	r0, r3
 800215c:	f7fd ffd0 	bl	8000100 <__udivsi3>
 8002160:	0003      	movs	r3, r0
 8002162:	3301      	adds	r3, #1
 8002164:	60fb      	str	r3, [r7, #12]
 8002166:	e008      	b.n	800217a <HAL_PWREx_ControlVoltageScaling+0x52>
 8002168:	68fb      	ldr	r3, [r7, #12]
 800216a:	2b00      	cmp	r3, #0
 800216c:	d003      	beq.n	8002176 <HAL_PWREx_ControlVoltageScaling+0x4e>
 800216e:	68fb      	ldr	r3, [r7, #12]
 8002170:	3b01      	subs	r3, #1
 8002172:	60fb      	str	r3, [r7, #12]
 8002174:	e001      	b.n	800217a <HAL_PWREx_ControlVoltageScaling+0x52>
 8002176:	2303      	movs	r3, #3
 8002178:	e009      	b.n	800218e <HAL_PWREx_ControlVoltageScaling+0x66>
 800217a:	4b07      	ldr	r3, [pc, #28]	@ (8002198 <HAL_PWREx_ControlVoltageScaling+0x70>)
 800217c:	695a      	ldr	r2, [r3, #20]
 800217e:	2380      	movs	r3, #128	@ 0x80
 8002180:	00db      	lsls	r3, r3, #3
 8002182:	401a      	ands	r2, r3
 8002184:	2380      	movs	r3, #128	@ 0x80
 8002186:	00db      	lsls	r3, r3, #3
 8002188:	429a      	cmp	r2, r3
 800218a:	d0ed      	beq.n	8002168 <HAL_PWREx_ControlVoltageScaling+0x40>
 800218c:	2300      	movs	r3, #0
 800218e:	0018      	movs	r0, r3
 8002190:	46bd      	mov	sp, r7
 8002192:	b004      	add	sp, #16
 8002194:	bd80      	pop	{r7, pc}
 8002196:	46c0      	nop			@ (mov r8, r8)
 8002198:	40007000 	.word	0x40007000
 800219c:	fffff9ff 	.word	0xfffff9ff
 80021a0:	20000014 	.word	0x20000014
 80021a4:	000f4240 	.word	0x000f4240

080021a8 <HAL_RCC_OscConfig>:
 80021a8:	b580      	push	{r7, lr}
 80021aa:	b088      	sub	sp, #32
 80021ac:	af00      	add	r7, sp, #0
 80021ae:	6078      	str	r0, [r7, #4]
 80021b0:	687b      	ldr	r3, [r7, #4]
 80021b2:	2b00      	cmp	r3, #0
 80021b4:	d101      	bne.n	80021ba <HAL_RCC_OscConfig+0x12>
 80021b6:	2301      	movs	r3, #1
 80021b8:	e2f3      	b.n	80027a2 <HAL_RCC_OscConfig+0x5fa>
 80021ba:	687b      	ldr	r3, [r7, #4]
 80021bc:	681b      	ldr	r3, [r3, #0]
 80021be:	2201      	movs	r2, #1
 80021c0:	4013      	ands	r3, r2
 80021c2:	d100      	bne.n	80021c6 <HAL_RCC_OscConfig+0x1e>
 80021c4:	e07c      	b.n	80022c0 <HAL_RCC_OscConfig+0x118>
 80021c6:	4bc3      	ldr	r3, [pc, #780]	@ (80024d4 <HAL_RCC_OscConfig+0x32c>)
 80021c8:	689b      	ldr	r3, [r3, #8]
 80021ca:	2238      	movs	r2, #56	@ 0x38
 80021cc:	4013      	ands	r3, r2
 80021ce:	61bb      	str	r3, [r7, #24]
 80021d0:	4bc0      	ldr	r3, [pc, #768]	@ (80024d4 <HAL_RCC_OscConfig+0x32c>)
 80021d2:	68db      	ldr	r3, [r3, #12]
 80021d4:	2203      	movs	r2, #3
 80021d6:	4013      	ands	r3, r2
 80021d8:	617b      	str	r3, [r7, #20]
 80021da:	69bb      	ldr	r3, [r7, #24]
 80021dc:	2b10      	cmp	r3, #16
 80021de:	d102      	bne.n	80021e6 <HAL_RCC_OscConfig+0x3e>
 80021e0:	697b      	ldr	r3, [r7, #20]
 80021e2:	2b03      	cmp	r3, #3
 80021e4:	d002      	beq.n	80021ec <HAL_RCC_OscConfig+0x44>
 80021e6:	69bb      	ldr	r3, [r7, #24]
 80021e8:	2b08      	cmp	r3, #8
 80021ea:	d10b      	bne.n	8002204 <HAL_RCC_OscConfig+0x5c>
 80021ec:	4bb9      	ldr	r3, [pc, #740]	@ (80024d4 <HAL_RCC_OscConfig+0x32c>)
 80021ee:	681a      	ldr	r2, [r3, #0]
 80021f0:	2380      	movs	r3, #128	@ 0x80
 80021f2:	029b      	lsls	r3, r3, #10
 80021f4:	4013      	ands	r3, r2
 80021f6:	d062      	beq.n	80022be <HAL_RCC_OscConfig+0x116>
 80021f8:	687b      	ldr	r3, [r7, #4]
 80021fa:	685b      	ldr	r3, [r3, #4]
 80021fc:	2b00      	cmp	r3, #0
 80021fe:	d15e      	bne.n	80022be <HAL_RCC_OscConfig+0x116>
 8002200:	2301      	movs	r3, #1
 8002202:	e2ce      	b.n	80027a2 <HAL_RCC_OscConfig+0x5fa>
 8002204:	687b      	ldr	r3, [r7, #4]
 8002206:	685a      	ldr	r2, [r3, #4]
 8002208:	2380      	movs	r3, #128	@ 0x80
 800220a:	025b      	lsls	r3, r3, #9
 800220c:	429a      	cmp	r2, r3
 800220e:	d107      	bne.n	8002220 <HAL_RCC_OscConfig+0x78>
 8002210:	4bb0      	ldr	r3, [pc, #704]	@ (80024d4 <HAL_RCC_OscConfig+0x32c>)
 8002212:	681a      	ldr	r2, [r3, #0]
 8002214:	4baf      	ldr	r3, [pc, #700]	@ (80024d4 <HAL_RCC_OscConfig+0x32c>)
 8002216:	2180      	movs	r1, #128	@ 0x80
 8002218:	0249      	lsls	r1, r1, #9
 800221a:	430a      	orrs	r2, r1
 800221c:	601a      	str	r2, [r3, #0]
 800221e:	e020      	b.n	8002262 <HAL_RCC_OscConfig+0xba>
 8002220:	687b      	ldr	r3, [r7, #4]
 8002222:	685a      	ldr	r2, [r3, #4]
 8002224:	23a0      	movs	r3, #160	@ 0xa0
 8002226:	02db      	lsls	r3, r3, #11
 8002228:	429a      	cmp	r2, r3
 800222a:	d10e      	bne.n	800224a <HAL_RCC_OscConfig+0xa2>
 800222c:	4ba9      	ldr	r3, [pc, #676]	@ (80024d4 <HAL_RCC_OscConfig+0x32c>)
 800222e:	681a      	ldr	r2, [r3, #0]
 8002230:	4ba8      	ldr	r3, [pc, #672]	@ (80024d4 <HAL_RCC_OscConfig+0x32c>)
 8002232:	2180      	movs	r1, #128	@ 0x80
 8002234:	02c9      	lsls	r1, r1, #11
 8002236:	430a      	orrs	r2, r1
 8002238:	601a      	str	r2, [r3, #0]
 800223a:	4ba6      	ldr	r3, [pc, #664]	@ (80024d4 <HAL_RCC_OscConfig+0x32c>)
 800223c:	681a      	ldr	r2, [r3, #0]
 800223e:	4ba5      	ldr	r3, [pc, #660]	@ (80024d4 <HAL_RCC_OscConfig+0x32c>)
 8002240:	2180      	movs	r1, #128	@ 0x80
 8002242:	0249      	lsls	r1, r1, #9
 8002244:	430a      	orrs	r2, r1
 8002246:	601a      	str	r2, [r3, #0]
 8002248:	e00b      	b.n	8002262 <HAL_RCC_OscConfig+0xba>
 800224a:	4ba2      	ldr	r3, [pc, #648]	@ (80024d4 <HAL_RCC_OscConfig+0x32c>)
 800224c:	681a      	ldr	r2, [r3, #0]
 800224e:	4ba1      	ldr	r3, [pc, #644]	@ (80024d4 <HAL_RCC_OscConfig+0x32c>)
 8002250:	49a1      	ldr	r1, [pc, #644]	@ (80024d8 <HAL_RCC_OscConfig+0x330>)
 8002252:	400a      	ands	r2, r1
 8002254:	601a      	str	r2, [r3, #0]
 8002256:	4b9f      	ldr	r3, [pc, #636]	@ (80024d4 <HAL_RCC_OscConfig+0x32c>)
 8002258:	681a      	ldr	r2, [r3, #0]
 800225a:	4b9e      	ldr	r3, [pc, #632]	@ (80024d4 <HAL_RCC_OscConfig+0x32c>)
 800225c:	499f      	ldr	r1, [pc, #636]	@ (80024dc <HAL_RCC_OscConfig+0x334>)
 800225e:	400a      	ands	r2, r1
 8002260:	601a      	str	r2, [r3, #0]
 8002262:	687b      	ldr	r3, [r7, #4]
 8002264:	685b      	ldr	r3, [r3, #4]
 8002266:	2b00      	cmp	r3, #0
 8002268:	d014      	beq.n	8002294 <HAL_RCC_OscConfig+0xec>
 800226a:	f7fe ffab 	bl	80011c4 <HAL_GetTick>
 800226e:	0003      	movs	r3, r0
 8002270:	613b      	str	r3, [r7, #16]
 8002272:	e008      	b.n	8002286 <HAL_RCC_OscConfig+0xde>
 8002274:	f7fe ffa6 	bl	80011c4 <HAL_GetTick>
 8002278:	0002      	movs	r2, r0
 800227a:	693b      	ldr	r3, [r7, #16]
 800227c:	1ad3      	subs	r3, r2, r3
 800227e:	2b64      	cmp	r3, #100	@ 0x64
 8002280:	d901      	bls.n	8002286 <HAL_RCC_OscConfig+0xde>
 8002282:	2303      	movs	r3, #3
 8002284:	e28d      	b.n	80027a2 <HAL_RCC_OscConfig+0x5fa>
 8002286:	4b93      	ldr	r3, [pc, #588]	@ (80024d4 <HAL_RCC_OscConfig+0x32c>)
 8002288:	681a      	ldr	r2, [r3, #0]
 800228a:	2380      	movs	r3, #128	@ 0x80
 800228c:	029b      	lsls	r3, r3, #10
 800228e:	4013      	ands	r3, r2
 8002290:	d0f0      	beq.n	8002274 <HAL_RCC_OscConfig+0xcc>
 8002292:	e015      	b.n	80022c0 <HAL_RCC_OscConfig+0x118>
 8002294:	f7fe ff96 	bl	80011c4 <HAL_GetTick>
 8002298:	0003      	movs	r3, r0
 800229a:	613b      	str	r3, [r7, #16]
 800229c:	e008      	b.n	80022b0 <HAL_RCC_OscConfig+0x108>
 800229e:	f7fe ff91 	bl	80011c4 <HAL_GetTick>
 80022a2:	0002      	movs	r2, r0
 80022a4:	693b      	ldr	r3, [r7, #16]
 80022a6:	1ad3      	subs	r3, r2, r3
 80022a8:	2b64      	cmp	r3, #100	@ 0x64
 80022aa:	d901      	bls.n	80022b0 <HAL_RCC_OscConfig+0x108>
 80022ac:	2303      	movs	r3, #3
 80022ae:	e278      	b.n	80027a2 <HAL_RCC_OscConfig+0x5fa>
 80022b0:	4b88      	ldr	r3, [pc, #544]	@ (80024d4 <HAL_RCC_OscConfig+0x32c>)
 80022b2:	681a      	ldr	r2, [r3, #0]
 80022b4:	2380      	movs	r3, #128	@ 0x80
 80022b6:	029b      	lsls	r3, r3, #10
 80022b8:	4013      	ands	r3, r2
 80022ba:	d1f0      	bne.n	800229e <HAL_RCC_OscConfig+0xf6>
 80022bc:	e000      	b.n	80022c0 <HAL_RCC_OscConfig+0x118>
 80022be:	46c0      	nop			@ (mov r8, r8)
 80022c0:	687b      	ldr	r3, [r7, #4]
 80022c2:	681b      	ldr	r3, [r3, #0]
 80022c4:	2202      	movs	r2, #2
 80022c6:	4013      	ands	r3, r2
 80022c8:	d100      	bne.n	80022cc <HAL_RCC_OscConfig+0x124>
 80022ca:	e099      	b.n	8002400 <HAL_RCC_OscConfig+0x258>
 80022cc:	4b81      	ldr	r3, [pc, #516]	@ (80024d4 <HAL_RCC_OscConfig+0x32c>)
 80022ce:	689b      	ldr	r3, [r3, #8]
 80022d0:	2238      	movs	r2, #56	@ 0x38
 80022d2:	4013      	ands	r3, r2
 80022d4:	61bb      	str	r3, [r7, #24]
 80022d6:	4b7f      	ldr	r3, [pc, #508]	@ (80024d4 <HAL_RCC_OscConfig+0x32c>)
 80022d8:	68db      	ldr	r3, [r3, #12]
 80022da:	2203      	movs	r2, #3
 80022dc:	4013      	ands	r3, r2
 80022de:	617b      	str	r3, [r7, #20]
 80022e0:	69bb      	ldr	r3, [r7, #24]
 80022e2:	2b10      	cmp	r3, #16
 80022e4:	d102      	bne.n	80022ec <HAL_RCC_OscConfig+0x144>
 80022e6:	697b      	ldr	r3, [r7, #20]
 80022e8:	2b02      	cmp	r3, #2
 80022ea:	d002      	beq.n	80022f2 <HAL_RCC_OscConfig+0x14a>
 80022ec:	69bb      	ldr	r3, [r7, #24]
 80022ee:	2b00      	cmp	r3, #0
 80022f0:	d135      	bne.n	800235e <HAL_RCC_OscConfig+0x1b6>
 80022f2:	4b78      	ldr	r3, [pc, #480]	@ (80024d4 <HAL_RCC_OscConfig+0x32c>)
 80022f4:	681a      	ldr	r2, [r3, #0]
 80022f6:	2380      	movs	r3, #128	@ 0x80
 80022f8:	00db      	lsls	r3, r3, #3
 80022fa:	4013      	ands	r3, r2
 80022fc:	d005      	beq.n	800230a <HAL_RCC_OscConfig+0x162>
 80022fe:	687b      	ldr	r3, [r7, #4]
 8002300:	68db      	ldr	r3, [r3, #12]
 8002302:	2b00      	cmp	r3, #0
 8002304:	d101      	bne.n	800230a <HAL_RCC_OscConfig+0x162>
 8002306:	2301      	movs	r3, #1
 8002308:	e24b      	b.n	80027a2 <HAL_RCC_OscConfig+0x5fa>
 800230a:	4b72      	ldr	r3, [pc, #456]	@ (80024d4 <HAL_RCC_OscConfig+0x32c>)
 800230c:	685b      	ldr	r3, [r3, #4]
 800230e:	4a74      	ldr	r2, [pc, #464]	@ (80024e0 <HAL_RCC_OscConfig+0x338>)
 8002310:	4013      	ands	r3, r2
 8002312:	0019      	movs	r1, r3
 8002314:	687b      	ldr	r3, [r7, #4]
 8002316:	695b      	ldr	r3, [r3, #20]
 8002318:	021a      	lsls	r2, r3, #8
 800231a:	4b6e      	ldr	r3, [pc, #440]	@ (80024d4 <HAL_RCC_OscConfig+0x32c>)
 800231c:	430a      	orrs	r2, r1
 800231e:	605a      	str	r2, [r3, #4]
 8002320:	69bb      	ldr	r3, [r7, #24]
 8002322:	2b00      	cmp	r3, #0
 8002324:	d112      	bne.n	800234c <HAL_RCC_OscConfig+0x1a4>
 8002326:	4b6b      	ldr	r3, [pc, #428]	@ (80024d4 <HAL_RCC_OscConfig+0x32c>)
 8002328:	681b      	ldr	r3, [r3, #0]
 800232a:	4a6e      	ldr	r2, [pc, #440]	@ (80024e4 <HAL_RCC_OscConfig+0x33c>)
 800232c:	4013      	ands	r3, r2
 800232e:	0019      	movs	r1, r3
 8002330:	687b      	ldr	r3, [r7, #4]
 8002332:	691a      	ldr	r2, [r3, #16]
 8002334:	4b67      	ldr	r3, [pc, #412]	@ (80024d4 <HAL_RCC_OscConfig+0x32c>)
 8002336:	430a      	orrs	r2, r1
 8002338:	601a      	str	r2, [r3, #0]
 800233a:	4b66      	ldr	r3, [pc, #408]	@ (80024d4 <HAL_RCC_OscConfig+0x32c>)
 800233c:	681b      	ldr	r3, [r3, #0]
 800233e:	0adb      	lsrs	r3, r3, #11
 8002340:	2207      	movs	r2, #7
 8002342:	4013      	ands	r3, r2
 8002344:	4a68      	ldr	r2, [pc, #416]	@ (80024e8 <HAL_RCC_OscConfig+0x340>)
 8002346:	40da      	lsrs	r2, r3
 8002348:	4b68      	ldr	r3, [pc, #416]	@ (80024ec <HAL_RCC_OscConfig+0x344>)
 800234a:	601a      	str	r2, [r3, #0]
 800234c:	4b68      	ldr	r3, [pc, #416]	@ (80024f0 <HAL_RCC_OscConfig+0x348>)
 800234e:	681b      	ldr	r3, [r3, #0]
 8002350:	0018      	movs	r0, r3
 8002352:	f7fe fedb 	bl	800110c <HAL_InitTick>
 8002356:	1e03      	subs	r3, r0, #0
 8002358:	d051      	beq.n	80023fe <HAL_RCC_OscConfig+0x256>
 800235a:	2301      	movs	r3, #1
 800235c:	e221      	b.n	80027a2 <HAL_RCC_OscConfig+0x5fa>
 800235e:	687b      	ldr	r3, [r7, #4]
 8002360:	68db      	ldr	r3, [r3, #12]
 8002362:	2b00      	cmp	r3, #0
 8002364:	d030      	beq.n	80023c8 <HAL_RCC_OscConfig+0x220>
 8002366:	4b5b      	ldr	r3, [pc, #364]	@ (80024d4 <HAL_RCC_OscConfig+0x32c>)
 8002368:	681b      	ldr	r3, [r3, #0]
 800236a:	4a5e      	ldr	r2, [pc, #376]	@ (80024e4 <HAL_RCC_OscConfig+0x33c>)
 800236c:	4013      	ands	r3, r2
 800236e:	0019      	movs	r1, r3
 8002370:	687b      	ldr	r3, [r7, #4]
 8002372:	691a      	ldr	r2, [r3, #16]
 8002374:	4b57      	ldr	r3, [pc, #348]	@ (80024d4 <HAL_RCC_OscConfig+0x32c>)
 8002376:	430a      	orrs	r2, r1
 8002378:	601a      	str	r2, [r3, #0]
 800237a:	4b56      	ldr	r3, [pc, #344]	@ (80024d4 <HAL_RCC_OscConfig+0x32c>)
 800237c:	681a      	ldr	r2, [r3, #0]
 800237e:	4b55      	ldr	r3, [pc, #340]	@ (80024d4 <HAL_RCC_OscConfig+0x32c>)
 8002380:	2180      	movs	r1, #128	@ 0x80
 8002382:	0049      	lsls	r1, r1, #1
 8002384:	430a      	orrs	r2, r1
 8002386:	601a      	str	r2, [r3, #0]
 8002388:	f7fe ff1c 	bl	80011c4 <HAL_GetTick>
 800238c:	0003      	movs	r3, r0
 800238e:	613b      	str	r3, [r7, #16]
 8002390:	e008      	b.n	80023a4 <HAL_RCC_OscConfig+0x1fc>
 8002392:	f7fe ff17 	bl	80011c4 <HAL_GetTick>
 8002396:	0002      	movs	r2, r0
 8002398:	693b      	ldr	r3, [r7, #16]
 800239a:	1ad3      	subs	r3, r2, r3
 800239c:	2b02      	cmp	r3, #2
 800239e:	d901      	bls.n	80023a4 <HAL_RCC_OscConfig+0x1fc>
 80023a0:	2303      	movs	r3, #3
 80023a2:	e1fe      	b.n	80027a2 <HAL_RCC_OscConfig+0x5fa>
 80023a4:	4b4b      	ldr	r3, [pc, #300]	@ (80024d4 <HAL_RCC_OscConfig+0x32c>)
 80023a6:	681a      	ldr	r2, [r3, #0]
 80023a8:	2380      	movs	r3, #128	@ 0x80
 80023aa:	00db      	lsls	r3, r3, #3
 80023ac:	4013      	ands	r3, r2
 80023ae:	d0f0      	beq.n	8002392 <HAL_RCC_OscConfig+0x1ea>
 80023b0:	4b48      	ldr	r3, [pc, #288]	@ (80024d4 <HAL_RCC_OscConfig+0x32c>)
 80023b2:	685b      	ldr	r3, [r3, #4]
 80023b4:	4a4a      	ldr	r2, [pc, #296]	@ (80024e0 <HAL_RCC_OscConfig+0x338>)
 80023b6:	4013      	ands	r3, r2
 80023b8:	0019      	movs	r1, r3
 80023ba:	687b      	ldr	r3, [r7, #4]
 80023bc:	695b      	ldr	r3, [r3, #20]
 80023be:	021a      	lsls	r2, r3, #8
 80023c0:	4b44      	ldr	r3, [pc, #272]	@ (80024d4 <HAL_RCC_OscConfig+0x32c>)
 80023c2:	430a      	orrs	r2, r1
 80023c4:	605a      	str	r2, [r3, #4]
 80023c6:	e01b      	b.n	8002400 <HAL_RCC_OscConfig+0x258>
 80023c8:	4b42      	ldr	r3, [pc, #264]	@ (80024d4 <HAL_RCC_OscConfig+0x32c>)
 80023ca:	681a      	ldr	r2, [r3, #0]
 80023cc:	4b41      	ldr	r3, [pc, #260]	@ (80024d4 <HAL_RCC_OscConfig+0x32c>)
 80023ce:	4949      	ldr	r1, [pc, #292]	@ (80024f4 <HAL_RCC_OscConfig+0x34c>)
 80023d0:	400a      	ands	r2, r1
 80023d2:	601a      	str	r2, [r3, #0]
 80023d4:	f7fe fef6 	bl	80011c4 <HAL_GetTick>
 80023d8:	0003      	movs	r3, r0
 80023da:	613b      	str	r3, [r7, #16]
 80023dc:	e008      	b.n	80023f0 <HAL_RCC_OscConfig+0x248>
 80023de:	f7fe fef1 	bl	80011c4 <HAL_GetTick>
 80023e2:	0002      	movs	r2, r0
 80023e4:	693b      	ldr	r3, [r7, #16]
 80023e6:	1ad3      	subs	r3, r2, r3
 80023e8:	2b02      	cmp	r3, #2
 80023ea:	d901      	bls.n	80023f0 <HAL_RCC_OscConfig+0x248>
 80023ec:	2303      	movs	r3, #3
 80023ee:	e1d8      	b.n	80027a2 <HAL_RCC_OscConfig+0x5fa>
 80023f0:	4b38      	ldr	r3, [pc, #224]	@ (80024d4 <HAL_RCC_OscConfig+0x32c>)
 80023f2:	681a      	ldr	r2, [r3, #0]
 80023f4:	2380      	movs	r3, #128	@ 0x80
 80023f6:	00db      	lsls	r3, r3, #3
 80023f8:	4013      	ands	r3, r2
 80023fa:	d1f0      	bne.n	80023de <HAL_RCC_OscConfig+0x236>
 80023fc:	e000      	b.n	8002400 <HAL_RCC_OscConfig+0x258>
 80023fe:	46c0      	nop			@ (mov r8, r8)
 8002400:	687b      	ldr	r3, [r7, #4]
 8002402:	681b      	ldr	r3, [r3, #0]
 8002404:	2208      	movs	r2, #8
 8002406:	4013      	ands	r3, r2
 8002408:	d047      	beq.n	800249a <HAL_RCC_OscConfig+0x2f2>
 800240a:	4b32      	ldr	r3, [pc, #200]	@ (80024d4 <HAL_RCC_OscConfig+0x32c>)
 800240c:	689b      	ldr	r3, [r3, #8]
 800240e:	2238      	movs	r2, #56	@ 0x38
 8002410:	4013      	ands	r3, r2
 8002412:	2b18      	cmp	r3, #24
 8002414:	d10a      	bne.n	800242c <HAL_RCC_OscConfig+0x284>
 8002416:	4b2f      	ldr	r3, [pc, #188]	@ (80024d4 <HAL_RCC_OscConfig+0x32c>)
 8002418:	6e1b      	ldr	r3, [r3, #96]	@ 0x60
 800241a:	2202      	movs	r2, #2
 800241c:	4013      	ands	r3, r2
 800241e:	d03c      	beq.n	800249a <HAL_RCC_OscConfig+0x2f2>
 8002420:	687b      	ldr	r3, [r7, #4]
 8002422:	699b      	ldr	r3, [r3, #24]
 8002424:	2b00      	cmp	r3, #0
 8002426:	d138      	bne.n	800249a <HAL_RCC_OscConfig+0x2f2>
 8002428:	2301      	movs	r3, #1
 800242a:	e1ba      	b.n	80027a2 <HAL_RCC_OscConfig+0x5fa>
 800242c:	687b      	ldr	r3, [r7, #4]
 800242e:	699b      	ldr	r3, [r3, #24]
 8002430:	2b00      	cmp	r3, #0
 8002432:	d019      	beq.n	8002468 <HAL_RCC_OscConfig+0x2c0>
 8002434:	4b27      	ldr	r3, [pc, #156]	@ (80024d4 <HAL_RCC_OscConfig+0x32c>)
 8002436:	6e1a      	ldr	r2, [r3, #96]	@ 0x60
 8002438:	4b26      	ldr	r3, [pc, #152]	@ (80024d4 <HAL_RCC_OscConfig+0x32c>)
 800243a:	2101      	movs	r1, #1
 800243c:	430a      	orrs	r2, r1
 800243e:	661a      	str	r2, [r3, #96]	@ 0x60
 8002440:	f7fe fec0 	bl	80011c4 <HAL_GetTick>
 8002444:	0003      	movs	r3, r0
 8002446:	613b      	str	r3, [r7, #16]
 8002448:	e008      	b.n	800245c <HAL_RCC_OscConfig+0x2b4>
 800244a:	f7fe febb 	bl	80011c4 <HAL_GetTick>
 800244e:	0002      	movs	r2, r0
 8002450:	693b      	ldr	r3, [r7, #16]
 8002452:	1ad3      	subs	r3, r2, r3
 8002454:	2b02      	cmp	r3, #2
 8002456:	d901      	bls.n	800245c <HAL_RCC_OscConfig+0x2b4>
 8002458:	2303      	movs	r3, #3
 800245a:	e1a2      	b.n	80027a2 <HAL_RCC_OscConfig+0x5fa>
 800245c:	4b1d      	ldr	r3, [pc, #116]	@ (80024d4 <HAL_RCC_OscConfig+0x32c>)
 800245e:	6e1b      	ldr	r3, [r3, #96]	@ 0x60
 8002460:	2202      	movs	r2, #2
 8002462:	4013      	ands	r3, r2
 8002464:	d0f1      	beq.n	800244a <HAL_RCC_OscConfig+0x2a2>
 8002466:	e018      	b.n	800249a <HAL_RCC_OscConfig+0x2f2>
 8002468:	4b1a      	ldr	r3, [pc, #104]	@ (80024d4 <HAL_RCC_OscConfig+0x32c>)
 800246a:	6e1a      	ldr	r2, [r3, #96]	@ 0x60
 800246c:	4b19      	ldr	r3, [pc, #100]	@ (80024d4 <HAL_RCC_OscConfig+0x32c>)
 800246e:	2101      	movs	r1, #1
 8002470:	438a      	bics	r2, r1
 8002472:	661a      	str	r2, [r3, #96]	@ 0x60
 8002474:	f7fe fea6 	bl	80011c4 <HAL_GetTick>
 8002478:	0003      	movs	r3, r0
 800247a:	613b      	str	r3, [r7, #16]
 800247c:	e008      	b.n	8002490 <HAL_RCC_OscConfig+0x2e8>
 800247e:	f7fe fea1 	bl	80011c4 <HAL_GetTick>
 8002482:	0002      	movs	r2, r0
 8002484:	693b      	ldr	r3, [r7, #16]
 8002486:	1ad3      	subs	r3, r2, r3
 8002488:	2b02      	cmp	r3, #2
 800248a:	d901      	bls.n	8002490 <HAL_RCC_OscConfig+0x2e8>
 800248c:	2303      	movs	r3, #3
 800248e:	e188      	b.n	80027a2 <HAL_RCC_OscConfig+0x5fa>
 8002490:	4b10      	ldr	r3, [pc, #64]	@ (80024d4 <HAL_RCC_OscConfig+0x32c>)
 8002492:	6e1b      	ldr	r3, [r3, #96]	@ 0x60
 8002494:	2202      	movs	r2, #2
 8002496:	4013      	ands	r3, r2
 8002498:	d1f1      	bne.n	800247e <HAL_RCC_OscConfig+0x2d6>
 800249a:	687b      	ldr	r3, [r7, #4]
 800249c:	681b      	ldr	r3, [r3, #0]
 800249e:	2204      	movs	r2, #4
 80024a0:	4013      	ands	r3, r2
 80024a2:	d100      	bne.n	80024a6 <HAL_RCC_OscConfig+0x2fe>
 80024a4:	e0c6      	b.n	8002634 <HAL_RCC_OscConfig+0x48c>
 80024a6:	231f      	movs	r3, #31
 80024a8:	18fb      	adds	r3, r7, r3
 80024aa:	2200      	movs	r2, #0
 80024ac:	701a      	strb	r2, [r3, #0]
 80024ae:	4b09      	ldr	r3, [pc, #36]	@ (80024d4 <HAL_RCC_OscConfig+0x32c>)
 80024b0:	689b      	ldr	r3, [r3, #8]
 80024b2:	2238      	movs	r2, #56	@ 0x38
 80024b4:	4013      	ands	r3, r2
 80024b6:	2b20      	cmp	r3, #32
 80024b8:	d11e      	bne.n	80024f8 <HAL_RCC_OscConfig+0x350>
 80024ba:	4b06      	ldr	r3, [pc, #24]	@ (80024d4 <HAL_RCC_OscConfig+0x32c>)
 80024bc:	6ddb      	ldr	r3, [r3, #92]	@ 0x5c
 80024be:	2202      	movs	r2, #2
 80024c0:	4013      	ands	r3, r2
 80024c2:	d100      	bne.n	80024c6 <HAL_RCC_OscConfig+0x31e>
 80024c4:	e0b6      	b.n	8002634 <HAL_RCC_OscConfig+0x48c>
 80024c6:	687b      	ldr	r3, [r7, #4]
 80024c8:	689b      	ldr	r3, [r3, #8]
 80024ca:	2b00      	cmp	r3, #0
 80024cc:	d000      	beq.n	80024d0 <HAL_RCC_OscConfig+0x328>
 80024ce:	e0b1      	b.n	8002634 <HAL_RCC_OscConfig+0x48c>
 80024d0:	2301      	movs	r3, #1
 80024d2:	e166      	b.n	80027a2 <HAL_RCC_OscConfig+0x5fa>
 80024d4:	40021000 	.word	0x40021000
 80024d8:	fffeffff 	.word	0xfffeffff
 80024dc:	fffbffff 	.word	0xfffbffff
 80024e0:	ffff80ff 	.word	0xffff80ff
 80024e4:	ffffc7ff 	.word	0xffffc7ff
 80024e8:	00f42400 	.word	0x00f42400
 80024ec:	20000014 	.word	0x20000014
 80024f0:	20000018 	.word	0x20000018
 80024f4:	fffffeff 	.word	0xfffffeff
 80024f8:	4bac      	ldr	r3, [pc, #688]	@ (80027ac <HAL_RCC_OscConfig+0x604>)
 80024fa:	6bda      	ldr	r2, [r3, #60]	@ 0x3c
 80024fc:	2380      	movs	r3, #128	@ 0x80
 80024fe:	055b      	lsls	r3, r3, #21
 8002500:	4013      	ands	r3, r2
 8002502:	d101      	bne.n	8002508 <HAL_RCC_OscConfig+0x360>
 8002504:	2301      	movs	r3, #1
 8002506:	e000      	b.n	800250a <HAL_RCC_OscConfig+0x362>
 8002508:	2300      	movs	r3, #0
 800250a:	2b00      	cmp	r3, #0
 800250c:	d011      	beq.n	8002532 <HAL_RCC_OscConfig+0x38a>
 800250e:	4ba7      	ldr	r3, [pc, #668]	@ (80027ac <HAL_RCC_OscConfig+0x604>)
 8002510:	6bda      	ldr	r2, [r3, #60]	@ 0x3c
 8002512:	4ba6      	ldr	r3, [pc, #664]	@ (80027ac <HAL_RCC_OscConfig+0x604>)
 8002514:	2180      	movs	r1, #128	@ 0x80
 8002516:	0549      	lsls	r1, r1, #21
 8002518:	430a      	orrs	r2, r1
 800251a:	63da      	str	r2, [r3, #60]	@ 0x3c
 800251c:	4ba3      	ldr	r3, [pc, #652]	@ (80027ac <HAL_RCC_OscConfig+0x604>)
 800251e:	6bda      	ldr	r2, [r3, #60]	@ 0x3c
 8002520:	2380      	movs	r3, #128	@ 0x80
 8002522:	055b      	lsls	r3, r3, #21
 8002524:	4013      	ands	r3, r2
 8002526:	60fb      	str	r3, [r7, #12]
 8002528:	68fb      	ldr	r3, [r7, #12]
 800252a:	231f      	movs	r3, #31
 800252c:	18fb      	adds	r3, r7, r3
 800252e:	2201      	movs	r2, #1
 8002530:	701a      	strb	r2, [r3, #0]
 8002532:	4b9f      	ldr	r3, [pc, #636]	@ (80027b0 <HAL_RCC_OscConfig+0x608>)
 8002534:	681a      	ldr	r2, [r3, #0]
 8002536:	2380      	movs	r3, #128	@ 0x80
 8002538:	005b      	lsls	r3, r3, #1
 800253a:	4013      	ands	r3, r2
 800253c:	d11a      	bne.n	8002574 <HAL_RCC_OscConfig+0x3cc>
 800253e:	4b9c      	ldr	r3, [pc, #624]	@ (80027b0 <HAL_RCC_OscConfig+0x608>)
 8002540:	681a      	ldr	r2, [r3, #0]
 8002542:	4b9b      	ldr	r3, [pc, #620]	@ (80027b0 <HAL_RCC_OscConfig+0x608>)
 8002544:	2180      	movs	r1, #128	@ 0x80
 8002546:	0049      	lsls	r1, r1, #1
 8002548:	430a      	orrs	r2, r1
 800254a:	601a      	str	r2, [r3, #0]
 800254c:	f7fe fe3a 	bl	80011c4 <HAL_GetTick>
 8002550:	0003      	movs	r3, r0
 8002552:	613b      	str	r3, [r7, #16]
 8002554:	e008      	b.n	8002568 <HAL_RCC_OscConfig+0x3c0>
 8002556:	f7fe fe35 	bl	80011c4 <HAL_GetTick>
 800255a:	0002      	movs	r2, r0
 800255c:	693b      	ldr	r3, [r7, #16]
 800255e:	1ad3      	subs	r3, r2, r3
 8002560:	2b02      	cmp	r3, #2
 8002562:	d901      	bls.n	8002568 <HAL_RCC_OscConfig+0x3c0>
 8002564:	2303      	movs	r3, #3
 8002566:	e11c      	b.n	80027a2 <HAL_RCC_OscConfig+0x5fa>
 8002568:	4b91      	ldr	r3, [pc, #580]	@ (80027b0 <HAL_RCC_OscConfig+0x608>)
 800256a:	681a      	ldr	r2, [r3, #0]
 800256c:	2380      	movs	r3, #128	@ 0x80
 800256e:	005b      	lsls	r3, r3, #1
 8002570:	4013      	ands	r3, r2
 8002572:	d0f0      	beq.n	8002556 <HAL_RCC_OscConfig+0x3ae>
 8002574:	687b      	ldr	r3, [r7, #4]
 8002576:	689b      	ldr	r3, [r3, #8]
 8002578:	2b01      	cmp	r3, #1
 800257a:	d106      	bne.n	800258a <HAL_RCC_OscConfig+0x3e2>
 800257c:	4b8b      	ldr	r3, [pc, #556]	@ (80027ac <HAL_RCC_OscConfig+0x604>)
 800257e:	6dda      	ldr	r2, [r3, #92]	@ 0x5c
 8002580:	4b8a      	ldr	r3, [pc, #552]	@ (80027ac <HAL_RCC_OscConfig+0x604>)
 8002582:	2101      	movs	r1, #1
 8002584:	430a      	orrs	r2, r1
 8002586:	65da      	str	r2, [r3, #92]	@ 0x5c
 8002588:	e01c      	b.n	80025c4 <HAL_RCC_OscConfig+0x41c>
 800258a:	687b      	ldr	r3, [r7, #4]
 800258c:	689b      	ldr	r3, [r3, #8]
 800258e:	2b05      	cmp	r3, #5
 8002590:	d10c      	bne.n	80025ac <HAL_RCC_OscConfig+0x404>
 8002592:	4b86      	ldr	r3, [pc, #536]	@ (80027ac <HAL_RCC_OscConfig+0x604>)
 8002594:	6dda      	ldr	r2, [r3, #92]	@ 0x5c
 8002596:	4b85      	ldr	r3, [pc, #532]	@ (80027ac <HAL_RCC_OscConfig+0x604>)
 8002598:	2104      	movs	r1, #4
 800259a:	430a      	orrs	r2, r1
 800259c:	65da      	str	r2, [r3, #92]	@ 0x5c
 800259e:	4b83      	ldr	r3, [pc, #524]	@ (80027ac <HAL_RCC_OscConfig+0x604>)
 80025a0:	6dda      	ldr	r2, [r3, #92]	@ 0x5c
 80025a2:	4b82      	ldr	r3, [pc, #520]	@ (80027ac <HAL_RCC_OscConfig+0x604>)
 80025a4:	2101      	movs	r1, #1
 80025a6:	430a      	orrs	r2, r1
 80025a8:	65da      	str	r2, [r3, #92]	@ 0x5c
 80025aa:	e00b      	b.n	80025c4 <HAL_RCC_OscConfig+0x41c>
 80025ac:	4b7f      	ldr	r3, [pc, #508]	@ (80027ac <HAL_RCC_OscConfig+0x604>)
 80025ae:	6dda      	ldr	r2, [r3, #92]	@ 0x5c
 80025b0:	4b7e      	ldr	r3, [pc, #504]	@ (80027ac <HAL_RCC_OscConfig+0x604>)
 80025b2:	2101      	movs	r1, #1
 80025b4:	438a      	bics	r2, r1
 80025b6:	65da      	str	r2, [r3, #92]	@ 0x5c
 80025b8:	4b7c      	ldr	r3, [pc, #496]	@ (80027ac <HAL_RCC_OscConfig+0x604>)
 80025ba:	6dda      	ldr	r2, [r3, #92]	@ 0x5c
 80025bc:	4b7b      	ldr	r3, [pc, #492]	@ (80027ac <HAL_RCC_OscConfig+0x604>)
 80025be:	2104      	movs	r1, #4
 80025c0:	438a      	bics	r2, r1
 80025c2:	65da      	str	r2, [r3, #92]	@ 0x5c
 80025c4:	687b      	ldr	r3, [r7, #4]
 80025c6:	689b      	ldr	r3, [r3, #8]
 80025c8:	2b00      	cmp	r3, #0
 80025ca:	d014      	beq.n	80025f6 <HAL_RCC_OscConfig+0x44e>
 80025cc:	f7fe fdfa 	bl	80011c4 <HAL_GetTick>
 80025d0:	0003      	movs	r3, r0
 80025d2:	613b      	str	r3, [r7, #16]
 80025d4:	e009      	b.n	80025ea <HAL_RCC_OscConfig+0x442>
 80025d6:	f7fe fdf5 	bl	80011c4 <HAL_GetTick>
 80025da:	0002      	movs	r2, r0
 80025dc:	693b      	ldr	r3, [r7, #16]
 80025de:	1ad3      	subs	r3, r2, r3
 80025e0:	4a74      	ldr	r2, [pc, #464]	@ (80027b4 <HAL_RCC_OscConfig+0x60c>)
 80025e2:	4293      	cmp	r3, r2
 80025e4:	d901      	bls.n	80025ea <HAL_RCC_OscConfig+0x442>
 80025e6:	2303      	movs	r3, #3
 80025e8:	e0db      	b.n	80027a2 <HAL_RCC_OscConfig+0x5fa>
 80025ea:	4b70      	ldr	r3, [pc, #448]	@ (80027ac <HAL_RCC_OscConfig+0x604>)
 80025ec:	6ddb      	ldr	r3, [r3, #92]	@ 0x5c
 80025ee:	2202      	movs	r2, #2
 80025f0:	4013      	ands	r3, r2
 80025f2:	d0f0      	beq.n	80025d6 <HAL_RCC_OscConfig+0x42e>
 80025f4:	e013      	b.n	800261e <HAL_RCC_OscConfig+0x476>
 80025f6:	f7fe fde5 	bl	80011c4 <HAL_GetTick>
 80025fa:	0003      	movs	r3, r0
 80025fc:	613b      	str	r3, [r7, #16]
 80025fe:	e009      	b.n	8002614 <HAL_RCC_OscConfig+0x46c>
 8002600:	f7fe fde0 	bl	80011c4 <HAL_GetTick>
 8002604:	0002      	movs	r2, r0
 8002606:	693b      	ldr	r3, [r7, #16]
 8002608:	1ad3      	subs	r3, r2, r3
 800260a:	4a6a      	ldr	r2, [pc, #424]	@ (80027b4 <HAL_RCC_OscConfig+0x60c>)
 800260c:	4293      	cmp	r3, r2
 800260e:	d901      	bls.n	8002614 <HAL_RCC_OscConfig+0x46c>
 8002610:	2303      	movs	r3, #3
 8002612:	e0c6      	b.n	80027a2 <HAL_RCC_OscConfig+0x5fa>
 8002614:	4b65      	ldr	r3, [pc, #404]	@ (80027ac <HAL_RCC_OscConfig+0x604>)
 8002616:	6ddb      	ldr	r3, [r3, #92]	@ 0x5c
 8002618:	2202      	movs	r2, #2
 800261a:	4013      	ands	r3, r2
 800261c:	d1f0      	bne.n	8002600 <HAL_RCC_OscConfig+0x458>
 800261e:	231f      	movs	r3, #31
 8002620:	18fb      	adds	r3, r7, r3
 8002622:	781b      	ldrb	r3, [r3, #0]
 8002624:	2b01      	cmp	r3, #1
 8002626:	d105      	bne.n	8002634 <HAL_RCC_OscConfig+0x48c>
 8002628:	4b60      	ldr	r3, [pc, #384]	@ (80027ac <HAL_RCC_OscConfig+0x604>)
 800262a:	6bda      	ldr	r2, [r3, #60]	@ 0x3c
 800262c:	4b5f      	ldr	r3, [pc, #380]	@ (80027ac <HAL_RCC_OscConfig+0x604>)
 800262e:	4962      	ldr	r1, [pc, #392]	@ (80027b8 <HAL_RCC_OscConfig+0x610>)
 8002630:	400a      	ands	r2, r1
 8002632:	63da      	str	r2, [r3, #60]	@ 0x3c
 8002634:	687b      	ldr	r3, [r7, #4]
 8002636:	69db      	ldr	r3, [r3, #28]
 8002638:	2b00      	cmp	r3, #0
 800263a:	d100      	bne.n	800263e <HAL_RCC_OscConfig+0x496>
 800263c:	e0b0      	b.n	80027a0 <HAL_RCC_OscConfig+0x5f8>
 800263e:	4b5b      	ldr	r3, [pc, #364]	@ (80027ac <HAL_RCC_OscConfig+0x604>)
 8002640:	689b      	ldr	r3, [r3, #8]
 8002642:	2238      	movs	r2, #56	@ 0x38
 8002644:	4013      	ands	r3, r2
 8002646:	2b10      	cmp	r3, #16
 8002648:	d100      	bne.n	800264c <HAL_RCC_OscConfig+0x4a4>
 800264a:	e078      	b.n	800273e <HAL_RCC_OscConfig+0x596>
 800264c:	687b      	ldr	r3, [r7, #4]
 800264e:	69db      	ldr	r3, [r3, #28]
 8002650:	2b02      	cmp	r3, #2
 8002652:	d153      	bne.n	80026fc <HAL_RCC_OscConfig+0x554>
 8002654:	4b55      	ldr	r3, [pc, #340]	@ (80027ac <HAL_RCC_OscConfig+0x604>)
 8002656:	681a      	ldr	r2, [r3, #0]
 8002658:	4b54      	ldr	r3, [pc, #336]	@ (80027ac <HAL_RCC_OscConfig+0x604>)
 800265a:	4958      	ldr	r1, [pc, #352]	@ (80027bc <HAL_RCC_OscConfig+0x614>)
 800265c:	400a      	ands	r2, r1
 800265e:	601a      	str	r2, [r3, #0]
 8002660:	f7fe fdb0 	bl	80011c4 <HAL_GetTick>
 8002664:	0003      	movs	r3, r0
 8002666:	613b      	str	r3, [r7, #16]
 8002668:	e008      	b.n	800267c <HAL_RCC_OscConfig+0x4d4>
 800266a:	f7fe fdab 	bl	80011c4 <HAL_GetTick>
 800266e:	0002      	movs	r2, r0
 8002670:	693b      	ldr	r3, [r7, #16]
 8002672:	1ad3      	subs	r3, r2, r3
 8002674:	2b02      	cmp	r3, #2
 8002676:	d901      	bls.n	800267c <HAL_RCC_OscConfig+0x4d4>
 8002678:	2303      	movs	r3, #3
 800267a:	e092      	b.n	80027a2 <HAL_RCC_OscConfig+0x5fa>
 800267c:	4b4b      	ldr	r3, [pc, #300]	@ (80027ac <HAL_RCC_OscConfig+0x604>)
 800267e:	681a      	ldr	r2, [r3, #0]
 8002680:	2380      	movs	r3, #128	@ 0x80
 8002682:	049b      	lsls	r3, r3, #18
 8002684:	4013      	ands	r3, r2
 8002686:	d1f0      	bne.n	800266a <HAL_RCC_OscConfig+0x4c2>
 8002688:	4b48      	ldr	r3, [pc, #288]	@ (80027ac <HAL_RCC_OscConfig+0x604>)
 800268a:	68db      	ldr	r3, [r3, #12]
 800268c:	4a4c      	ldr	r2, [pc, #304]	@ (80027c0 <HAL_RCC_OscConfig+0x618>)
 800268e:	4013      	ands	r3, r2
 8002690:	0019      	movs	r1, r3
 8002692:	687b      	ldr	r3, [r7, #4]
 8002694:	6a1a      	ldr	r2, [r3, #32]
 8002696:	687b      	ldr	r3, [r7, #4]
 8002698:	6a5b      	ldr	r3, [r3, #36]	@ 0x24
 800269a:	431a      	orrs	r2, r3
 800269c:	687b      	ldr	r3, [r7, #4]
 800269e:	6a9b      	ldr	r3, [r3, #40]	@ 0x28
 80026a0:	021b      	lsls	r3, r3, #8
 80026a2:	431a      	orrs	r2, r3
 80026a4:	687b      	ldr	r3, [r7, #4]
 80026a6:	6adb      	ldr	r3, [r3, #44]	@ 0x2c
 80026a8:	431a      	orrs	r2, r3
 80026aa:	687b      	ldr	r3, [r7, #4]
 80026ac:	6b1b      	ldr	r3, [r3, #48]	@ 0x30
 80026ae:	431a      	orrs	r2, r3
 80026b0:	4b3e      	ldr	r3, [pc, #248]	@ (80027ac <HAL_RCC_OscConfig+0x604>)
 80026b2:	430a      	orrs	r2, r1
 80026b4:	60da      	str	r2, [r3, #12]
 80026b6:	4b3d      	ldr	r3, [pc, #244]	@ (80027ac <HAL_RCC_OscConfig+0x604>)
 80026b8:	681a      	ldr	r2, [r3, #0]
 80026ba:	4b3c      	ldr	r3, [pc, #240]	@ (80027ac <HAL_RCC_OscConfig+0x604>)
 80026bc:	2180      	movs	r1, #128	@ 0x80
 80026be:	0449      	lsls	r1, r1, #17
 80026c0:	430a      	orrs	r2, r1
 80026c2:	601a      	str	r2, [r3, #0]
 80026c4:	4b39      	ldr	r3, [pc, #228]	@ (80027ac <HAL_RCC_OscConfig+0x604>)
 80026c6:	68da      	ldr	r2, [r3, #12]
 80026c8:	4b38      	ldr	r3, [pc, #224]	@ (80027ac <HAL_RCC_OscConfig+0x604>)
 80026ca:	2180      	movs	r1, #128	@ 0x80
 80026cc:	0549      	lsls	r1, r1, #21
 80026ce:	430a      	orrs	r2, r1
 80026d0:	60da      	str	r2, [r3, #12]
 80026d2:	f7fe fd77 	bl	80011c4 <HAL_GetTick>
 80026d6:	0003      	movs	r3, r0
 80026d8:	613b      	str	r3, [r7, #16]
 80026da:	e008      	b.n	80026ee <HAL_RCC_OscConfig+0x546>
 80026dc:	f7fe fd72 	bl	80011c4 <HAL_GetTick>
 80026e0:	0002      	movs	r2, r0
 80026e2:	693b      	ldr	r3, [r7, #16]
 80026e4:	1ad3      	subs	r3, r2, r3
 80026e6:	2b02      	cmp	r3, #2
 80026e8:	d901      	bls.n	80026ee <HAL_RCC_OscConfig+0x546>
 80026ea:	2303      	movs	r3, #3
 80026ec:	e059      	b.n	80027a2 <HAL_RCC_OscConfig+0x5fa>
 80026ee:	4b2f      	ldr	r3, [pc, #188]	@ (80027ac <HAL_RCC_OscConfig+0x604>)
 80026f0:	681a      	ldr	r2, [r3, #0]
 80026f2:	2380      	movs	r3, #128	@ 0x80
 80026f4:	049b      	lsls	r3, r3, #18
 80026f6:	4013      	ands	r3, r2
 80026f8:	d0f0      	beq.n	80026dc <HAL_RCC_OscConfig+0x534>
 80026fa:	e051      	b.n	80027a0 <HAL_RCC_OscConfig+0x5f8>
 80026fc:	4b2b      	ldr	r3, [pc, #172]	@ (80027ac <HAL_RCC_OscConfig+0x604>)
 80026fe:	681a      	ldr	r2, [r3, #0]
 8002700:	4b2a      	ldr	r3, [pc, #168]	@ (80027ac <HAL_RCC_OscConfig+0x604>)
 8002702:	492e      	ldr	r1, [pc, #184]	@ (80027bc <HAL_RCC_OscConfig+0x614>)
 8002704:	400a      	ands	r2, r1
 8002706:	601a      	str	r2, [r3, #0]
 8002708:	f7fe fd5c 	bl	80011c4 <HAL_GetTick>
 800270c:	0003      	movs	r3, r0
 800270e:	613b      	str	r3, [r7, #16]
 8002710:	e008      	b.n	8002724 <HAL_RCC_OscConfig+0x57c>
 8002712:	f7fe fd57 	bl	80011c4 <HAL_GetTick>
 8002716:	0002      	movs	r2, r0
 8002718:	693b      	ldr	r3, [r7, #16]
 800271a:	1ad3      	subs	r3, r2, r3
 800271c:	2b02      	cmp	r3, #2
 800271e:	d901      	bls.n	8002724 <HAL_RCC_OscConfig+0x57c>
 8002720:	2303      	movs	r3, #3
 8002722:	e03e      	b.n	80027a2 <HAL_RCC_OscConfig+0x5fa>
 8002724:	4b21      	ldr	r3, [pc, #132]	@ (80027ac <HAL_RCC_OscConfig+0x604>)
 8002726:	681a      	ldr	r2, [r3, #0]
 8002728:	2380      	movs	r3, #128	@ 0x80
 800272a:	049b      	lsls	r3, r3, #18
 800272c:	4013      	ands	r3, r2
 800272e:	d1f0      	bne.n	8002712 <HAL_RCC_OscConfig+0x56a>
 8002730:	4b1e      	ldr	r3, [pc, #120]	@ (80027ac <HAL_RCC_OscConfig+0x604>)
 8002732:	68da      	ldr	r2, [r3, #12]
 8002734:	4b1d      	ldr	r3, [pc, #116]	@ (80027ac <HAL_RCC_OscConfig+0x604>)
 8002736:	4923      	ldr	r1, [pc, #140]	@ (80027c4 <HAL_RCC_OscConfig+0x61c>)
 8002738:	400a      	ands	r2, r1
 800273a:	60da      	str	r2, [r3, #12]
 800273c:	e030      	b.n	80027a0 <HAL_RCC_OscConfig+0x5f8>
 800273e:	687b      	ldr	r3, [r7, #4]
 8002740:	69db      	ldr	r3, [r3, #28]
 8002742:	2b01      	cmp	r3, #1
 8002744:	d101      	bne.n	800274a <HAL_RCC_OscConfig+0x5a2>
 8002746:	2301      	movs	r3, #1
 8002748:	e02b      	b.n	80027a2 <HAL_RCC_OscConfig+0x5fa>
 800274a:	4b18      	ldr	r3, [pc, #96]	@ (80027ac <HAL_RCC_OscConfig+0x604>)
 800274c:	68db      	ldr	r3, [r3, #12]
 800274e:	617b      	str	r3, [r7, #20]
 8002750:	697b      	ldr	r3, [r7, #20]
 8002752:	2203      	movs	r2, #3
 8002754:	401a      	ands	r2, r3
 8002756:	687b      	ldr	r3, [r7, #4]
 8002758:	6a1b      	ldr	r3, [r3, #32]
 800275a:	429a      	cmp	r2, r3
 800275c:	d11e      	bne.n	800279c <HAL_RCC_OscConfig+0x5f4>
 800275e:	697b      	ldr	r3, [r7, #20]
 8002760:	2270      	movs	r2, #112	@ 0x70
 8002762:	401a      	ands	r2, r3
 8002764:	687b      	ldr	r3, [r7, #4]
 8002766:	6a5b      	ldr	r3, [r3, #36]	@ 0x24
 8002768:	429a      	cmp	r2, r3
 800276a:	d117      	bne.n	800279c <HAL_RCC_OscConfig+0x5f4>
 800276c:	697a      	ldr	r2, [r7, #20]
 800276e:	23fe      	movs	r3, #254	@ 0xfe
 8002770:	01db      	lsls	r3, r3, #7
 8002772:	401a      	ands	r2, r3
 8002774:	687b      	ldr	r3, [r7, #4]
 8002776:	6a9b      	ldr	r3, [r3, #40]	@ 0x28
 8002778:	021b      	lsls	r3, r3, #8
 800277a:	429a      	cmp	r2, r3
 800277c:	d10e      	bne.n	800279c <HAL_RCC_OscConfig+0x5f4>
 800277e:	697a      	ldr	r2, [r7, #20]
 8002780:	23f8      	movs	r3, #248	@ 0xf8
 8002782:	039b      	lsls	r3, r3, #14
 8002784:	401a      	ands	r2, r3
 8002786:	687b      	ldr	r3, [r7, #4]
 8002788:	6adb      	ldr	r3, [r3, #44]	@ 0x2c
 800278a:	429a      	cmp	r2, r3
 800278c:	d106      	bne.n	800279c <HAL_RCC_OscConfig+0x5f4>
 800278e:	697b      	ldr	r3, [r7, #20]
 8002790:	0f5b      	lsrs	r3, r3, #29
 8002792:	075a      	lsls	r2, r3, #29
 8002794:	687b      	ldr	r3, [r7, #4]
 8002796:	6b1b      	ldr	r3, [r3, #48]	@ 0x30
 8002798:	429a      	cmp	r2, r3
 800279a:	d001      	beq.n	80027a0 <HAL_RCC_OscConfig+0x5f8>
 800279c:	2301      	movs	r3, #1
 800279e:	e000      	b.n	80027a2 <HAL_RCC_OscConfig+0x5fa>
 80027a0:	2300      	movs	r3, #0
 80027a2:	0018      	movs	r0, r3
 80027a4:	46bd      	mov	sp, r7
 80027a6:	b008      	add	sp, #32
 80027a8:	bd80      	pop	{r7, pc}
 80027aa:	46c0      	nop			@ (mov r8, r8)
 80027ac:	40021000 	.word	0x40021000
 80027b0:	40007000 	.word	0x40007000
 80027b4:	00001388 	.word	0x00001388
 80027b8:	efffffff 	.word	0xefffffff
 80027bc:	feffffff 	.word	0xfeffffff
 80027c0:	1fc1808c 	.word	0x1fc1808c
 80027c4:	effefffc 	.word	0xeffefffc

080027c8 <HAL_RCC_ClockConfig>:
 80027c8:	b580      	push	{r7, lr}
 80027ca:	b084      	sub	sp, #16
 80027cc:	af00      	add	r7, sp, #0
 80027ce:	6078      	str	r0, [r7, #4]
 80027d0:	6039      	str	r1, [r7, #0]
 80027d2:	687b      	ldr	r3, [r7, #4]
 80027d4:	2b00      	cmp	r3, #0
 80027d6:	d101      	bne.n	80027dc <HAL_RCC_ClockConfig+0x14>
 80027d8:	2301      	movs	r3, #1
 80027da:	e0e9      	b.n	80029b0 <HAL_RCC_ClockConfig+0x1e8>
 80027dc:	4b76      	ldr	r3, [pc, #472]	@ (80029b8 <HAL_RCC_ClockConfig+0x1f0>)
 80027de:	681b      	ldr	r3, [r3, #0]
 80027e0:	2207      	movs	r2, #7
 80027e2:	4013      	ands	r3, r2
 80027e4:	683a      	ldr	r2, [r7, #0]
 80027e6:	429a      	cmp	r2, r3
 80027e8:	d91e      	bls.n	8002828 <HAL_RCC_ClockConfig+0x60>
 80027ea:	4b73      	ldr	r3, [pc, #460]	@ (80029b8 <HAL_RCC_ClockConfig+0x1f0>)
 80027ec:	681b      	ldr	r3, [r3, #0]
 80027ee:	2207      	movs	r2, #7
 80027f0:	4393      	bics	r3, r2
 80027f2:	0019      	movs	r1, r3
 80027f4:	4b70      	ldr	r3, [pc, #448]	@ (80029b8 <HAL_RCC_ClockConfig+0x1f0>)
 80027f6:	683a      	ldr	r2, [r7, #0]
 80027f8:	430a      	orrs	r2, r1
 80027fa:	601a      	str	r2, [r3, #0]
 80027fc:	f7fe fce2 	bl	80011c4 <HAL_GetTick>
 8002800:	0003      	movs	r3, r0
 8002802:	60fb      	str	r3, [r7, #12]
 8002804:	e009      	b.n	800281a <HAL_RCC_ClockConfig+0x52>
 8002806:	f7fe fcdd 	bl	80011c4 <HAL_GetTick>
 800280a:	0002      	movs	r2, r0
 800280c:	68fb      	ldr	r3, [r7, #12]
 800280e:	1ad3      	subs	r3, r2, r3
 8002810:	4a6a      	ldr	r2, [pc, #424]	@ (80029bc <HAL_RCC_ClockConfig+0x1f4>)
 8002812:	4293      	cmp	r3, r2
 8002814:	d901      	bls.n	800281a <HAL_RCC_ClockConfig+0x52>
 8002816:	2303      	movs	r3, #3
 8002818:	e0ca      	b.n	80029b0 <HAL_RCC_ClockConfig+0x1e8>
 800281a:	4b67      	ldr	r3, [pc, #412]	@ (80029b8 <HAL_RCC_ClockConfig+0x1f0>)
 800281c:	681b      	ldr	r3, [r3, #0]
 800281e:	2207      	movs	r2, #7
 8002820:	4013      	ands	r3, r2
 8002822:	683a      	ldr	r2, [r7, #0]
 8002824:	429a      	cmp	r2, r3
 8002826:	d1ee      	bne.n	8002806 <HAL_RCC_ClockConfig+0x3e>
 8002828:	687b      	ldr	r3, [r7, #4]
 800282a:	681b      	ldr	r3, [r3, #0]
 800282c:	2202      	movs	r2, #2
 800282e:	4013      	ands	r3, r2
 8002830:	d015      	beq.n	800285e <HAL_RCC_ClockConfig+0x96>
 8002832:	687b      	ldr	r3, [r7, #4]
 8002834:	681b      	ldr	r3, [r3, #0]
 8002836:	2204      	movs	r2, #4
 8002838:	4013      	ands	r3, r2
 800283a:	d006      	beq.n	800284a <HAL_RCC_ClockConfig+0x82>
 800283c:	4b60      	ldr	r3, [pc, #384]	@ (80029c0 <HAL_RCC_ClockConfig+0x1f8>)
 800283e:	689a      	ldr	r2, [r3, #8]
 8002840:	4b5f      	ldr	r3, [pc, #380]	@ (80029c0 <HAL_RCC_ClockConfig+0x1f8>)
 8002842:	21e0      	movs	r1, #224	@ 0xe0
 8002844:	01c9      	lsls	r1, r1, #7
 8002846:	430a      	orrs	r2, r1
 8002848:	609a      	str	r2, [r3, #8]
 800284a:	4b5d      	ldr	r3, [pc, #372]	@ (80029c0 <HAL_RCC_ClockConfig+0x1f8>)
 800284c:	689b      	ldr	r3, [r3, #8]
 800284e:	4a5d      	ldr	r2, [pc, #372]	@ (80029c4 <HAL_RCC_ClockConfig+0x1fc>)
 8002850:	4013      	ands	r3, r2
 8002852:	0019      	movs	r1, r3
 8002854:	687b      	ldr	r3, [r7, #4]
 8002856:	689a      	ldr	r2, [r3, #8]
 8002858:	4b59      	ldr	r3, [pc, #356]	@ (80029c0 <HAL_RCC_ClockConfig+0x1f8>)
 800285a:	430a      	orrs	r2, r1
 800285c:	609a      	str	r2, [r3, #8]
 800285e:	687b      	ldr	r3, [r7, #4]
 8002860:	681b      	ldr	r3, [r3, #0]
 8002862:	2201      	movs	r2, #1
 8002864:	4013      	ands	r3, r2
 8002866:	d057      	beq.n	8002918 <HAL_RCC_ClockConfig+0x150>
 8002868:	687b      	ldr	r3, [r7, #4]
 800286a:	685b      	ldr	r3, [r3, #4]
 800286c:	2b01      	cmp	r3, #1
 800286e:	d107      	bne.n	8002880 <HAL_RCC_ClockConfig+0xb8>
 8002870:	4b53      	ldr	r3, [pc, #332]	@ (80029c0 <HAL_RCC_ClockConfig+0x1f8>)
 8002872:	681a      	ldr	r2, [r3, #0]
 8002874:	2380      	movs	r3, #128	@ 0x80
 8002876:	029b      	lsls	r3, r3, #10
 8002878:	4013      	ands	r3, r2
 800287a:	d12b      	bne.n	80028d4 <HAL_RCC_ClockConfig+0x10c>
 800287c:	2301      	movs	r3, #1
 800287e:	e097      	b.n	80029b0 <HAL_RCC_ClockConfig+0x1e8>
 8002880:	687b      	ldr	r3, [r7, #4]
 8002882:	685b      	ldr	r3, [r3, #4]
 8002884:	2b02      	cmp	r3, #2
 8002886:	d107      	bne.n	8002898 <HAL_RCC_ClockConfig+0xd0>
 8002888:	4b4d      	ldr	r3, [pc, #308]	@ (80029c0 <HAL_RCC_ClockConfig+0x1f8>)
 800288a:	681a      	ldr	r2, [r3, #0]
 800288c:	2380      	movs	r3, #128	@ 0x80
 800288e:	049b      	lsls	r3, r3, #18
 8002890:	4013      	ands	r3, r2
 8002892:	d11f      	bne.n	80028d4 <HAL_RCC_ClockConfig+0x10c>
 8002894:	2301      	movs	r3, #1
 8002896:	e08b      	b.n	80029b0 <HAL_RCC_ClockConfig+0x1e8>
 8002898:	687b      	ldr	r3, [r7, #4]
 800289a:	685b      	ldr	r3, [r3, #4]
 800289c:	2b00      	cmp	r3, #0
 800289e:	d107      	bne.n	80028b0 <HAL_RCC_ClockConfig+0xe8>
 80028a0:	4b47      	ldr	r3, [pc, #284]	@ (80029c0 <HAL_RCC_ClockConfig+0x1f8>)
 80028a2:	681a      	ldr	r2, [r3, #0]
 80028a4:	2380      	movs	r3, #128	@ 0x80
 80028a6:	00db      	lsls	r3, r3, #3
 80028a8:	4013      	ands	r3, r2
 80028aa:	d113      	bne.n	80028d4 <HAL_RCC_ClockConfig+0x10c>
 80028ac:	2301      	movs	r3, #1
 80028ae:	e07f      	b.n	80029b0 <HAL_RCC_ClockConfig+0x1e8>
 80028b0:	687b      	ldr	r3, [r7, #4]
 80028b2:	685b      	ldr	r3, [r3, #4]
 80028b4:	2b03      	cmp	r3, #3
 80028b6:	d106      	bne.n	80028c6 <HAL_RCC_ClockConfig+0xfe>
 80028b8:	4b41      	ldr	r3, [pc, #260]	@ (80029c0 <HAL_RCC_ClockConfig+0x1f8>)
 80028ba:	6e1b      	ldr	r3, [r3, #96]	@ 0x60
 80028bc:	2202      	movs	r2, #2
 80028be:	4013      	ands	r3, r2
 80028c0:	d108      	bne.n	80028d4 <HAL_RCC_ClockConfig+0x10c>
 80028c2:	2301      	movs	r3, #1
 80028c4:	e074      	b.n	80029b0 <HAL_RCC_ClockConfig+0x1e8>
 80028c6:	4b3e      	ldr	r3, [pc, #248]	@ (80029c0 <HAL_RCC_ClockConfig+0x1f8>)
 80028c8:	6ddb      	ldr	r3, [r3, #92]	@ 0x5c
 80028ca:	2202      	movs	r2, #2
 80028cc:	4013      	ands	r3, r2
 80028ce:	d101      	bne.n	80028d4 <HAL_RCC_ClockConfig+0x10c>
 80028d0:	2301      	movs	r3, #1
 80028d2:	e06d      	b.n	80029b0 <HAL_RCC_ClockConfig+0x1e8>
 80028d4:	4b3a      	ldr	r3, [pc, #232]	@ (80029c0 <HAL_RCC_ClockConfig+0x1f8>)
 80028d6:	689b      	ldr	r3, [r3, #8]
 80028d8:	2207      	movs	r2, #7
 80028da:	4393      	bics	r3, r2
 80028dc:	0019      	movs	r1, r3
 80028de:	687b      	ldr	r3, [r7, #4]
 80028e0:	685a      	ldr	r2, [r3, #4]
 80028e2:	4b37      	ldr	r3, [pc, #220]	@ (80029c0 <HAL_RCC_ClockConfig+0x1f8>)
 80028e4:	430a      	orrs	r2, r1
 80028e6:	609a      	str	r2, [r3, #8]
 80028e8:	f7fe fc6c 	bl	80011c4 <HAL_GetTick>
 80028ec:	0003      	movs	r3, r0
 80028ee:	60fb      	str	r3, [r7, #12]
 80028f0:	e009      	b.n	8002906 <HAL_RCC_ClockConfig+0x13e>
 80028f2:	f7fe fc67 	bl	80011c4 <HAL_GetTick>
 80028f6:	0002      	movs	r2, r0
 80028f8:	68fb      	ldr	r3, [r7, #12]
 80028fa:	1ad3      	subs	r3, r2, r3
 80028fc:	4a2f      	ldr	r2, [pc, #188]	@ (80029bc <HAL_RCC_ClockConfig+0x1f4>)
 80028fe:	4293      	cmp	r3, r2
 8002900:	d901      	bls.n	8002906 <HAL_RCC_ClockConfig+0x13e>
 8002902:	2303      	movs	r3, #3
 8002904:	e054      	b.n	80029b0 <HAL_RCC_ClockConfig+0x1e8>
 8002906:	4b2e      	ldr	r3, [pc, #184]	@ (80029c0 <HAL_RCC_ClockConfig+0x1f8>)
 8002908:	689b      	ldr	r3, [r3, #8]
 800290a:	2238      	movs	r2, #56	@ 0x38
 800290c:	401a      	ands	r2, r3
 800290e:	687b      	ldr	r3, [r7, #4]
 8002910:	685b      	ldr	r3, [r3, #4]
 8002912:	00db      	lsls	r3, r3, #3
 8002914:	429a      	cmp	r2, r3
 8002916:	d1ec      	bne.n	80028f2 <HAL_RCC_ClockConfig+0x12a>
 8002918:	4b27      	ldr	r3, [pc, #156]	@ (80029b8 <HAL_RCC_ClockConfig+0x1f0>)
 800291a:	681b      	ldr	r3, [r3, #0]
 800291c:	2207      	movs	r2, #7
 800291e:	4013      	ands	r3, r2
 8002920:	683a      	ldr	r2, [r7, #0]
 8002922:	429a      	cmp	r2, r3
 8002924:	d21e      	bcs.n	8002964 <HAL_RCC_ClockConfig+0x19c>
 8002926:	4b24      	ldr	r3, [pc, #144]	@ (80029b8 <HAL_RCC_ClockConfig+0x1f0>)
 8002928:	681b      	ldr	r3, [r3, #0]
 800292a:	2207      	movs	r2, #7
 800292c:	4393      	bics	r3, r2
 800292e:	0019      	movs	r1, r3
 8002930:	4b21      	ldr	r3, [pc, #132]	@ (80029b8 <HAL_RCC_ClockConfig+0x1f0>)
 8002932:	683a      	ldr	r2, [r7, #0]
 8002934:	430a      	orrs	r2, r1
 8002936:	601a      	str	r2, [r3, #0]
 8002938:	f7fe fc44 	bl	80011c4 <HAL_GetTick>
 800293c:	0003      	movs	r3, r0
 800293e:	60fb      	str	r3, [r7, #12]
 8002940:	e009      	b.n	8002956 <HAL_RCC_ClockConfig+0x18e>
 8002942:	f7fe fc3f 	bl	80011c4 <HAL_GetTick>
 8002946:	0002      	movs	r2, r0
 8002948:	68fb      	ldr	r3, [r7, #12]
 800294a:	1ad3      	subs	r3, r2, r3
 800294c:	4a1b      	ldr	r2, [pc, #108]	@ (80029bc <HAL_RCC_ClockConfig+0x1f4>)
 800294e:	4293      	cmp	r3, r2
 8002950:	d901      	bls.n	8002956 <HAL_RCC_ClockConfig+0x18e>
 8002952:	2303      	movs	r3, #3
 8002954:	e02c      	b.n	80029b0 <HAL_RCC_ClockConfig+0x1e8>
 8002956:	4b18      	ldr	r3, [pc, #96]	@ (80029b8 <HAL_RCC_ClockConfig+0x1f0>)
 8002958:	681b      	ldr	r3, [r3, #0]
 800295a:	2207      	movs	r2, #7
 800295c:	4013      	ands	r3, r2
 800295e:	683a      	ldr	r2, [r7, #0]
 8002960:	429a      	cmp	r2, r3
 8002962:	d1ee      	bne.n	8002942 <HAL_RCC_ClockConfig+0x17a>
 8002964:	687b      	ldr	r3, [r7, #4]
 8002966:	681b      	ldr	r3, [r3, #0]
 8002968:	2204      	movs	r2, #4
 800296a:	4013      	ands	r3, r2
 800296c:	d009      	beq.n	8002982 <HAL_RCC_ClockConfig+0x1ba>
 800296e:	4b14      	ldr	r3, [pc, #80]	@ (80029c0 <HAL_RCC_ClockConfig+0x1f8>)
 8002970:	689b      	ldr	r3, [r3, #8]
 8002972:	4a15      	ldr	r2, [pc, #84]	@ (80029c8 <HAL_RCC_ClockConfig+0x200>)
 8002974:	4013      	ands	r3, r2
 8002976:	0019      	movs	r1, r3
 8002978:	687b      	ldr	r3, [r7, #4]
 800297a:	68da      	ldr	r2, [r3, #12]
 800297c:	4b10      	ldr	r3, [pc, #64]	@ (80029c0 <HAL_RCC_ClockConfig+0x1f8>)
 800297e:	430a      	orrs	r2, r1
 8002980:	609a      	str	r2, [r3, #8]
 8002982:	f000 f829 	bl	80029d8 <HAL_RCC_GetSysClockFreq>
 8002986:	0001      	movs	r1, r0
 8002988:	4b0d      	ldr	r3, [pc, #52]	@ (80029c0 <HAL_RCC_ClockConfig+0x1f8>)
 800298a:	689b      	ldr	r3, [r3, #8]
 800298c:	0a1b      	lsrs	r3, r3, #8
 800298e:	220f      	movs	r2, #15
 8002990:	401a      	ands	r2, r3
 8002992:	4b0e      	ldr	r3, [pc, #56]	@ (80029cc <HAL_RCC_ClockConfig+0x204>)
 8002994:	0092      	lsls	r2, r2, #2
 8002996:	58d3      	ldr	r3, [r2, r3]
 8002998:	221f      	movs	r2, #31
 800299a:	4013      	ands	r3, r2
 800299c:	000a      	movs	r2, r1
 800299e:	40da      	lsrs	r2, r3
 80029a0:	4b0b      	ldr	r3, [pc, #44]	@ (80029d0 <HAL_RCC_ClockConfig+0x208>)
 80029a2:	601a      	str	r2, [r3, #0]
 80029a4:	4b0b      	ldr	r3, [pc, #44]	@ (80029d4 <HAL_RCC_ClockConfig+0x20c>)
 80029a6:	681b      	ldr	r3, [r3, #0]
 80029a8:	0018      	movs	r0, r3
 80029aa:	f7fe fbaf 	bl	800110c <HAL_InitTick>
 80029ae:	0003      	movs	r3, r0
 80029b0:	0018      	movs	r0, r3
 80029b2:	46bd      	mov	sp, r7
 80029b4:	b004      	add	sp, #16
 80029b6:	bd80      	pop	{r7, pc}
 80029b8:	40022000 	.word	0x40022000
 80029bc:	00001388 	.word	0x00001388
 80029c0:	40021000 	.word	0x40021000
 80029c4:	fffff0ff 	.word	0xfffff0ff
 80029c8:	ffff8fff 	.word	0xffff8fff
 80029cc:	08005e58 	.word	0x08005e58
 80029d0:	20000014 	.word	0x20000014
 80029d4:	20000018 	.word	0x20000018

080029d8 <HAL_RCC_GetSysClockFreq>:
 80029d8:	b580      	push	{r7, lr}
 80029da:	b086      	sub	sp, #24
 80029dc:	af00      	add	r7, sp, #0
 80029de:	4b3c      	ldr	r3, [pc, #240]	@ (8002ad0 <HAL_RCC_GetSysClockFreq+0xf8>)
 80029e0:	689b      	ldr	r3, [r3, #8]
 80029e2:	2238      	movs	r2, #56	@ 0x38
 80029e4:	4013      	ands	r3, r2
 80029e6:	d10f      	bne.n	8002a08 <HAL_RCC_GetSysClockFreq+0x30>
 80029e8:	4b39      	ldr	r3, [pc, #228]	@ (8002ad0 <HAL_RCC_GetSysClockFreq+0xf8>)
 80029ea:	681b      	ldr	r3, [r3, #0]
 80029ec:	0adb      	lsrs	r3, r3, #11
 80029ee:	2207      	movs	r2, #7
 80029f0:	4013      	ands	r3, r2
 80029f2:	2201      	movs	r2, #1
 80029f4:	409a      	lsls	r2, r3
 80029f6:	0013      	movs	r3, r2
 80029f8:	603b      	str	r3, [r7, #0]
 80029fa:	6839      	ldr	r1, [r7, #0]
 80029fc:	4835      	ldr	r0, [pc, #212]	@ (8002ad4 <HAL_RCC_GetSysClockFreq+0xfc>)
 80029fe:	f7fd fb7f 	bl	8000100 <__udivsi3>
 8002a02:	0003      	movs	r3, r0
 8002a04:	613b      	str	r3, [r7, #16]
 8002a06:	e05d      	b.n	8002ac4 <HAL_RCC_GetSysClockFreq+0xec>
 8002a08:	4b31      	ldr	r3, [pc, #196]	@ (8002ad0 <HAL_RCC_GetSysClockFreq+0xf8>)
 8002a0a:	689b      	ldr	r3, [r3, #8]
 8002a0c:	2238      	movs	r2, #56	@ 0x38
 8002a0e:	4013      	ands	r3, r2
 8002a10:	2b08      	cmp	r3, #8
 8002a12:	d102      	bne.n	8002a1a <HAL_RCC_GetSysClockFreq+0x42>
 8002a14:	4b30      	ldr	r3, [pc, #192]	@ (8002ad8 <HAL_RCC_GetSysClockFreq+0x100>)
 8002a16:	613b      	str	r3, [r7, #16]
 8002a18:	e054      	b.n	8002ac4 <HAL_RCC_GetSysClockFreq+0xec>
 8002a1a:	4b2d      	ldr	r3, [pc, #180]	@ (8002ad0 <HAL_RCC_GetSysClockFreq+0xf8>)
 8002a1c:	689b      	ldr	r3, [r3, #8]
 8002a1e:	2238      	movs	r2, #56	@ 0x38
 8002a20:	4013      	ands	r3, r2
 8002a22:	2b10      	cmp	r3, #16
 8002a24:	d138      	bne.n	8002a98 <HAL_RCC_GetSysClockFreq+0xc0>
 8002a26:	4b2a      	ldr	r3, [pc, #168]	@ (8002ad0 <HAL_RCC_GetSysClockFreq+0xf8>)
 8002a28:	68db      	ldr	r3, [r3, #12]
 8002a2a:	2203      	movs	r2, #3
 8002a2c:	4013      	ands	r3, r2
 8002a2e:	60fb      	str	r3, [r7, #12]
 8002a30:	4b27      	ldr	r3, [pc, #156]	@ (8002ad0 <HAL_RCC_GetSysClockFreq+0xf8>)
 8002a32:	68db      	ldr	r3, [r3, #12]
 8002a34:	091b      	lsrs	r3, r3, #4
 8002a36:	2207      	movs	r2, #7
 8002a38:	4013      	ands	r3, r2
 8002a3a:	3301      	adds	r3, #1
 8002a3c:	60bb      	str	r3, [r7, #8]
 8002a3e:	68fb      	ldr	r3, [r7, #12]
 8002a40:	2b03      	cmp	r3, #3
 8002a42:	d10d      	bne.n	8002a60 <HAL_RCC_GetSysClockFreq+0x88>
 8002a44:	68b9      	ldr	r1, [r7, #8]
 8002a46:	4824      	ldr	r0, [pc, #144]	@ (8002ad8 <HAL_RCC_GetSysClockFreq+0x100>)
 8002a48:	f7fd fb5a 	bl	8000100 <__udivsi3>
 8002a4c:	0003      	movs	r3, r0
 8002a4e:	0019      	movs	r1, r3
 8002a50:	4b1f      	ldr	r3, [pc, #124]	@ (8002ad0 <HAL_RCC_GetSysClockFreq+0xf8>)
 8002a52:	68db      	ldr	r3, [r3, #12]
 8002a54:	0a1b      	lsrs	r3, r3, #8
 8002a56:	227f      	movs	r2, #127	@ 0x7f
 8002a58:	4013      	ands	r3, r2
 8002a5a:	434b      	muls	r3, r1
 8002a5c:	617b      	str	r3, [r7, #20]
 8002a5e:	e00d      	b.n	8002a7c <HAL_RCC_GetSysClockFreq+0xa4>
 8002a60:	68b9      	ldr	r1, [r7, #8]
 8002a62:	481c      	ldr	r0, [pc, #112]	@ (8002ad4 <HAL_RCC_GetSysClockFreq+0xfc>)
 8002a64:	f7fd fb4c 	bl	8000100 <__udivsi3>
 8002a68:	0003      	movs	r3, r0
 8002a6a:	0019      	movs	r1, r3
 8002a6c:	4b18      	ldr	r3, [pc, #96]	@ (8002ad0 <HAL_RCC_GetSysClockFreq+0xf8>)
 8002a6e:	68db      	ldr	r3, [r3, #12]
 8002a70:	0a1b      	lsrs	r3, r3, #8
 8002a72:	227f      	movs	r2, #127	@ 0x7f
 8002a74:	4013      	ands	r3, r2
 8002a76:	434b      	muls	r3, r1
 8002a78:	617b      	str	r3, [r7, #20]
 8002a7a:	46c0      	nop			@ (mov r8, r8)
 8002a7c:	4b14      	ldr	r3, [pc, #80]	@ (8002ad0 <HAL_RCC_GetSysClockFreq+0xf8>)
 8002a7e:	68db      	ldr	r3, [r3, #12]
 8002a80:	0f5b      	lsrs	r3, r3, #29
 8002a82:	2207      	movs	r2, #7
 8002a84:	4013      	ands	r3, r2
 8002a86:	3301      	adds	r3, #1
 8002a88:	607b      	str	r3, [r7, #4]
 8002a8a:	6879      	ldr	r1, [r7, #4]
 8002a8c:	6978      	ldr	r0, [r7, #20]
 8002a8e:	f7fd fb37 	bl	8000100 <__udivsi3>
 8002a92:	0003      	movs	r3, r0
 8002a94:	613b      	str	r3, [r7, #16]
 8002a96:	e015      	b.n	8002ac4 <HAL_RCC_GetSysClockFreq+0xec>
 8002a98:	4b0d      	ldr	r3, [pc, #52]	@ (8002ad0 <HAL_RCC_GetSysClockFreq+0xf8>)
 8002a9a:	689b      	ldr	r3, [r3, #8]
 8002a9c:	2238      	movs	r2, #56	@ 0x38
 8002a9e:	4013      	ands	r3, r2
 8002aa0:	2b20      	cmp	r3, #32
 8002aa2:	d103      	bne.n	8002aac <HAL_RCC_GetSysClockFreq+0xd4>
 8002aa4:	2380      	movs	r3, #128	@ 0x80
 8002aa6:	021b      	lsls	r3, r3, #8
 8002aa8:	613b      	str	r3, [r7, #16]
 8002aaa:	e00b      	b.n	8002ac4 <HAL_RCC_GetSysClockFreq+0xec>
 8002aac:	4b08      	ldr	r3, [pc, #32]	@ (8002ad0 <HAL_RCC_GetSysClockFreq+0xf8>)
 8002aae:	689b      	ldr	r3, [r3, #8]
 8002ab0:	2238      	movs	r2, #56	@ 0x38
 8002ab2:	4013      	ands	r3, r2
 8002ab4:	2b18      	cmp	r3, #24
 8002ab6:	d103      	bne.n	8002ac0 <HAL_RCC_GetSysClockFreq+0xe8>
 8002ab8:	23fa      	movs	r3, #250	@ 0xfa
 8002aba:	01db      	lsls	r3, r3, #7
 8002abc:	613b      	str	r3, [r7, #16]
 8002abe:	e001      	b.n	8002ac4 <HAL_RCC_GetSysClockFreq+0xec>
 8002ac0:	2300      	movs	r3, #0
 8002ac2:	613b      	str	r3, [r7, #16]
 8002ac4:	693b      	ldr	r3, [r7, #16]
 8002ac6:	0018      	movs	r0, r3
 8002ac8:	46bd      	mov	sp, r7
 8002aca:	b006      	add	sp, #24
 8002acc:	bd80      	pop	{r7, pc}
 8002ace:	46c0      	nop			@ (mov r8, r8)
 8002ad0:	40021000 	.word	0x40021000
 8002ad4:	00f42400 	.word	0x00f42400
 8002ad8:	007a1200 	.word	0x007a1200

08002adc <HAL_RCCEx_PeriphCLKConfig>:
 8002adc:	b580      	push	{r7, lr}
 8002ade:	b086      	sub	sp, #24
 8002ae0:	af00      	add	r7, sp, #0
 8002ae2:	6078      	str	r0, [r7, #4]
 8002ae4:	2313      	movs	r3, #19
 8002ae6:	18fb      	adds	r3, r7, r3
 8002ae8:	2200      	movs	r2, #0
 8002aea:	701a      	strb	r2, [r3, #0]
 8002aec:	2312      	movs	r3, #18
 8002aee:	18fb      	adds	r3, r7, r3
 8002af0:	2200      	movs	r2, #0
 8002af2:	701a      	strb	r2, [r3, #0]
 8002af4:	687b      	ldr	r3, [r7, #4]
 8002af6:	681a      	ldr	r2, [r3, #0]
 8002af8:	2380      	movs	r3, #128	@ 0x80
 8002afa:	029b      	lsls	r3, r3, #10
 8002afc:	4013      	ands	r3, r2
 8002afe:	d100      	bne.n	8002b02 <HAL_RCCEx_PeriphCLKConfig+0x26>
 8002b00:	e0a3      	b.n	8002c4a <HAL_RCCEx_PeriphCLKConfig+0x16e>
 8002b02:	2011      	movs	r0, #17
 8002b04:	183b      	adds	r3, r7, r0
 8002b06:	2200      	movs	r2, #0
 8002b08:	701a      	strb	r2, [r3, #0]
 8002b0a:	4b7f      	ldr	r3, [pc, #508]	@ (8002d08 <HAL_RCCEx_PeriphCLKConfig+0x22c>)
 8002b0c:	6bda      	ldr	r2, [r3, #60]	@ 0x3c
 8002b0e:	2380      	movs	r3, #128	@ 0x80
 8002b10:	055b      	lsls	r3, r3, #21
 8002b12:	4013      	ands	r3, r2
 8002b14:	d110      	bne.n	8002b38 <HAL_RCCEx_PeriphCLKConfig+0x5c>
 8002b16:	4b7c      	ldr	r3, [pc, #496]	@ (8002d08 <HAL_RCCEx_PeriphCLKConfig+0x22c>)
 8002b18:	6bda      	ldr	r2, [r3, #60]	@ 0x3c
 8002b1a:	4b7b      	ldr	r3, [pc, #492]	@ (8002d08 <HAL_RCCEx_PeriphCLKConfig+0x22c>)
 8002b1c:	2180      	movs	r1, #128	@ 0x80
 8002b1e:	0549      	lsls	r1, r1, #21
 8002b20:	430a      	orrs	r2, r1
 8002b22:	63da      	str	r2, [r3, #60]	@ 0x3c
 8002b24:	4b78      	ldr	r3, [pc, #480]	@ (8002d08 <HAL_RCCEx_PeriphCLKConfig+0x22c>)
 8002b26:	6bda      	ldr	r2, [r3, #60]	@ 0x3c
 8002b28:	2380      	movs	r3, #128	@ 0x80
 8002b2a:	055b      	lsls	r3, r3, #21
 8002b2c:	4013      	ands	r3, r2
 8002b2e:	60bb      	str	r3, [r7, #8]
 8002b30:	68bb      	ldr	r3, [r7, #8]
 8002b32:	183b      	adds	r3, r7, r0
 8002b34:	2201      	movs	r2, #1
 8002b36:	701a      	strb	r2, [r3, #0]
 8002b38:	4b74      	ldr	r3, [pc, #464]	@ (8002d0c <HAL_RCCEx_PeriphCLKConfig+0x230>)
 8002b3a:	681a      	ldr	r2, [r3, #0]
 8002b3c:	4b73      	ldr	r3, [pc, #460]	@ (8002d0c <HAL_RCCEx_PeriphCLKConfig+0x230>)
 8002b3e:	2180      	movs	r1, #128	@ 0x80
 8002b40:	0049      	lsls	r1, r1, #1
 8002b42:	430a      	orrs	r2, r1
 8002b44:	601a      	str	r2, [r3, #0]
 8002b46:	f7fe fb3d 	bl	80011c4 <HAL_GetTick>
 8002b4a:	0003      	movs	r3, r0
 8002b4c:	60fb      	str	r3, [r7, #12]
 8002b4e:	e00b      	b.n	8002b68 <HAL_RCCEx_PeriphCLKConfig+0x8c>
 8002b50:	f7fe fb38 	bl	80011c4 <HAL_GetTick>
 8002b54:	0002      	movs	r2, r0
 8002b56:	68fb      	ldr	r3, [r7, #12]
 8002b58:	1ad3      	subs	r3, r2, r3
 8002b5a:	2b02      	cmp	r3, #2
 8002b5c:	d904      	bls.n	8002b68 <HAL_RCCEx_PeriphCLKConfig+0x8c>
 8002b5e:	2313      	movs	r3, #19
 8002b60:	18fb      	adds	r3, r7, r3
 8002b62:	2203      	movs	r2, #3
 8002b64:	701a      	strb	r2, [r3, #0]
 8002b66:	e005      	b.n	8002b74 <HAL_RCCEx_PeriphCLKConfig+0x98>
 8002b68:	4b68      	ldr	r3, [pc, #416]	@ (8002d0c <HAL_RCCEx_PeriphCLKConfig+0x230>)
 8002b6a:	681a      	ldr	r2, [r3, #0]
 8002b6c:	2380      	movs	r3, #128	@ 0x80
 8002b6e:	005b      	lsls	r3, r3, #1
 8002b70:	4013      	ands	r3, r2
 8002b72:	d0ed      	beq.n	8002b50 <HAL_RCCEx_PeriphCLKConfig+0x74>
 8002b74:	2313      	movs	r3, #19
 8002b76:	18fb      	adds	r3, r7, r3
 8002b78:	781b      	ldrb	r3, [r3, #0]
 8002b7a:	2b00      	cmp	r3, #0
 8002b7c:	d154      	bne.n	8002c28 <HAL_RCCEx_PeriphCLKConfig+0x14c>
 8002b7e:	4b62      	ldr	r3, [pc, #392]	@ (8002d08 <HAL_RCCEx_PeriphCLKConfig+0x22c>)
 8002b80:	6dda      	ldr	r2, [r3, #92]	@ 0x5c
 8002b82:	23c0      	movs	r3, #192	@ 0xc0
 8002b84:	009b      	lsls	r3, r3, #2
 8002b86:	4013      	ands	r3, r2
 8002b88:	617b      	str	r3, [r7, #20]
 8002b8a:	697b      	ldr	r3, [r7, #20]
 8002b8c:	2b00      	cmp	r3, #0
 8002b8e:	d019      	beq.n	8002bc4 <HAL_RCCEx_PeriphCLKConfig+0xe8>
 8002b90:	687b      	ldr	r3, [r7, #4]
 8002b92:	695b      	ldr	r3, [r3, #20]
 8002b94:	697a      	ldr	r2, [r7, #20]
 8002b96:	429a      	cmp	r2, r3
 8002b98:	d014      	beq.n	8002bc4 <HAL_RCCEx_PeriphCLKConfig+0xe8>
 8002b9a:	4b5b      	ldr	r3, [pc, #364]	@ (8002d08 <HAL_RCCEx_PeriphCLKConfig+0x22c>)
 8002b9c:	6ddb      	ldr	r3, [r3, #92]	@ 0x5c
 8002b9e:	4a5c      	ldr	r2, [pc, #368]	@ (8002d10 <HAL_RCCEx_PeriphCLKConfig+0x234>)
 8002ba0:	4013      	ands	r3, r2
 8002ba2:	617b      	str	r3, [r7, #20]
 8002ba4:	4b58      	ldr	r3, [pc, #352]	@ (8002d08 <HAL_RCCEx_PeriphCLKConfig+0x22c>)
 8002ba6:	6dda      	ldr	r2, [r3, #92]	@ 0x5c
 8002ba8:	4b57      	ldr	r3, [pc, #348]	@ (8002d08 <HAL_RCCEx_PeriphCLKConfig+0x22c>)
 8002baa:	2180      	movs	r1, #128	@ 0x80
 8002bac:	0249      	lsls	r1, r1, #9
 8002bae:	430a      	orrs	r2, r1
 8002bb0:	65da      	str	r2, [r3, #92]	@ 0x5c
 8002bb2:	4b55      	ldr	r3, [pc, #340]	@ (8002d08 <HAL_RCCEx_PeriphCLKConfig+0x22c>)
 8002bb4:	6dda      	ldr	r2, [r3, #92]	@ 0x5c
 8002bb6:	4b54      	ldr	r3, [pc, #336]	@ (8002d08 <HAL_RCCEx_PeriphCLKConfig+0x22c>)
 8002bb8:	4956      	ldr	r1, [pc, #344]	@ (8002d14 <HAL_RCCEx_PeriphCLKConfig+0x238>)
 8002bba:	400a      	ands	r2, r1
 8002bbc:	65da      	str	r2, [r3, #92]	@ 0x5c
 8002bbe:	4b52      	ldr	r3, [pc, #328]	@ (8002d08 <HAL_RCCEx_PeriphCLKConfig+0x22c>)
 8002bc0:	697a      	ldr	r2, [r7, #20]
 8002bc2:	65da      	str	r2, [r3, #92]	@ 0x5c
 8002bc4:	697b      	ldr	r3, [r7, #20]
 8002bc6:	2201      	movs	r2, #1
 8002bc8:	4013      	ands	r3, r2
 8002bca:	d016      	beq.n	8002bfa <HAL_RCCEx_PeriphCLKConfig+0x11e>
 8002bcc:	f7fe fafa 	bl	80011c4 <HAL_GetTick>
 8002bd0:	0003      	movs	r3, r0
 8002bd2:	60fb      	str	r3, [r7, #12]
 8002bd4:	e00c      	b.n	8002bf0 <HAL_RCCEx_PeriphCLKConfig+0x114>
 8002bd6:	f7fe faf5 	bl	80011c4 <HAL_GetTick>
 8002bda:	0002      	movs	r2, r0
 8002bdc:	68fb      	ldr	r3, [r7, #12]
 8002bde:	1ad3      	subs	r3, r2, r3
 8002be0:	4a4d      	ldr	r2, [pc, #308]	@ (8002d18 <HAL_RCCEx_PeriphCLKConfig+0x23c>)
 8002be2:	4293      	cmp	r3, r2
 8002be4:	d904      	bls.n	8002bf0 <HAL_RCCEx_PeriphCLKConfig+0x114>
 8002be6:	2313      	movs	r3, #19
 8002be8:	18fb      	adds	r3, r7, r3
 8002bea:	2203      	movs	r2, #3
 8002bec:	701a      	strb	r2, [r3, #0]
 8002bee:	e004      	b.n	8002bfa <HAL_RCCEx_PeriphCLKConfig+0x11e>
 8002bf0:	4b45      	ldr	r3, [pc, #276]	@ (8002d08 <HAL_RCCEx_PeriphCLKConfig+0x22c>)
 8002bf2:	6ddb      	ldr	r3, [r3, #92]	@ 0x5c
 8002bf4:	2202      	movs	r2, #2
 8002bf6:	4013      	ands	r3, r2
 8002bf8:	d0ed      	beq.n	8002bd6 <HAL_RCCEx_PeriphCLKConfig+0xfa>
 8002bfa:	2313      	movs	r3, #19
 8002bfc:	18fb      	adds	r3, r7, r3
 8002bfe:	781b      	ldrb	r3, [r3, #0]
 8002c00:	2b00      	cmp	r3, #0
 8002c02:	d10a      	bne.n	8002c1a <HAL_RCCEx_PeriphCLKConfig+0x13e>
 8002c04:	4b40      	ldr	r3, [pc, #256]	@ (8002d08 <HAL_RCCEx_PeriphCLKConfig+0x22c>)
 8002c06:	6ddb      	ldr	r3, [r3, #92]	@ 0x5c
 8002c08:	4a41      	ldr	r2, [pc, #260]	@ (8002d10 <HAL_RCCEx_PeriphCLKConfig+0x234>)
 8002c0a:	4013      	ands	r3, r2
 8002c0c:	0019      	movs	r1, r3
 8002c0e:	687b      	ldr	r3, [r7, #4]
 8002c10:	695a      	ldr	r2, [r3, #20]
 8002c12:	4b3d      	ldr	r3, [pc, #244]	@ (8002d08 <HAL_RCCEx_PeriphCLKConfig+0x22c>)
 8002c14:	430a      	orrs	r2, r1
 8002c16:	65da      	str	r2, [r3, #92]	@ 0x5c
 8002c18:	e00c      	b.n	8002c34 <HAL_RCCEx_PeriphCLKConfig+0x158>
 8002c1a:	2312      	movs	r3, #18
 8002c1c:	18fb      	adds	r3, r7, r3
 8002c1e:	2213      	movs	r2, #19
 8002c20:	18ba      	adds	r2, r7, r2
 8002c22:	7812      	ldrb	r2, [r2, #0]
 8002c24:	701a      	strb	r2, [r3, #0]
 8002c26:	e005      	b.n	8002c34 <HAL_RCCEx_PeriphCLKConfig+0x158>
 8002c28:	2312      	movs	r3, #18
 8002c2a:	18fb      	adds	r3, r7, r3
 8002c2c:	2213      	movs	r2, #19
 8002c2e:	18ba      	adds	r2, r7, r2
 8002c30:	7812      	ldrb	r2, [r2, #0]
 8002c32:	701a      	strb	r2, [r3, #0]
 8002c34:	2311      	movs	r3, #17
 8002c36:	18fb      	adds	r3, r7, r3
 8002c38:	781b      	ldrb	r3, [r3, #0]
 8002c3a:	2b01      	cmp	r3, #1
 8002c3c:	d105      	bne.n	8002c4a <HAL_RCCEx_PeriphCLKConfig+0x16e>
 8002c3e:	4b32      	ldr	r3, [pc, #200]	@ (8002d08 <HAL_RCCEx_PeriphCLKConfig+0x22c>)
 8002c40:	6bda      	ldr	r2, [r3, #60]	@ 0x3c
 8002c42:	4b31      	ldr	r3, [pc, #196]	@ (8002d08 <HAL_RCCEx_PeriphCLKConfig+0x22c>)
 8002c44:	4935      	ldr	r1, [pc, #212]	@ (8002d1c <HAL_RCCEx_PeriphCLKConfig+0x240>)
 8002c46:	400a      	ands	r2, r1
 8002c48:	63da      	str	r2, [r3, #60]	@ 0x3c
 8002c4a:	687b      	ldr	r3, [r7, #4]
 8002c4c:	681b      	ldr	r3, [r3, #0]
 8002c4e:	2201      	movs	r2, #1
 8002c50:	4013      	ands	r3, r2
 8002c52:	d009      	beq.n	8002c68 <HAL_RCCEx_PeriphCLKConfig+0x18c>
 8002c54:	4b2c      	ldr	r3, [pc, #176]	@ (8002d08 <HAL_RCCEx_PeriphCLKConfig+0x22c>)
 8002c56:	6d5b      	ldr	r3, [r3, #84]	@ 0x54
 8002c58:	2203      	movs	r2, #3
 8002c5a:	4393      	bics	r3, r2
 8002c5c:	0019      	movs	r1, r3
 8002c5e:	687b      	ldr	r3, [r7, #4]
 8002c60:	685a      	ldr	r2, [r3, #4]
 8002c62:	4b29      	ldr	r3, [pc, #164]	@ (8002d08 <HAL_RCCEx_PeriphCLKConfig+0x22c>)
 8002c64:	430a      	orrs	r2, r1
 8002c66:	655a      	str	r2, [r3, #84]	@ 0x54
 8002c68:	687b      	ldr	r3, [r7, #4]
 8002c6a:	681b      	ldr	r3, [r3, #0]
 8002c6c:	2220      	movs	r2, #32
 8002c6e:	4013      	ands	r3, r2
 8002c70:	d009      	beq.n	8002c86 <HAL_RCCEx_PeriphCLKConfig+0x1aa>
 8002c72:	4b25      	ldr	r3, [pc, #148]	@ (8002d08 <HAL_RCCEx_PeriphCLKConfig+0x22c>)
 8002c74:	6d5b      	ldr	r3, [r3, #84]	@ 0x54
 8002c76:	4a2a      	ldr	r2, [pc, #168]	@ (8002d20 <HAL_RCCEx_PeriphCLKConfig+0x244>)
 8002c78:	4013      	ands	r3, r2
 8002c7a:	0019      	movs	r1, r3
 8002c7c:	687b      	ldr	r3, [r7, #4]
 8002c7e:	689a      	ldr	r2, [r3, #8]
 8002c80:	4b21      	ldr	r3, [pc, #132]	@ (8002d08 <HAL_RCCEx_PeriphCLKConfig+0x22c>)
 8002c82:	430a      	orrs	r2, r1
 8002c84:	655a      	str	r2, [r3, #84]	@ 0x54
 8002c86:	687b      	ldr	r3, [r7, #4]
 8002c88:	681a      	ldr	r2, [r3, #0]
 8002c8a:	2380      	movs	r3, #128	@ 0x80
 8002c8c:	01db      	lsls	r3, r3, #7
 8002c8e:	4013      	ands	r3, r2
 8002c90:	d015      	beq.n	8002cbe <HAL_RCCEx_PeriphCLKConfig+0x1e2>
 8002c92:	4b1d      	ldr	r3, [pc, #116]	@ (8002d08 <HAL_RCCEx_PeriphCLKConfig+0x22c>)
 8002c94:	6d5b      	ldr	r3, [r3, #84]	@ 0x54
 8002c96:	009b      	lsls	r3, r3, #2
 8002c98:	0899      	lsrs	r1, r3, #2
 8002c9a:	687b      	ldr	r3, [r7, #4]
 8002c9c:	691a      	ldr	r2, [r3, #16]
 8002c9e:	4b1a      	ldr	r3, [pc, #104]	@ (8002d08 <HAL_RCCEx_PeriphCLKConfig+0x22c>)
 8002ca0:	430a      	orrs	r2, r1
 8002ca2:	655a      	str	r2, [r3, #84]	@ 0x54
 8002ca4:	687b      	ldr	r3, [r7, #4]
 8002ca6:	691a      	ldr	r2, [r3, #16]
 8002ca8:	2380      	movs	r3, #128	@ 0x80
 8002caa:	05db      	lsls	r3, r3, #23
 8002cac:	429a      	cmp	r2, r3
 8002cae:	d106      	bne.n	8002cbe <HAL_RCCEx_PeriphCLKConfig+0x1e2>
 8002cb0:	4b15      	ldr	r3, [pc, #84]	@ (8002d08 <HAL_RCCEx_PeriphCLKConfig+0x22c>)
 8002cb2:	68da      	ldr	r2, [r3, #12]
 8002cb4:	4b14      	ldr	r3, [pc, #80]	@ (8002d08 <HAL_RCCEx_PeriphCLKConfig+0x22c>)
 8002cb6:	2180      	movs	r1, #128	@ 0x80
 8002cb8:	0249      	lsls	r1, r1, #9
 8002cba:	430a      	orrs	r2, r1
 8002cbc:	60da      	str	r2, [r3, #12]
 8002cbe:	687b      	ldr	r3, [r7, #4]
 8002cc0:	681a      	ldr	r2, [r3, #0]
 8002cc2:	2380      	movs	r3, #128	@ 0x80
 8002cc4:	011b      	lsls	r3, r3, #4
 8002cc6:	4013      	ands	r3, r2
 8002cc8:	d016      	beq.n	8002cf8 <HAL_RCCEx_PeriphCLKConfig+0x21c>
 8002cca:	4b0f      	ldr	r3, [pc, #60]	@ (8002d08 <HAL_RCCEx_PeriphCLKConfig+0x22c>)
 8002ccc:	6d5b      	ldr	r3, [r3, #84]	@ 0x54
 8002cce:	4a15      	ldr	r2, [pc, #84]	@ (8002d24 <HAL_RCCEx_PeriphCLKConfig+0x248>)
 8002cd0:	4013      	ands	r3, r2
 8002cd2:	0019      	movs	r1, r3
 8002cd4:	687b      	ldr	r3, [r7, #4]
 8002cd6:	68da      	ldr	r2, [r3, #12]
 8002cd8:	4b0b      	ldr	r3, [pc, #44]	@ (8002d08 <HAL_RCCEx_PeriphCLKConfig+0x22c>)
 8002cda:	430a      	orrs	r2, r1
 8002cdc:	655a      	str	r2, [r3, #84]	@ 0x54
 8002cde:	687b      	ldr	r3, [r7, #4]
 8002ce0:	68da      	ldr	r2, [r3, #12]
 8002ce2:	2380      	movs	r3, #128	@ 0x80
 8002ce4:	01db      	lsls	r3, r3, #7
 8002ce6:	429a      	cmp	r2, r3
 8002ce8:	d106      	bne.n	8002cf8 <HAL_RCCEx_PeriphCLKConfig+0x21c>
 8002cea:	4b07      	ldr	r3, [pc, #28]	@ (8002d08 <HAL_RCCEx_PeriphCLKConfig+0x22c>)
 8002cec:	68da      	ldr	r2, [r3, #12]
 8002cee:	4b06      	ldr	r3, [pc, #24]	@ (8002d08 <HAL_RCCEx_PeriphCLKConfig+0x22c>)
 8002cf0:	2180      	movs	r1, #128	@ 0x80
 8002cf2:	0249      	lsls	r1, r1, #9
 8002cf4:	430a      	orrs	r2, r1
 8002cf6:	60da      	str	r2, [r3, #12]
 8002cf8:	2312      	movs	r3, #18
 8002cfa:	18fb      	adds	r3, r7, r3
 8002cfc:	781b      	ldrb	r3, [r3, #0]
 8002cfe:	0018      	movs	r0, r3
 8002d00:	46bd      	mov	sp, r7
 8002d02:	b006      	add	sp, #24
 8002d04:	bd80      	pop	{r7, pc}
 8002d06:	46c0      	nop			@ (mov r8, r8)
 8002d08:	40021000 	.word	0x40021000
 8002d0c:	40007000 	.word	0x40007000
 8002d10:	fffffcff 	.word	0xfffffcff
 8002d14:	fffeffff 	.word	0xfffeffff
 8002d18:	00001388 	.word	0x00001388
 8002d1c:	efffffff 	.word	0xefffffff
 8002d20:	ffffcfff 	.word	0xffffcfff
 8002d24:	ffff3fff 	.word	0xffff3fff

08002d28 <HAL_TIM_Base_Init>:
 8002d28:	b580      	push	{r7, lr}
 8002d2a:	b082      	sub	sp, #8
 8002d2c:	af00      	add	r7, sp, #0
 8002d2e:	6078      	str	r0, [r7, #4]
 8002d30:	687b      	ldr	r3, [r7, #4]
 8002d32:	2b00      	cmp	r3, #0
 8002d34:	d101      	bne.n	8002d3a <HAL_TIM_Base_Init+0x12>
 8002d36:	2301      	movs	r3, #1
 8002d38:	e04a      	b.n	8002dd0 <HAL_TIM_Base_Init+0xa8>
 8002d3a:	687b      	ldr	r3, [r7, #4]
 8002d3c:	223d      	movs	r2, #61	@ 0x3d
 8002d3e:	5c9b      	ldrb	r3, [r3, r2]
 8002d40:	b2db      	uxtb	r3, r3
 8002d42:	2b00      	cmp	r3, #0
 8002d44:	d107      	bne.n	8002d56 <HAL_TIM_Base_Init+0x2e>
 8002d46:	687b      	ldr	r3, [r7, #4]
 8002d48:	223c      	movs	r2, #60	@ 0x3c
 8002d4a:	2100      	movs	r1, #0
 8002d4c:	5499      	strb	r1, [r3, r2]
 8002d4e:	687b      	ldr	r3, [r7, #4]
 8002d50:	0018      	movs	r0, r3
 8002d52:	f7fe f941 	bl	8000fd8 <HAL_TIM_Base_MspInit>
 8002d56:	687b      	ldr	r3, [r7, #4]
 8002d58:	223d      	movs	r2, #61	@ 0x3d
 8002d5a:	2102      	movs	r1, #2
 8002d5c:	5499      	strb	r1, [r3, r2]
 8002d5e:	687b      	ldr	r3, [r7, #4]
 8002d60:	681a      	ldr	r2, [r3, #0]
 8002d62:	687b      	ldr	r3, [r7, #4]
 8002d64:	3304      	adds	r3, #4
 8002d66:	0019      	movs	r1, r3
 8002d68:	0010      	movs	r0, r2
 8002d6a:	f000 f9ab 	bl	80030c4 <TIM_Base_SetConfig>
 8002d6e:	687b      	ldr	r3, [r7, #4]
 8002d70:	2248      	movs	r2, #72	@ 0x48
 8002d72:	2101      	movs	r1, #1
 8002d74:	5499      	strb	r1, [r3, r2]
 8002d76:	687b      	ldr	r3, [r7, #4]
 8002d78:	223e      	movs	r2, #62	@ 0x3e
 8002d7a:	2101      	movs	r1, #1
 8002d7c:	5499      	strb	r1, [r3, r2]
 8002d7e:	687b      	ldr	r3, [r7, #4]
 8002d80:	223f      	movs	r2, #63	@ 0x3f
 8002d82:	2101      	movs	r1, #1
 8002d84:	5499      	strb	r1, [r3, r2]
 8002d86:	687b      	ldr	r3, [r7, #4]
 8002d88:	2240      	movs	r2, #64	@ 0x40
 8002d8a:	2101      	movs	r1, #1
 8002d8c:	5499      	strb	r1, [r3, r2]
 8002d8e:	687b      	ldr	r3, [r7, #4]
 8002d90:	2241      	movs	r2, #65	@ 0x41
 8002d92:	2101      	movs	r1, #1
 8002d94:	5499      	strb	r1, [r3, r2]
 8002d96:	687b      	ldr	r3, [r7, #4]
 8002d98:	2242      	movs	r2, #66	@ 0x42
 8002d9a:	2101      	movs	r1, #1
 8002d9c:	5499      	strb	r1, [r3, r2]
 8002d9e:	687b      	ldr	r3, [r7, #4]
 8002da0:	2243      	movs	r2, #67	@ 0x43
 8002da2:	2101      	movs	r1, #1
 8002da4:	5499      	strb	r1, [r3, r2]
 8002da6:	687b      	ldr	r3, [r7, #4]
 8002da8:	2244      	movs	r2, #68	@ 0x44
 8002daa:	2101      	movs	r1, #1
 8002dac:	5499      	strb	r1, [r3, r2]
 8002dae:	687b      	ldr	r3, [r7, #4]
 8002db0:	2245      	movs	r2, #69	@ 0x45
 8002db2:	2101      	movs	r1, #1
 8002db4:	5499      	strb	r1, [r3, r2]
 8002db6:	687b      	ldr	r3, [r7, #4]
 8002db8:	2246      	movs	r2, #70	@ 0x46
 8002dba:	2101      	movs	r1, #1
 8002dbc:	5499      	strb	r1, [r3, r2]
 8002dbe:	687b      	ldr	r3, [r7, #4]
 8002dc0:	2247      	movs	r2, #71	@ 0x47
 8002dc2:	2101      	movs	r1, #1
 8002dc4:	5499      	strb	r1, [r3, r2]
 8002dc6:	687b      	ldr	r3, [r7, #4]
 8002dc8:	223d      	movs	r2, #61	@ 0x3d
 8002dca:	2101      	movs	r1, #1
 8002dcc:	5499      	strb	r1, [r3, r2]
 8002dce:	2300      	movs	r3, #0
 8002dd0:	0018      	movs	r0, r3
 8002dd2:	46bd      	mov	sp, r7
 8002dd4:	b002      	add	sp, #8
 8002dd6:	bd80      	pop	{r7, pc}

08002dd8 <HAL_TIM_Base_Start_IT>:
 8002dd8:	b580      	push	{r7, lr}
 8002dda:	b084      	sub	sp, #16
 8002ddc:	af00      	add	r7, sp, #0
 8002dde:	6078      	str	r0, [r7, #4]
 8002de0:	687b      	ldr	r3, [r7, #4]
 8002de2:	223d      	movs	r2, #61	@ 0x3d
 8002de4:	5c9b      	ldrb	r3, [r3, r2]
 8002de6:	b2db      	uxtb	r3, r3
 8002de8:	2b01      	cmp	r3, #1
 8002dea:	d001      	beq.n	8002df0 <HAL_TIM_Base_Start_IT+0x18>
 8002dec:	2301      	movs	r3, #1
 8002dee:	e037      	b.n	8002e60 <HAL_TIM_Base_Start_IT+0x88>
 8002df0:	687b      	ldr	r3, [r7, #4]
 8002df2:	223d      	movs	r2, #61	@ 0x3d
 8002df4:	2102      	movs	r1, #2
 8002df6:	5499      	strb	r1, [r3, r2]
 8002df8:	687b      	ldr	r3, [r7, #4]
 8002dfa:	681b      	ldr	r3, [r3, #0]
 8002dfc:	68da      	ldr	r2, [r3, #12]
 8002dfe:	687b      	ldr	r3, [r7, #4]
 8002e00:	681b      	ldr	r3, [r3, #0]
 8002e02:	2101      	movs	r1, #1
 8002e04:	430a      	orrs	r2, r1
 8002e06:	60da      	str	r2, [r3, #12]
 8002e08:	687b      	ldr	r3, [r7, #4]
 8002e0a:	681b      	ldr	r3, [r3, #0]
 8002e0c:	4a16      	ldr	r2, [pc, #88]	@ (8002e68 <HAL_TIM_Base_Start_IT+0x90>)
 8002e0e:	4293      	cmp	r3, r2
 8002e10:	d004      	beq.n	8002e1c <HAL_TIM_Base_Start_IT+0x44>
 8002e12:	687b      	ldr	r3, [r7, #4]
 8002e14:	681b      	ldr	r3, [r3, #0]
 8002e16:	4a15      	ldr	r2, [pc, #84]	@ (8002e6c <HAL_TIM_Base_Start_IT+0x94>)
 8002e18:	4293      	cmp	r3, r2
 8002e1a:	d116      	bne.n	8002e4a <HAL_TIM_Base_Start_IT+0x72>
 8002e1c:	687b      	ldr	r3, [r7, #4]
 8002e1e:	681b      	ldr	r3, [r3, #0]
 8002e20:	689b      	ldr	r3, [r3, #8]
 8002e22:	4a13      	ldr	r2, [pc, #76]	@ (8002e70 <HAL_TIM_Base_Start_IT+0x98>)
 8002e24:	4013      	ands	r3, r2
 8002e26:	60fb      	str	r3, [r7, #12]
 8002e28:	68fb      	ldr	r3, [r7, #12]
 8002e2a:	2b06      	cmp	r3, #6
 8002e2c:	d016      	beq.n	8002e5c <HAL_TIM_Base_Start_IT+0x84>
 8002e2e:	68fa      	ldr	r2, [r7, #12]
 8002e30:	2380      	movs	r3, #128	@ 0x80
 8002e32:	025b      	lsls	r3, r3, #9
 8002e34:	429a      	cmp	r2, r3
 8002e36:	d011      	beq.n	8002e5c <HAL_TIM_Base_Start_IT+0x84>
 8002e38:	687b      	ldr	r3, [r7, #4]
 8002e3a:	681b      	ldr	r3, [r3, #0]
 8002e3c:	681a      	ldr	r2, [r3, #0]
 8002e3e:	687b      	ldr	r3, [r7, #4]
 8002e40:	681b      	ldr	r3, [r3, #0]
 8002e42:	2101      	movs	r1, #1
 8002e44:	430a      	orrs	r2, r1
 8002e46:	601a      	str	r2, [r3, #0]
 8002e48:	e008      	b.n	8002e5c <HAL_TIM_Base_Start_IT+0x84>
 8002e4a:	687b      	ldr	r3, [r7, #4]
 8002e4c:	681b      	ldr	r3, [r3, #0]
 8002e4e:	681a      	ldr	r2, [r3, #0]
 8002e50:	687b      	ldr	r3, [r7, #4]
 8002e52:	681b      	ldr	r3, [r3, #0]
 8002e54:	2101      	movs	r1, #1
 8002e56:	430a      	orrs	r2, r1
 8002e58:	601a      	str	r2, [r3, #0]
 8002e5a:	e000      	b.n	8002e5e <HAL_TIM_Base_Start_IT+0x86>
 8002e5c:	46c0      	nop			@ (mov r8, r8)
 8002e5e:	2300      	movs	r3, #0
 8002e60:	0018      	movs	r0, r3
 8002e62:	46bd      	mov	sp, r7
 8002e64:	b004      	add	sp, #16
 8002e66:	bd80      	pop	{r7, pc}
 8002e68:	40012c00 	.word	0x40012c00
 8002e6c:	40000400 	.word	0x40000400
 8002e70:	00010007 	.word	0x00010007

08002e74 <HAL_TIM_IRQHandler>:
 8002e74:	b580      	push	{r7, lr}
 8002e76:	b084      	sub	sp, #16
 8002e78:	af00      	add	r7, sp, #0
 8002e7a:	6078      	str	r0, [r7, #4]
 8002e7c:	687b      	ldr	r3, [r7, #4]
 8002e7e:	681b      	ldr	r3, [r3, #0]
 8002e80:	68db      	ldr	r3, [r3, #12]
 8002e82:	60fb      	str	r3, [r7, #12]
 8002e84:	687b      	ldr	r3, [r7, #4]
 8002e86:	681b      	ldr	r3, [r3, #0]
 8002e88:	691b      	ldr	r3, [r3, #16]
 8002e8a:	60bb      	str	r3, [r7, #8]
 8002e8c:	68bb      	ldr	r3, [r7, #8]
 8002e8e:	2202      	movs	r2, #2
 8002e90:	4013      	ands	r3, r2
 8002e92:	d021      	beq.n	8002ed8 <HAL_TIM_IRQHandler+0x64>
 8002e94:	68fb      	ldr	r3, [r7, #12]
 8002e96:	2202      	movs	r2, #2
 8002e98:	4013      	ands	r3, r2
 8002e9a:	d01d      	beq.n	8002ed8 <HAL_TIM_IRQHandler+0x64>
 8002e9c:	687b      	ldr	r3, [r7, #4]
 8002e9e:	681b      	ldr	r3, [r3, #0]
 8002ea0:	2203      	movs	r2, #3
 8002ea2:	4252      	negs	r2, r2
 8002ea4:	611a      	str	r2, [r3, #16]
 8002ea6:	687b      	ldr	r3, [r7, #4]
 8002ea8:	2201      	movs	r2, #1
 8002eaa:	771a      	strb	r2, [r3, #28]
 8002eac:	687b      	ldr	r3, [r7, #4]
 8002eae:	681b      	ldr	r3, [r3, #0]
 8002eb0:	699b      	ldr	r3, [r3, #24]
 8002eb2:	2203      	movs	r2, #3
 8002eb4:	4013      	ands	r3, r2
 8002eb6:	d004      	beq.n	8002ec2 <HAL_TIM_IRQHandler+0x4e>
 8002eb8:	687b      	ldr	r3, [r7, #4]
 8002eba:	0018      	movs	r0, r3
 8002ebc:	f000 f8ea 	bl	8003094 <HAL_TIM_IC_CaptureCallback>
 8002ec0:	e007      	b.n	8002ed2 <HAL_TIM_IRQHandler+0x5e>
 8002ec2:	687b      	ldr	r3, [r7, #4]
 8002ec4:	0018      	movs	r0, r3
 8002ec6:	f000 f8dd 	bl	8003084 <HAL_TIM_OC_DelayElapsedCallback>
 8002eca:	687b      	ldr	r3, [r7, #4]
 8002ecc:	0018      	movs	r0, r3
 8002ece:	f000 f8e9 	bl	80030a4 <HAL_TIM_PWM_PulseFinishedCallback>
 8002ed2:	687b      	ldr	r3, [r7, #4]
 8002ed4:	2200      	movs	r2, #0
 8002ed6:	771a      	strb	r2, [r3, #28]
 8002ed8:	68bb      	ldr	r3, [r7, #8]
 8002eda:	2204      	movs	r2, #4
 8002edc:	4013      	ands	r3, r2
 8002ede:	d022      	beq.n	8002f26 <HAL_TIM_IRQHandler+0xb2>
 8002ee0:	68fb      	ldr	r3, [r7, #12]
 8002ee2:	2204      	movs	r2, #4
 8002ee4:	4013      	ands	r3, r2
 8002ee6:	d01e      	beq.n	8002f26 <HAL_TIM_IRQHandler+0xb2>
 8002ee8:	687b      	ldr	r3, [r7, #4]
 8002eea:	681b      	ldr	r3, [r3, #0]
 8002eec:	2205      	movs	r2, #5
 8002eee:	4252      	negs	r2, r2
 8002ef0:	611a      	str	r2, [r3, #16]
 8002ef2:	687b      	ldr	r3, [r7, #4]
 8002ef4:	2202      	movs	r2, #2
 8002ef6:	771a      	strb	r2, [r3, #28]
 8002ef8:	687b      	ldr	r3, [r7, #4]
 8002efa:	681b      	ldr	r3, [r3, #0]
 8002efc:	699a      	ldr	r2, [r3, #24]
 8002efe:	23c0      	movs	r3, #192	@ 0xc0
 8002f00:	009b      	lsls	r3, r3, #2
 8002f02:	4013      	ands	r3, r2
 8002f04:	d004      	beq.n	8002f10 <HAL_TIM_IRQHandler+0x9c>
 8002f06:	687b      	ldr	r3, [r7, #4]
 8002f08:	0018      	movs	r0, r3
 8002f0a:	f000 f8c3 	bl	8003094 <HAL_TIM_IC_CaptureCallback>
 8002f0e:	e007      	b.n	8002f20 <HAL_TIM_IRQHandler+0xac>
 8002f10:	687b      	ldr	r3, [r7, #4]
 8002f12:	0018      	movs	r0, r3
 8002f14:	f000 f8b6 	bl	8003084 <HAL_TIM_OC_DelayElapsedCallback>
 8002f18:	687b      	ldr	r3, [r7, #4]
 8002f1a:	0018      	movs	r0, r3
 8002f1c:	f000 f8c2 	bl	80030a4 <HAL_TIM_PWM_PulseFinishedCallback>
 8002f20:	687b      	ldr	r3, [r7, #4]
 8002f22:	2200      	movs	r2, #0
 8002f24:	771a      	strb	r2, [r3, #28]
 8002f26:	68bb      	ldr	r3, [r7, #8]
 8002f28:	2208      	movs	r2, #8
 8002f2a:	4013      	ands	r3, r2
 8002f2c:	d021      	beq.n	8002f72 <HAL_TIM_IRQHandler+0xfe>
 8002f2e:	68fb      	ldr	r3, [r7, #12]
 8002f30:	2208      	movs	r2, #8
 8002f32:	4013      	ands	r3, r2
 8002f34:	d01d      	beq.n	8002f72 <HAL_TIM_IRQHandler+0xfe>
 8002f36:	687b      	ldr	r3, [r7, #4]
 8002f38:	681b      	ldr	r3, [r3, #0]
 8002f3a:	2209      	movs	r2, #9
 8002f3c:	4252      	negs	r2, r2
 8002f3e:	611a      	str	r2, [r3, #16]
 8002f40:	687b      	ldr	r3, [r7, #4]
 8002f42:	2204      	movs	r2, #4
 8002f44:	771a      	strb	r2, [r3, #28]
 8002f46:	687b      	ldr	r3, [r7, #4]
 8002f48:	681b      	ldr	r3, [r3, #0]
 8002f4a:	69db      	ldr	r3, [r3, #28]
 8002f4c:	2203      	movs	r2, #3
 8002f4e:	4013      	ands	r3, r2
 8002f50:	d004      	beq.n	8002f5c <HAL_TIM_IRQHandler+0xe8>
 8002f52:	687b      	ldr	r3, [r7, #4]
 8002f54:	0018      	movs	r0, r3
 8002f56:	f000 f89d 	bl	8003094 <HAL_TIM_IC_CaptureCallback>
 8002f5a:	e007      	b.n	8002f6c <HAL_TIM_IRQHandler+0xf8>
 8002f5c:	687b      	ldr	r3, [r7, #4]
 8002f5e:	0018      	movs	r0, r3
 8002f60:	f000 f890 	bl	8003084 <HAL_TIM_OC_DelayElapsedCallback>
 8002f64:	687b      	ldr	r3, [r7, #4]
 8002f66:	0018      	movs	r0, r3
 8002f68:	f000 f89c 	bl	80030a4 <HAL_TIM_PWM_PulseFinishedCallback>
 8002f6c:	687b      	ldr	r3, [r7, #4]
 8002f6e:	2200      	movs	r2, #0
 8002f70:	771a      	strb	r2, [r3, #28]
 8002f72:	68bb      	ldr	r3, [r7, #8]
 8002f74:	2210      	movs	r2, #16
 8002f76:	4013      	ands	r3, r2
 8002f78:	d022      	beq.n	8002fc0 <HAL_TIM_IRQHandler+0x14c>
 8002f7a:	68fb      	ldr	r3, [r7, #12]
 8002f7c:	2210      	movs	r2, #16
 8002f7e:	4013      	ands	r3, r2
 8002f80:	d01e      	beq.n	8002fc0 <HAL_TIM_IRQHandler+0x14c>
 8002f82:	687b      	ldr	r3, [r7, #4]
 8002f84:	681b      	ldr	r3, [r3, #0]
 8002f86:	2211      	movs	r2, #17
 8002f88:	4252      	negs	r2, r2
 8002f8a:	611a      	str	r2, [r3, #16]
 8002f8c:	687b      	ldr	r3, [r7, #4]
 8002f8e:	2208      	movs	r2, #8
 8002f90:	771a      	strb	r2, [r3, #28]
 8002f92:	687b      	ldr	r3, [r7, #4]
 8002f94:	681b      	ldr	r3, [r3, #0]
 8002f96:	69da      	ldr	r2, [r3, #28]
 8002f98:	23c0      	movs	r3, #192	@ 0xc0
 8002f9a:	009b      	lsls	r3, r3, #2
 8002f9c:	4013      	ands	r3, r2
 8002f9e:	d004      	beq.n	8002faa <HAL_TIM_IRQHandler+0x136>
 8002fa0:	687b      	ldr	r3, [r7, #4]
 8002fa2:	0018      	movs	r0, r3
 8002fa4:	f000 f876 	bl	8003094 <HAL_TIM_IC_CaptureCallback>
 8002fa8:	e007      	b.n	8002fba <HAL_TIM_IRQHandler+0x146>
 8002faa:	687b      	ldr	r3, [r7, #4]
 8002fac:	0018      	movs	r0, r3
 8002fae:	f000 f869 	bl	8003084 <HAL_TIM_OC_DelayElapsedCallback>
 8002fb2:	687b      	ldr	r3, [r7, #4]
 8002fb4:	0018      	movs	r0, r3
 8002fb6:	f000 f875 	bl	80030a4 <HAL_TIM_PWM_PulseFinishedCallback>
 8002fba:	687b      	ldr	r3, [r7, #4]
 8002fbc:	2200      	movs	r2, #0
 8002fbe:	771a      	strb	r2, [r3, #28]
 8002fc0:	68bb      	ldr	r3, [r7, #8]
 8002fc2:	2201      	movs	r2, #1
 8002fc4:	4013      	ands	r3, r2
 8002fc6:	d00c      	beq.n	8002fe2 <HAL_TIM_IRQHandler+0x16e>
 8002fc8:	68fb      	ldr	r3, [r7, #12]
 8002fca:	2201      	movs	r2, #1
 8002fcc:	4013      	ands	r3, r2
 8002fce:	d008      	beq.n	8002fe2 <HAL_TIM_IRQHandler+0x16e>
 8002fd0:	687b      	ldr	r3, [r7, #4]
 8002fd2:	681b      	ldr	r3, [r3, #0]
 8002fd4:	2202      	movs	r2, #2
 8002fd6:	4252      	negs	r2, r2
 8002fd8:	611a      	str	r2, [r3, #16]
 8002fda:	687b      	ldr	r3, [r7, #4]
 8002fdc:	0018      	movs	r0, r3
 8002fde:	f7fd fa3f 	bl	8000460 <HAL_TIM_PeriodElapsedCallback>
 8002fe2:	68bb      	ldr	r3, [r7, #8]
 8002fe4:	2280      	movs	r2, #128	@ 0x80
 8002fe6:	4013      	ands	r3, r2
 8002fe8:	d104      	bne.n	8002ff4 <HAL_TIM_IRQHandler+0x180>
 8002fea:	68ba      	ldr	r2, [r7, #8]
 8002fec:	2380      	movs	r3, #128	@ 0x80
 8002fee:	019b      	lsls	r3, r3, #6
 8002ff0:	4013      	ands	r3, r2
 8002ff2:	d00b      	beq.n	800300c <HAL_TIM_IRQHandler+0x198>
 8002ff4:	68fb      	ldr	r3, [r7, #12]
 8002ff6:	2280      	movs	r2, #128	@ 0x80
 8002ff8:	4013      	ands	r3, r2
 8002ffa:	d007      	beq.n	800300c <HAL_TIM_IRQHandler+0x198>
 8002ffc:	687b      	ldr	r3, [r7, #4]
 8002ffe:	681b      	ldr	r3, [r3, #0]
 8003000:	4a1e      	ldr	r2, [pc, #120]	@ (800307c <HAL_TIM_IRQHandler+0x208>)
 8003002:	611a      	str	r2, [r3, #16]
 8003004:	687b      	ldr	r3, [r7, #4]
 8003006:	0018      	movs	r0, r3
 8003008:	f000 f8de 	bl	80031c8 <HAL_TIMEx_BreakCallback>
 800300c:	68ba      	ldr	r2, [r7, #8]
 800300e:	2380      	movs	r3, #128	@ 0x80
 8003010:	005b      	lsls	r3, r3, #1
 8003012:	4013      	ands	r3, r2
 8003014:	d00b      	beq.n	800302e <HAL_TIM_IRQHandler+0x1ba>
 8003016:	68fb      	ldr	r3, [r7, #12]
 8003018:	2280      	movs	r2, #128	@ 0x80
 800301a:	4013      	ands	r3, r2
 800301c:	d007      	beq.n	800302e <HAL_TIM_IRQHandler+0x1ba>
 800301e:	687b      	ldr	r3, [r7, #4]
 8003020:	681b      	ldr	r3, [r3, #0]
 8003022:	4a17      	ldr	r2, [pc, #92]	@ (8003080 <HAL_TIM_IRQHandler+0x20c>)
 8003024:	611a      	str	r2, [r3, #16]
 8003026:	687b      	ldr	r3, [r7, #4]
 8003028:	0018      	movs	r0, r3
 800302a:	f000 f8d5 	bl	80031d8 <HAL_TIMEx_Break2Callback>
 800302e:	68bb      	ldr	r3, [r7, #8]
 8003030:	2240      	movs	r2, #64	@ 0x40
 8003032:	4013      	ands	r3, r2
 8003034:	d00c      	beq.n	8003050 <HAL_TIM_IRQHandler+0x1dc>
 8003036:	68fb      	ldr	r3, [r7, #12]
 8003038:	2240      	movs	r2, #64	@ 0x40
 800303a:	4013      	ands	r3, r2
 800303c:	d008      	beq.n	8003050 <HAL_TIM_IRQHandler+0x1dc>
 800303e:	687b      	ldr	r3, [r7, #4]
 8003040:	681b      	ldr	r3, [r3, #0]
 8003042:	2241      	movs	r2, #65	@ 0x41
 8003044:	4252      	negs	r2, r2
 8003046:	611a      	str	r2, [r3, #16]
 8003048:	687b      	ldr	r3, [r7, #4]
 800304a:	0018      	movs	r0, r3
 800304c:	f000 f832 	bl	80030b4 <HAL_TIM_TriggerCallback>
 8003050:	68bb      	ldr	r3, [r7, #8]
 8003052:	2220      	movs	r2, #32
 8003054:	4013      	ands	r3, r2
 8003056:	d00c      	beq.n	8003072 <HAL_TIM_IRQHandler+0x1fe>
 8003058:	68fb      	ldr	r3, [r7, #12]
 800305a:	2220      	movs	r2, #32
 800305c:	4013      	ands	r3, r2
 800305e:	d008      	beq.n	8003072 <HAL_TIM_IRQHandler+0x1fe>
 8003060:	687b      	ldr	r3, [r7, #4]
 8003062:	681b      	ldr	r3, [r3, #0]
 8003064:	2221      	movs	r2, #33	@ 0x21
 8003066:	4252      	negs	r2, r2
 8003068:	611a      	str	r2, [r3, #16]
 800306a:	687b      	ldr	r3, [r7, #4]
 800306c:	0018      	movs	r0, r3
 800306e:	f000 f8a3 	bl	80031b8 <HAL_TIMEx_CommutCallback>
 8003072:	46c0      	nop			@ (mov r8, r8)
 8003074:	46bd      	mov	sp, r7
 8003076:	b004      	add	sp, #16
 8003078:	bd80      	pop	{r7, pc}
 800307a:	46c0      	nop			@ (mov r8, r8)
 800307c:	ffffdf7f 	.word	0xffffdf7f
 8003080:	fffffeff 	.word	0xfffffeff

08003084 <HAL_TIM_OC_DelayElapsedCallback>:
 8003084:	b580      	push	{r7, lr}
 8003086:	b082      	sub	sp, #8
 8003088:	af00      	add	r7, sp, #0
 800308a:	6078      	str	r0, [r7, #4]
 800308c:	46c0      	nop			@ (mov r8, r8)
 800308e:	46bd      	mov	sp, r7
 8003090:	b002      	add	sp, #8
 8003092:	bd80      	pop	{r7, pc}

08003094 <HAL_TIM_IC_CaptureCallback>:
 8003094:	b580      	push	{r7, lr}
 8003096:	b082      	sub	sp, #8
 8003098:	af00      	add	r7, sp, #0
 800309a:	6078      	str	r0, [r7, #4]
 800309c:	46c0      	nop			@ (mov r8, r8)
 800309e:	46bd      	mov	sp, r7
 80030a0:	b002      	add	sp, #8
 80030a2:	bd80      	pop	{r7, pc}

080030a4 <HAL_TIM_PWM_PulseFinishedCallback>:
 80030a4:	b580      	push	{r7, lr}
 80030a6:	b082      	sub	sp, #8
 80030a8:	af00      	add	r7, sp, #0
 80030aa:	6078      	str	r0, [r7, #4]
 80030ac:	46c0      	nop			@ (mov r8, r8)
 80030ae:	46bd      	mov	sp, r7
 80030b0:	b002      	add	sp, #8
 80030b2:	bd80      	pop	{r7, pc}

080030b4 <HAL_TIM_TriggerCallback>:
 80030b4:	b580      	push	{r7, lr}
 80030b6:	b082      	sub	sp, #8
 80030b8:	af00      	add	r7, sp, #0
 80030ba:	6078      	str	r0, [r7, #4]
 80030bc:	46c0      	nop			@ (mov r8, r8)
 80030be:	46bd      	mov	sp, r7
 80030c0:	b002      	add	sp, #8
 80030c2:	bd80      	pop	{r7, pc}

080030c4 <TIM_Base_SetConfig>:
 80030c4:	b580      	push	{r7, lr}
 80030c6:	b084      	sub	sp, #16
 80030c8:	af00      	add	r7, sp, #0
 80030ca:	6078      	str	r0, [r7, #4]
 80030cc:	6039      	str	r1, [r7, #0]
 80030ce:	687b      	ldr	r3, [r7, #4]
 80030d0:	681b      	ldr	r3, [r3, #0]
 80030d2:	60fb      	str	r3, [r7, #12]
 80030d4:	687b      	ldr	r3, [r7, #4]
 80030d6:	4a32      	ldr	r2, [pc, #200]	@ (80031a0 <TIM_Base_SetConfig+0xdc>)
 80030d8:	4293      	cmp	r3, r2
 80030da:	d003      	beq.n	80030e4 <TIM_Base_SetConfig+0x20>
 80030dc:	687b      	ldr	r3, [r7, #4]
 80030de:	4a31      	ldr	r2, [pc, #196]	@ (80031a4 <TIM_Base_SetConfig+0xe0>)
 80030e0:	4293      	cmp	r3, r2
 80030e2:	d108      	bne.n	80030f6 <TIM_Base_SetConfig+0x32>
 80030e4:	68fb      	ldr	r3, [r7, #12]
 80030e6:	2270      	movs	r2, #112	@ 0x70
 80030e8:	4393      	bics	r3, r2
 80030ea:	60fb      	str	r3, [r7, #12]
 80030ec:	683b      	ldr	r3, [r7, #0]
 80030ee:	685b      	ldr	r3, [r3, #4]
 80030f0:	68fa      	ldr	r2, [r7, #12]
 80030f2:	4313      	orrs	r3, r2
 80030f4:	60fb      	str	r3, [r7, #12]
 80030f6:	687b      	ldr	r3, [r7, #4]
 80030f8:	4a29      	ldr	r2, [pc, #164]	@ (80031a0 <TIM_Base_SetConfig+0xdc>)
 80030fa:	4293      	cmp	r3, r2
 80030fc:	d00f      	beq.n	800311e <TIM_Base_SetConfig+0x5a>
 80030fe:	687b      	ldr	r3, [r7, #4]
 8003100:	4a28      	ldr	r2, [pc, #160]	@ (80031a4 <TIM_Base_SetConfig+0xe0>)
 8003102:	4293      	cmp	r3, r2
 8003104:	d00b      	beq.n	800311e <TIM_Base_SetConfig+0x5a>
 8003106:	687b      	ldr	r3, [r7, #4]
 8003108:	4a27      	ldr	r2, [pc, #156]	@ (80031a8 <TIM_Base_SetConfig+0xe4>)
 800310a:	4293      	cmp	r3, r2
 800310c:	d007      	beq.n	800311e <TIM_Base_SetConfig+0x5a>
 800310e:	687b      	ldr	r3, [r7, #4]
 8003110:	4a26      	ldr	r2, [pc, #152]	@ (80031ac <TIM_Base_SetConfig+0xe8>)
 8003112:	4293      	cmp	r3, r2
 8003114:	d003      	beq.n	800311e <TIM_Base_SetConfig+0x5a>
 8003116:	687b      	ldr	r3, [r7, #4]
 8003118:	4a25      	ldr	r2, [pc, #148]	@ (80031b0 <TIM_Base_SetConfig+0xec>)
 800311a:	4293      	cmp	r3, r2
 800311c:	d108      	bne.n	8003130 <TIM_Base_SetConfig+0x6c>
 800311e:	68fb      	ldr	r3, [r7, #12]
 8003120:	4a24      	ldr	r2, [pc, #144]	@ (80031b4 <TIM_Base_SetConfig+0xf0>)
 8003122:	4013      	ands	r3, r2
 8003124:	60fb      	str	r3, [r7, #12]
 8003126:	683b      	ldr	r3, [r7, #0]
 8003128:	68db      	ldr	r3, [r3, #12]
 800312a:	68fa      	ldr	r2, [r7, #12]
 800312c:	4313      	orrs	r3, r2
 800312e:	60fb      	str	r3, [r7, #12]
 8003130:	68fb      	ldr	r3, [r7, #12]
 8003132:	2280      	movs	r2, #128	@ 0x80
 8003134:	4393      	bics	r3, r2
 8003136:	001a      	movs	r2, r3
 8003138:	683b      	ldr	r3, [r7, #0]
 800313a:	695b      	ldr	r3, [r3, #20]
 800313c:	4313      	orrs	r3, r2
 800313e:	60fb      	str	r3, [r7, #12]
 8003140:	687b      	ldr	r3, [r7, #4]
 8003142:	68fa      	ldr	r2, [r7, #12]
 8003144:	601a      	str	r2, [r3, #0]
 8003146:	683b      	ldr	r3, [r7, #0]
 8003148:	689a      	ldr	r2, [r3, #8]
 800314a:	687b      	ldr	r3, [r7, #4]
 800314c:	62da      	str	r2, [r3, #44]	@ 0x2c
 800314e:	683b      	ldr	r3, [r7, #0]
 8003150:	681a      	ldr	r2, [r3, #0]
 8003152:	687b      	ldr	r3, [r7, #4]
 8003154:	629a      	str	r2, [r3, #40]	@ 0x28
 8003156:	687b      	ldr	r3, [r7, #4]
 8003158:	4a11      	ldr	r2, [pc, #68]	@ (80031a0 <TIM_Base_SetConfig+0xdc>)
 800315a:	4293      	cmp	r3, r2
 800315c:	d007      	beq.n	800316e <TIM_Base_SetConfig+0xaa>
 800315e:	687b      	ldr	r3, [r7, #4]
 8003160:	4a12      	ldr	r2, [pc, #72]	@ (80031ac <TIM_Base_SetConfig+0xe8>)
 8003162:	4293      	cmp	r3, r2
 8003164:	d003      	beq.n	800316e <TIM_Base_SetConfig+0xaa>
 8003166:	687b      	ldr	r3, [r7, #4]
 8003168:	4a11      	ldr	r2, [pc, #68]	@ (80031b0 <TIM_Base_SetConfig+0xec>)
 800316a:	4293      	cmp	r3, r2
 800316c:	d103      	bne.n	8003176 <TIM_Base_SetConfig+0xb2>
 800316e:	683b      	ldr	r3, [r7, #0]
 8003170:	691a      	ldr	r2, [r3, #16]
 8003172:	687b      	ldr	r3, [r7, #4]
 8003174:	631a      	str	r2, [r3, #48]	@ 0x30
 8003176:	687b      	ldr	r3, [r7, #4]
 8003178:	2201      	movs	r2, #1
 800317a:	615a      	str	r2, [r3, #20]
 800317c:	687b      	ldr	r3, [r7, #4]
 800317e:	691b      	ldr	r3, [r3, #16]
 8003180:	2201      	movs	r2, #1
 8003182:	4013      	ands	r3, r2
 8003184:	2b01      	cmp	r3, #1
 8003186:	d106      	bne.n	8003196 <TIM_Base_SetConfig+0xd2>
 8003188:	687b      	ldr	r3, [r7, #4]
 800318a:	691b      	ldr	r3, [r3, #16]
 800318c:	2201      	movs	r2, #1
 800318e:	4393      	bics	r3, r2
 8003190:	001a      	movs	r2, r3
 8003192:	687b      	ldr	r3, [r7, #4]
 8003194:	611a      	str	r2, [r3, #16]
 8003196:	46c0      	nop			@ (mov r8, r8)
 8003198:	46bd      	mov	sp, r7
 800319a:	b004      	add	sp, #16
 800319c:	bd80      	pop	{r7, pc}
 800319e:	46c0      	nop			@ (mov r8, r8)
 80031a0:	40012c00 	.word	0x40012c00
 80031a4:	40000400 	.word	0x40000400
 80031a8:	40002000 	.word	0x40002000
 80031ac:	40014400 	.word	0x40014400
 80031b0:	40014800 	.word	0x40014800
 80031b4:	fffffcff 	.word	0xfffffcff

080031b8 <HAL_TIMEx_CommutCallback>:
 80031b8:	b580      	push	{r7, lr}
 80031ba:	b082      	sub	sp, #8
 80031bc:	af00      	add	r7, sp, #0
 80031be:	6078      	str	r0, [r7, #4]
 80031c0:	46c0      	nop			@ (mov r8, r8)
 80031c2:	46bd      	mov	sp, r7
 80031c4:	b002      	add	sp, #8
 80031c6:	bd80      	pop	{r7, pc}

080031c8 <HAL_TIMEx_BreakCallback>:
 80031c8:	b580      	push	{r7, lr}
 80031ca:	b082      	sub	sp, #8
 80031cc:	af00      	add	r7, sp, #0
 80031ce:	6078      	str	r0, [r7, #4]
 80031d0:	46c0      	nop			@ (mov r8, r8)
 80031d2:	46bd      	mov	sp, r7
 80031d4:	b002      	add	sp, #8
 80031d6:	bd80      	pop	{r7, pc}

080031d8 <HAL_TIMEx_Break2Callback>:
 80031d8:	b580      	push	{r7, lr}
 80031da:	b082      	sub	sp, #8
 80031dc:	af00      	add	r7, sp, #0
 80031de:	6078      	str	r0, [r7, #4]
 80031e0:	46c0      	nop			@ (mov r8, r8)
 80031e2:	46bd      	mov	sp, r7
 80031e4:	b002      	add	sp, #8
 80031e6:	bd80      	pop	{r7, pc}

080031e8 <memset>:
 80031e8:	0003      	movs	r3, r0
 80031ea:	1882      	adds	r2, r0, r2
 80031ec:	4293      	cmp	r3, r2
 80031ee:	d100      	bne.n	80031f2 <memset+0xa>
 80031f0:	4770      	bx	lr
 80031f2:	7019      	strb	r1, [r3, #0]
 80031f4:	3301      	adds	r3, #1
 80031f6:	e7f9      	b.n	80031ec <memset+0x4>

080031f8 <__libc_init_array>:
 80031f8:	b570      	push	{r4, r5, r6, lr}
 80031fa:	2600      	movs	r6, #0
 80031fc:	4c0c      	ldr	r4, [pc, #48]	@ (8003230 <__libc_init_array+0x38>)
 80031fe:	4d0d      	ldr	r5, [pc, #52]	@ (8003234 <__libc_init_array+0x3c>)
 8003200:	1b64      	subs	r4, r4, r5
 8003202:	10a4      	asrs	r4, r4, #2
 8003204:	42a6      	cmp	r6, r4
 8003206:	d109      	bne.n	800321c <__libc_init_array+0x24>
 8003208:	2600      	movs	r6, #0
 800320a:	f000 f819 	bl	8003240 <_init>
 800320e:	4c0a      	ldr	r4, [pc, #40]	@ (8003238 <__libc_init_array+0x40>)
 8003210:	4d0a      	ldr	r5, [pc, #40]	@ (800323c <__libc_init_array+0x44>)
 8003212:	1b64      	subs	r4, r4, r5
 8003214:	10a4      	asrs	r4, r4, #2
 8003216:	42a6      	cmp	r6, r4
 8003218:	d105      	bne.n	8003226 <__libc_init_array+0x2e>
 800321a:	bd70      	pop	{r4, r5, r6, pc}
 800321c:	00b3      	lsls	r3, r6, #2
 800321e:	58eb      	ldr	r3, [r5, r3]
 8003220:	4798      	blx	r3
 8003222:	3601      	adds	r6, #1
 8003224:	e7ee      	b.n	8003204 <__libc_init_array+0xc>
 8003226:	00b3      	lsls	r3, r6, #2
 8003228:	58eb      	ldr	r3, [r5, r3]
 800322a:	4798      	blx	r3
 800322c:	3601      	adds	r6, #1
 800322e:	e7f2      	b.n	8003216 <__libc_init_array+0x1e>
 8003230:	08005e98 	.word	0x08005e98
 8003234:	08005e98 	.word	0x08005e98
 8003238:	08005e9c 	.word	0x08005e9c
 800323c:	08005e98 	.word	0x08005e98

08003240 <_init>:
 8003240:	b5f8      	push	{r3, r4, r5, r6, r7, lr}
 8003242:	46c0      	nop			@ (mov r8, r8)
 8003244:	bcf8      	pop	{r3, r4, r5, r6, r7}
 8003246:	bc08      	pop	{r3}
 8003248:	469e      	mov	lr, r3
 800324a:	4770      	bx	lr

0800324c <_fini>:
 800324c:	b5f8      	push	{r3, r4, r5, r6, r7, lr}
 800324e:	46c0      	nop			@ (mov r8, r8)
 8003250:	bcf8      	pop	{r3, r4, r5, r6, r7}
 8003252:	bc08      	pop	{r3}
 8003254:	469e      	mov	lr, r3
 8003256:	4770      	bx	lr
