
Bongo-cat-fidget-toy.elf:     file format elf32-littlearm

Sections:
Idx Name          Size      VMA       LMA       File off  Algn
  0 .isr_vector   000000b8  08000000  08000000  00001000  2**0
                  CONTENTS, ALLOC, LOAD, READONLY, DATA
  1 .text         00004a08  080000b8  080000b8  000010b8  2**3
                  CONTENTS, ALLOC, LOAD, READONLY, CODE
  2 .rodata       00003650  08004ac0  08004ac0  00005ac0  2**2
                  CONTENTS, ALLOC, LOAD, READONLY, DATA
  3 .ARM.extab    00000000  08008110  08008110  0000a0f8  2**0
                  CONTENTS, READONLY
  4 .ARM          00000000  08008110  08008110  0000a0f8  2**0
                  CONTENTS, READONLY
  5 .preinit_array 00000000  08008110  08008110  0000a0f8  2**0
                  CONTENTS, ALLOC, LOAD, DATA
  6 .init_array   00000004  08008110  08008110  00009110  2**2
                  CONTENTS, ALLOC, LOAD, READONLY, DATA
  7 .fini_array   00000004  08008114  08008114  00009114  2**2
                  CONTENTS, ALLOC, LOAD, READONLY, DATA
  8 .data         000000f8  20000000  08008118  0000a000  2**2
                  CONTENTS, ALLOC, LOAD, CODE
  9 .bss          0000067c  200000f8  08008210  0000a0f8  2**2
                  ALLOC
 10 ._user_heap_stack 00000604  20000774  08008210  0000a774  2**0
                  ALLOC
 11 .ARM.attributes 00000028  00000000  00000000  0000a0f8  2**0
                  CONTENTS, READONLY
 12 .debug_info   0000f775  00000000  00000000  0000a120  2**0
                  CONTENTS, READONLY, DEBUGGING, OCTETS
 13 .debug_abbrev 00002b3b  00000000  00000000  00019895  2**0
                  CONTENTS, READONLY, DEBUGGING, OCTETS
 14 .debug_aranges 00001060  00000000  00000000  0001c3d0  2**3
                  CONTENTS, READONLY, DEBUGGING, OCTETS
 15 .debug_rnglists 00000caf  00000000  00000000  0001d430  2**0
                  CONTENTS, READONLY, DEBUGGING, OCTETS
 16 .debug_macro  000162a1  00000000  00000000  0001e0df  2**0
                  CONTENTS, READONLY, DEBUGGING, OCTETS
 17 .debug_line   00013518  00000000  00000000  00034380  2**0
                  CONTENTS, READONLY, DEBUGGING, OCTETS
 18 .debug_str    00089148  00000000  00000000  00047898  2**0
                  CONTENTS, READONLY, DEBUGGING, OCTETS
 19 .comment      00000043  00000000  00000000  000d09e0  2**0
                  CONTENTS, READONLY
 20 .debug_frame  00003fec  00000000  00000000  000d0a24  2**2
                  CONTENTS, READONLY, DEBUGGING, OCTETS
 21 .debug_line_str 0000006b  00000000  00000000  000d4a10  2**0
                  CONTENTS, READONLY, DEBUGGING, OCTETS

Disassembly of section .text:

080000b8 <__do_global_dtors_aux>:
 80000b8:	b510      	push	{r4, lr}
 80000ba:	4c06      	ldr	r4, [pc, #24]	@ (80000d4 <__do_global_dtors_aux+0x1c>)
 80000bc:	7823      	ldrb	r3, [r4, #0]
 80000be:	2b00      	cmp	r3, #0
 80000c0:	d107      	bne.n	80000d2 <__do_global_dtors_aux+0x1a>
 80000c2:	4b05      	ldr	r3, [pc, #20]	@ (80000d8 <__do_global_dtors_aux+0x20>)
 80000c4:	2b00      	cmp	r3, #0
 80000c6:	d002      	beq.n	80000ce <__do_global_dtors_aux+0x16>
 80000c8:	4804      	ldr	r0, [pc, #16]	@ (80000dc <__do_global_dtors_aux+0x24>)
 80000ca:	e000      	b.n	80000ce <__do_global_dtors_aux+0x16>
 80000cc:	bf00      	nop
 80000ce:	2301      	movs	r3, #1
 80000d0:	7023      	strb	r3, [r4, #0]
 80000d2:	bd10      	pop	{r4, pc}
 80000d4:	200000f8 	.word	0x200000f8
 80000d8:	00000000 	.word	0x00000000
 80000dc:	08004a94 	.word	0x08004a94

080000e0 <frame_dummy>:
 80000e0:	4b04      	ldr	r3, [pc, #16]	@ (80000f4 <frame_dummy+0x14>)
 80000e2:	b510      	push	{r4, lr}
 80000e4:	2b00      	cmp	r3, #0
 80000e6:	d003      	beq.n	80000f0 <frame_dummy+0x10>
 80000e8:	4903      	ldr	r1, [pc, #12]	@ (80000f8 <frame_dummy+0x18>)
 80000ea:	4804      	ldr	r0, [pc, #16]	@ (80000fc <frame_dummy+0x1c>)
 80000ec:	e000      	b.n	80000f0 <frame_dummy+0x10>
 80000ee:	bf00      	nop
 80000f0:	bd10      	pop	{r4, pc}
 80000f2:	46c0      	nop			@ (mov r8, r8)
 80000f4:	00000000 	.word	0x00000000
 80000f8:	200000fc 	.word	0x200000fc
 80000fc:	08004a94 	.word	0x08004a94

08000100 <__gnu_thumb1_case_shi>:
 8000100:	b403      	push	{r0, r1}
 8000102:	4671      	mov	r1, lr
 8000104:	0849      	lsrs	r1, r1, #1
 8000106:	0040      	lsls	r0, r0, #1
 8000108:	0049      	lsls	r1, r1, #1
 800010a:	5e09      	ldrsh	r1, [r1, r0]
 800010c:	0049      	lsls	r1, r1, #1
 800010e:	448e      	add	lr, r1
 8000110:	bc03      	pop	{r0, r1}
 8000112:	4770      	bx	lr

08000114 <__udivsi3>:
 8000114:	2200      	movs	r2, #0
 8000116:	0843      	lsrs	r3, r0, #1
 8000118:	428b      	cmp	r3, r1
 800011a:	d374      	bcc.n	8000206 <__udivsi3+0xf2>
 800011c:	0903      	lsrs	r3, r0, #4
 800011e:	428b      	cmp	r3, r1
 8000120:	d35f      	bcc.n	80001e2 <__udivsi3+0xce>
 8000122:	0a03      	lsrs	r3, r0, #8
 8000124:	428b      	cmp	r3, r1
 8000126:	d344      	bcc.n	80001b2 <__udivsi3+0x9e>
 8000128:	0b03      	lsrs	r3, r0, #12
 800012a:	428b      	cmp	r3, r1
 800012c:	d328      	bcc.n	8000180 <__udivsi3+0x6c>
 800012e:	0c03      	lsrs	r3, r0, #16
 8000130:	428b      	cmp	r3, r1
 8000132:	d30d      	bcc.n	8000150 <__udivsi3+0x3c>
 8000134:	22ff      	movs	r2, #255	@ 0xff
 8000136:	0209      	lsls	r1, r1, #8
 8000138:	ba12      	rev	r2, r2
 800013a:	0c03      	lsrs	r3, r0, #16
 800013c:	428b      	cmp	r3, r1
 800013e:	d302      	bcc.n	8000146 <__udivsi3+0x32>
 8000140:	1212      	asrs	r2, r2, #8
 8000142:	0209      	lsls	r1, r1, #8
 8000144:	d065      	beq.n	8000212 <__udivsi3+0xfe>
 8000146:	0b03      	lsrs	r3, r0, #12
 8000148:	428b      	cmp	r3, r1
 800014a:	d319      	bcc.n	8000180 <__udivsi3+0x6c>
 800014c:	e000      	b.n	8000150 <__udivsi3+0x3c>
 800014e:	0a09      	lsrs	r1, r1, #8
 8000150:	0bc3      	lsrs	r3, r0, #15
 8000152:	428b      	cmp	r3, r1
 8000154:	d301      	bcc.n	800015a <__udivsi3+0x46>
 8000156:	03cb      	lsls	r3, r1, #15
 8000158:	1ac0      	subs	r0, r0, r3
 800015a:	4152      	adcs	r2, r2
 800015c:	0b83      	lsrs	r3, r0, #14
 800015e:	428b      	cmp	r3, r1
 8000160:	d301      	bcc.n	8000166 <__udivsi3+0x52>
 8000162:	038b      	lsls	r3, r1, #14
 8000164:	1ac0      	subs	r0, r0, r3
 8000166:	4152      	adcs	r2, r2
 8000168:	0b43      	lsrs	r3, r0, #13
 800016a:	428b      	cmp	r3, r1
 800016c:	d301      	bcc.n	8000172 <__udivsi3+0x5e>
 800016e:	034b      	lsls	r3, r1, #13
 8000170:	1ac0      	subs	r0, r0, r3
 8000172:	4152      	adcs	r2, r2
 8000174:	0b03      	lsrs	r3, r0, #12
 8000176:	428b      	cmp	r3, r1
 8000178:	d301      	bcc.n	800017e <__udivsi3+0x6a>
 800017a:	030b      	lsls	r3, r1, #12
 800017c:	1ac0      	subs	r0, r0, r3
 800017e:	4152      	adcs	r2, r2
 8000180:	0ac3      	lsrs	r3, r0, #11
 8000182:	428b      	cmp	r3, r1
 8000184:	d301      	bcc.n	800018a <__udivsi3+0x76>
 8000186:	02cb      	lsls	r3, r1, #11
 8000188:	1ac0      	subs	r0, r0, r3
 800018a:	4152      	adcs	r2, r2
 800018c:	0a83      	lsrs	r3, r0, #10
 800018e:	428b      	cmp	r3, r1
 8000190:	d301      	bcc.n	8000196 <__udivsi3+0x82>
 8000192:	028b      	lsls	r3, r1, #10
 8000194:	1ac0      	subs	r0, r0, r3
 8000196:	4152      	adcs	r2, r2
 8000198:	0a43      	lsrs	r3, r0, #9
 800019a:	428b      	cmp	r3, r1
 800019c:	d301      	bcc.n	80001a2 <__udivsi3+0x8e>
 800019e:	024b      	lsls	r3, r1, #9
 80001a0:	1ac0      	subs	r0, r0, r3
 80001a2:	4152      	adcs	r2, r2
 80001a4:	0a03      	lsrs	r3, r0, #8
 80001a6:	428b      	cmp	r3, r1
 80001a8:	d301      	bcc.n	80001ae <__udivsi3+0x9a>
 80001aa:	020b      	lsls	r3, r1, #8
 80001ac:	1ac0      	subs	r0, r0, r3
 80001ae:	4152      	adcs	r2, r2
 80001b0:	d2cd      	bcs.n	800014e <__udivsi3+0x3a>
 80001b2:	09c3      	lsrs	r3, r0, #7
 80001b4:	428b      	cmp	r3, r1
 80001b6:	d301      	bcc.n	80001bc <__udivsi3+0xa8>
 80001b8:	01cb      	lsls	r3, r1, #7
 80001ba:	1ac0      	subs	r0, r0, r3
 80001bc:	4152      	adcs	r2, r2
 80001be:	0983      	lsrs	r3, r0, #6
 80001c0:	428b      	cmp	r3, r1
 80001c2:	d301      	bcc.n	80001c8 <__udivsi3+0xb4>
 80001c4:	018b      	lsls	r3, r1, #6
 80001c6:	1ac0      	subs	r0, r0, r3
 80001c8:	4152      	adcs	r2, r2
 80001ca:	0943      	lsrs	r3, r0, #5
 80001cc:	428b      	cmp	r3, r1
 80001ce:	d301      	bcc.n	80001d4 <__udivsi3+0xc0>
 80001d0:	014b      	lsls	r3, r1, #5
 80001d2:	1ac0      	subs	r0, r0, r3
 80001d4:	4152      	adcs	r2, r2
 80001d6:	0903      	lsrs	r3, r0, #4
 80001d8:	428b      	cmp	r3, r1
 80001da:	d301      	bcc.n	80001e0 <__udivsi3+0xcc>
 80001dc:	010b      	lsls	r3, r1, #4
 80001de:	1ac0      	subs	r0, r0, r3
 80001e0:	4152      	adcs	r2, r2
 80001e2:	08c3      	lsrs	r3, r0, #3
 80001e4:	428b      	cmp	r3, r1
 80001e6:	d301      	bcc.n	80001ec <__udivsi3+0xd8>
 80001e8:	00cb      	lsls	r3, r1, #3
 80001ea:	1ac0      	subs	r0, r0, r3
 80001ec:	4152      	adcs	r2, r2
 80001ee:	0883      	lsrs	r3, r0, #2
 80001f0:	428b      	cmp	r3, r1
 80001f2:	d301      	bcc.n	80001f8 <__udivsi3+0xe4>
 80001f4:	008b      	lsls	r3, r1, #2
 80001f6:	1ac0      	subs	r0, r0, r3
 80001f8:	4152      	adcs	r2, r2
 80001fa:	0843      	lsrs	r3, r0, #1
 80001fc:	428b      	cmp	r3, r1
 80001fe:	d301      	bcc.n	8000204 <__udivsi3+0xf0>
 8000200:	004b      	lsls	r3, r1, #1
 8000202:	1ac0      	subs	r0, r0, r3
 8000204:	4152      	adcs	r2, r2
 8000206:	1a41      	subs	r1, r0, r1
 8000208:	d200      	bcs.n	800020c <__udivsi3+0xf8>
 800020a:	4601      	mov	r1, r0
 800020c:	4152      	adcs	r2, r2
 800020e:	4610      	mov	r0, r2
 8000210:	4770      	bx	lr
 8000212:	e7ff      	b.n	8000214 <__udivsi3+0x100>
 8000214:	b501      	push	{r0, lr}
 8000216:	2000      	movs	r0, #0
 8000218:	f000 f8f0 	bl	80003fc <__aeabi_idiv0>
 800021c:	bd02      	pop	{r1, pc}
 800021e:	46c0      	nop			@ (mov r8, r8)

08000220 <__aeabi_uidivmod>:
 8000220:	2900      	cmp	r1, #0
 8000222:	d0f7      	beq.n	8000214 <__udivsi3+0x100>
 8000224:	e776      	b.n	8000114 <__udivsi3>
 8000226:	4770      	bx	lr

08000228 <__divsi3>:
 8000228:	4603      	mov	r3, r0
 800022a:	430b      	orrs	r3, r1
 800022c:	d47f      	bmi.n	800032e <__divsi3+0x106>
 800022e:	2200      	movs	r2, #0
 8000230:	0843      	lsrs	r3, r0, #1
 8000232:	428b      	cmp	r3, r1
 8000234:	d374      	bcc.n	8000320 <__divsi3+0xf8>
 8000236:	0903      	lsrs	r3, r0, #4
 8000238:	428b      	cmp	r3, r1
 800023a:	d35f      	bcc.n	80002fc <__divsi3+0xd4>
 800023c:	0a03      	lsrs	r3, r0, #8
 800023e:	428b      	cmp	r3, r1
 8000240:	d344      	bcc.n	80002cc <__divsi3+0xa4>
 8000242:	0b03      	lsrs	r3, r0, #12
 8000244:	428b      	cmp	r3, r1
 8000246:	d328      	bcc.n	800029a <__divsi3+0x72>
 8000248:	0c03      	lsrs	r3, r0, #16
 800024a:	428b      	cmp	r3, r1
 800024c:	d30d      	bcc.n	800026a <__divsi3+0x42>
 800024e:	22ff      	movs	r2, #255	@ 0xff
 8000250:	0209      	lsls	r1, r1, #8
 8000252:	ba12      	rev	r2, r2
 8000254:	0c03      	lsrs	r3, r0, #16
 8000256:	428b      	cmp	r3, r1
 8000258:	d302      	bcc.n	8000260 <__divsi3+0x38>
 800025a:	1212      	asrs	r2, r2, #8
 800025c:	0209      	lsls	r1, r1, #8
 800025e:	d065      	beq.n	800032c <__divsi3+0x104>
 8000260:	0b03      	lsrs	r3, r0, #12
 8000262:	428b      	cmp	r3, r1
 8000264:	d319      	bcc.n	800029a <__divsi3+0x72>
 8000266:	e000      	b.n	800026a <__divsi3+0x42>
 8000268:	0a09      	lsrs	r1, r1, #8
 800026a:	0bc3      	lsrs	r3, r0, #15
 800026c:	428b      	cmp	r3, r1
 800026e:	d301      	bcc.n	8000274 <__divsi3+0x4c>
 8000270:	03cb      	lsls	r3, r1, #15
 8000272:	1ac0      	subs	r0, r0, r3
 8000274:	4152      	adcs	r2, r2
 8000276:	0b83      	lsrs	r3, r0, #14
 8000278:	428b      	cmp	r3, r1
 800027a:	d301      	bcc.n	8000280 <__divsi3+0x58>
 800027c:	038b      	lsls	r3, r1, #14
 800027e:	1ac0      	subs	r0, r0, r3
 8000280:	4152      	adcs	r2, r2
 8000282:	0b43      	lsrs	r3, r0, #13
 8000284:	428b      	cmp	r3, r1
 8000286:	d301      	bcc.n	800028c <__divsi3+0x64>
 8000288:	034b      	lsls	r3, r1, #13
 800028a:	1ac0      	subs	r0, r0, r3
 800028c:	4152      	adcs	r2, r2
 800028e:	0b03      	lsrs	r3, r0, #12
 8000290:	428b      	cmp	r3, r1
 8000292:	d301      	bcc.n	8000298 <__divsi3+0x70>
 8000294:	030b      	lsls	r3, r1, #12
 8000296:	1ac0      	subs	r0, r0, r3
 8000298:	4152      	adcs	r2, r2
 800029a:	0ac3      	lsrs	r3, r0, #11
 800029c:	428b      	cmp	r3, r1
 800029e:	d301      	bcc.n	80002a4 <__divsi3+0x7c>
 80002a0:	02cb      	lsls	r3, r1, #11
 80002a2:	1ac0      	subs	r0, r0, r3
 80002a4:	4152      	adcs	r2, r2
 80002a6:	0a83      	lsrs	r3, r0, #10
 80002a8:	428b      	cmp	r3, r1
 80002aa:	d301      	bcc.n	80002b0 <__divsi3+0x88>
 80002ac:	028b      	lsls	r3, r1, #10
 80002ae:	1ac0      	subs	r0, r0, r3
 80002b0:	4152      	adcs	r2, r2
 80002b2:	0a43      	lsrs	r3, r0, #9
 80002b4:	428b      	cmp	r3, r1
 80002b6:	d301      	bcc.n	80002bc <__divsi3+0x94>
 80002b8:	024b      	lsls	r3, r1, #9
 80002ba:	1ac0      	subs	r0, r0, r3
 80002bc:	4152      	adcs	r2, r2
 80002be:	0a03      	lsrs	r3, r0, #8
 80002c0:	428b      	cmp	r3, r1
 80002c2:	d301      	bcc.n	80002c8 <__divsi3+0xa0>
 80002c4:	020b      	lsls	r3, r1, #8
 80002c6:	1ac0      	subs	r0, r0, r3
 80002c8:	4152      	adcs	r2, r2
 80002ca:	d2cd      	bcs.n	8000268 <__divsi3+0x40>
 80002cc:	09c3      	lsrs	r3, r0, #7
 80002ce:	428b      	cmp	r3, r1
 80002d0:	d301      	bcc.n	80002d6 <__divsi3+0xae>
 80002d2:	01cb      	lsls	r3, r1, #7
 80002d4:	1ac0      	subs	r0, r0, r3
 80002d6:	4152      	adcs	r2, r2
 80002d8:	0983      	lsrs	r3, r0, #6
 80002da:	428b      	cmp	r3, r1
 80002dc:	d301      	bcc.n	80002e2 <__divsi3+0xba>
 80002de:	018b      	lsls	r3, r1, #6
 80002e0:	1ac0      	subs	r0, r0, r3
 80002e2:	4152      	adcs	r2, r2
 80002e4:	0943      	lsrs	r3, r0, #5
 80002e6:	428b      	cmp	r3, r1
 80002e8:	d301      	bcc.n	80002ee <__divsi3+0xc6>
 80002ea:	014b      	lsls	r3, r1, #5
 80002ec:	1ac0      	subs	r0, r0, r3
 80002ee:	4152      	adcs	r2, r2
 80002f0:	0903      	lsrs	r3, r0, #4
 80002f2:	428b      	cmp	r3, r1
 80002f4:	d301      	bcc.n	80002fa <__divsi3+0xd2>
 80002f6:	010b      	lsls	r3, r1, #4
 80002f8:	1ac0      	subs	r0, r0, r3
 80002fa:	4152      	adcs	r2, r2
 80002fc:	08c3      	lsrs	r3, r0, #3
 80002fe:	428b      	cmp	r3, r1
 8000300:	d301      	bcc.n	8000306 <__divsi3+0xde>
 8000302:	00cb      	lsls	r3, r1, #3
 8000304:	1ac0      	subs	r0, r0, r3
 8000306:	4152      	adcs	r2, r2
 8000308:	0883      	lsrs	r3, r0, #2
 800030a:	428b      	cmp	r3, r1
 800030c:	d301      	bcc.n	8000312 <__divsi3+0xea>
 800030e:	008b      	lsls	r3, r1, #2
 8000310:	1ac0      	subs	r0, r0, r3
 8000312:	4152      	adcs	r2, r2
 8000314:	0843      	lsrs	r3, r0, #1
 8000316:	428b      	cmp	r3, r1
 8000318:	d301      	bcc.n	800031e <__divsi3+0xf6>
 800031a:	004b      	lsls	r3, r1, #1
 800031c:	1ac0      	subs	r0, r0, r3
 800031e:	4152      	adcs	r2, r2
 8000320:	1a41      	subs	r1, r0, r1
 8000322:	d200      	bcs.n	8000326 <__divsi3+0xfe>
 8000324:	4601      	mov	r1, r0
 8000326:	4152      	adcs	r2, r2
 8000328:	4610      	mov	r0, r2
 800032a:	4770      	bx	lr
 800032c:	e05d      	b.n	80003ea <__divsi3+0x1c2>
 800032e:	0fca      	lsrs	r2, r1, #31
 8000330:	d000      	beq.n	8000334 <__divsi3+0x10c>
 8000332:	4249      	negs	r1, r1
 8000334:	1003      	asrs	r3, r0, #32
 8000336:	d300      	bcc.n	800033a <__divsi3+0x112>
 8000338:	4240      	negs	r0, r0
 800033a:	4053      	eors	r3, r2
 800033c:	2200      	movs	r2, #0
 800033e:	469c      	mov	ip, r3
 8000340:	0903      	lsrs	r3, r0, #4
 8000342:	428b      	cmp	r3, r1
 8000344:	d32d      	bcc.n	80003a2 <__divsi3+0x17a>
 8000346:	0a03      	lsrs	r3, r0, #8
 8000348:	428b      	cmp	r3, r1
 800034a:	d312      	bcc.n	8000372 <__divsi3+0x14a>
 800034c:	22fc      	movs	r2, #252	@ 0xfc
 800034e:	0189      	lsls	r1, r1, #6
 8000350:	ba12      	rev	r2, r2
 8000352:	0a03      	lsrs	r3, r0, #8
 8000354:	428b      	cmp	r3, r1
 8000356:	d30c      	bcc.n	8000372 <__divsi3+0x14a>
 8000358:	0189      	lsls	r1, r1, #6
 800035a:	1192      	asrs	r2, r2, #6
 800035c:	428b      	cmp	r3, r1
 800035e:	d308      	bcc.n	8000372 <__divsi3+0x14a>
 8000360:	0189      	lsls	r1, r1, #6
 8000362:	1192      	asrs	r2, r2, #6
 8000364:	428b      	cmp	r3, r1
 8000366:	d304      	bcc.n	8000372 <__divsi3+0x14a>
 8000368:	0189      	lsls	r1, r1, #6
 800036a:	d03a      	beq.n	80003e2 <__divsi3+0x1ba>
 800036c:	1192      	asrs	r2, r2, #6
 800036e:	e000      	b.n	8000372 <__divsi3+0x14a>
 8000370:	0989      	lsrs	r1, r1, #6
 8000372:	09c3      	lsrs	r3, r0, #7
 8000374:	428b      	cmp	r3, r1
 8000376:	d301      	bcc.n	800037c <__divsi3+0x154>
 8000378:	01cb      	lsls	r3, r1, #7
 800037a:	1ac0      	subs	r0, r0, r3
 800037c:	4152      	adcs	r2, r2
 800037e:	0983      	lsrs	r3, r0, #6
 8000380:	428b      	cmp	r3, r1
 8000382:	d301      	bcc.n	8000388 <__divsi3+0x160>
 8000384:	018b      	lsls	r3, r1, #6
 8000386:	1ac0      	subs	r0, r0, r3
 8000388:	4152      	adcs	r2, r2
 800038a:	0943      	lsrs	r3, r0, #5
 800038c:	428b      	cmp	r3, r1
 800038e:	d301      	bcc.n	8000394 <__divsi3+0x16c>
 8000390:	014b      	lsls	r3, r1, #5
 8000392:	1ac0      	subs	r0, r0, r3
 8000394:	4152      	adcs	r2, r2
 8000396:	0903      	lsrs	r3, r0, #4
 8000398:	428b      	cmp	r3, r1
 800039a:	d301      	bcc.n	80003a0 <__divsi3+0x178>
 800039c:	010b      	lsls	r3, r1, #4
 800039e:	1ac0      	subs	r0, r0, r3
 80003a0:	4152      	adcs	r2, r2
 80003a2:	08c3      	lsrs	r3, r0, #3
 80003a4:	428b      	cmp	r3, r1
 80003a6:	d301      	bcc.n	80003ac <__divsi3+0x184>
 80003a8:	00cb      	lsls	r3, r1, #3
 80003aa:	1ac0      	subs	r0, r0, r3
 80003ac:	4152      	adcs	r2, r2
 80003ae:	0883      	lsrs	r3, r0, #2
 80003b0:	428b      	cmp	r3, r1
 80003b2:	d301      	bcc.n	80003b8 <__divsi3+0x190>
 80003b4:	008b      	lsls	r3, r1, #2
 80003b6:	1ac0      	subs	r0, r0, r3
 80003b8:	4152      	adcs	r2, r2
 80003ba:	d2d9      	bcs.n	8000370 <__divsi3+0x148>
 80003bc:	0843      	lsrs	r3, r0, #1
 80003be:	428b      	cmp	r3, r1
 80003c0:	d301      	bcc.n	80003c6 <__divsi3+0x19e>
 80003c2:	004b      	lsls	r3, r1, #1
 80003c4:	1ac0      	subs	r0, r0, r3
 80003c6:	4152      	adcs	r2, r2
 80003c8:	1a41      	subs	r1, r0, r1
 80003ca:	d200      	bcs.n	80003ce <__divsi3+0x1a6>
 80003cc:	4601      	mov	r1, r0
 80003ce:	4663      	mov	r3, ip
 80003d0:	4152      	adcs	r2, r2
 80003d2:	105b      	asrs	r3, r3, #1
 80003d4:	4610      	mov	r0, r2
 80003d6:	d301      	bcc.n	80003dc <__divsi3+0x1b4>
 80003d8:	4240      	negs	r0, r0
 80003da:	2b00      	cmp	r3, #0
 80003dc:	d500      	bpl.n	80003e0 <__divsi3+0x1b8>
 80003de:	4249      	negs	r1, r1
 80003e0:	4770      	bx	lr
 80003e2:	4663      	mov	r3, ip
 80003e4:	105b      	asrs	r3, r3, #1
 80003e6:	d300      	bcc.n	80003ea <__divsi3+0x1c2>
 80003e8:	4240      	negs	r0, r0
 80003ea:	b501      	push	{r0, lr}
 80003ec:	2000      	movs	r0, #0
 80003ee:	f000 f805 	bl	80003fc <__aeabi_idiv0>
 80003f2:	bd02      	pop	{r1, pc}

080003f4 <__aeabi_idivmod>:
 80003f4:	2900      	cmp	r1, #0
 80003f6:	d0f8      	beq.n	80003ea <__divsi3+0x1c2>
 80003f8:	e716      	b.n	8000228 <__divsi3>
 80003fa:	4770      	bx	lr

080003fc <__aeabi_idiv0>:
 80003fc:	4770      	bx	lr
 80003fe:	46c0      	nop			@ (mov r8, r8)

08000400 <calculate_checksum>:


/* USER CODE BEGIN PFP */

// Calculate simple checksum
uint32_t calculate_checksum(Settings_t *s) {
 8000400:	b580      	push	{r7, lr}
 8000402:	b084      	sub	sp, #16
 8000404:	af00      	add	r7, sp, #0
 8000406:	6078      	str	r0, [r7, #4]
    uint32_t checksum = 0x12345678;  // Magic number
 8000408:	4b10      	ldr	r3, [pc, #64]	@ (800044c <calculate_checksum+0x4c>)
 800040a:	60fb      	str	r3, [r7, #12]
    checksum ^= s->total_taps;
 800040c:	687b      	ldr	r3, [r7, #4]
 800040e:	681b      	ldr	r3, [r3, #0]
 8000410:	68fa      	ldr	r2, [r7, #12]
 8000412:	4053      	eors	r3, r2
 8000414:	60fb      	str	r3, [r7, #12]
    checksum ^= s->left_taps;
 8000416:	687b      	ldr	r3, [r7, #4]
 8000418:	685b      	ldr	r3, [r3, #4]
 800041a:	68fa      	ldr	r2, [r7, #12]
 800041c:	4053      	eors	r3, r2
 800041e:	60fb      	str	r3, [r7, #12]
    checksum ^= s->right_taps;
 8000420:	687b      	ldr	r3, [r7, #4]
 8000422:	689b      	ldr	r3, [r3, #8]
 8000424:	68fa      	ldr	r2, [r7, #12]
 8000426:	4053      	eors	r3, r2
 8000428:	60fb      	str	r3, [r7, #12]
    checksum ^= ((uint32_t)s->display_inverted << 8);
 800042a:	687b      	ldr	r3, [r7, #4]
 800042c:	7b1b      	ldrb	r3, [r3, #12]
 800042e:	021b      	lsls	r3, r3, #8
 8000430:	68fa      	ldr	r2, [r7, #12]
 8000432:	4053      	eors	r3, r2
 8000434:	60fb      	str	r3, [r7, #12]
    checksum ^= ((uint32_t)s->display_mode << 16);
 8000436:	687b      	ldr	r3, [r7, #4]
 8000438:	7b5b      	ldrb	r3, [r3, #13]
 800043a:	041b      	lsls	r3, r3, #16
 800043c:	68fa      	ldr	r2, [r7, #12]
 800043e:	4053      	eors	r3, r2
 8000440:	60fb      	str	r3, [r7, #12]
    return checksum;
 8000442:	68fb      	ldr	r3, [r7, #12]
}
 8000444:	0018      	movs	r0, r3
 8000446:	46bd      	mov	sp, r7
 8000448:	b004      	add	sp, #16
 800044a:	bd80      	pop	{r7, pc}
 800044c:	12345678 	.word	0x12345678

08000450 <toggle_display_invert>:

void toggle_display_invert(void) {
 8000450:	b580      	push	{r7, lr}
 8000452:	b082      	sub	sp, #8
 8000454:	af00      	add	r7, sp, #0
    settings.display_inverted = !settings.display_inverted;
 8000456:	4b17      	ldr	r3, [pc, #92]	@ (80004b4 <toggle_display_invert+0x64>)
 8000458:	7b1b      	ldrb	r3, [r3, #12]
 800045a:	425a      	negs	r2, r3
 800045c:	4153      	adcs	r3, r2
 800045e:	b2db      	uxtb	r3, r3
 8000460:	001a      	movs	r2, r3
 8000462:	4b14      	ldr	r3, [pc, #80]	@ (80004b4 <toggle_display_invert+0x64>)
 8000464:	731a      	strb	r2, [r3, #12]
    ssd1306_InvertDisplay(settings.display_inverted);
 8000466:	4b13      	ldr	r3, [pc, #76]	@ (80004b4 <toggle_display_invert+0x64>)
 8000468:	7b1b      	ldrb	r3, [r3, #12]
 800046a:	0018      	movs	r0, r3
 800046c:	f001 fad0 	bl	8001a10 <ssd1306_InvertDisplay>

    // Mark data as changed
    data_changed = 1;
 8000470:	4b11      	ldr	r3, [pc, #68]	@ (80004b8 <toggle_display_invert+0x68>)
 8000472:	2201      	movs	r2, #1
 8000474:	701a      	strb	r2, [r3, #0]

    // Visual feedback
    for(int i = 0; i < 2; i++) {
 8000476:	2300      	movs	r3, #0
 8000478:	607b      	str	r3, [r7, #4]
 800047a:	e012      	b.n	80004a2 <toggle_display_invert+0x52>
        ssd1306_Fill(White);
 800047c:	2001      	movs	r0, #1
 800047e:	f001 f859 	bl	8001534 <ssd1306_Fill>
        ssd1306_UpdateScreen();
 8000482:	f001 f871 	bl	8001568 <ssd1306_UpdateScreen>
        HAL_Delay(50);
 8000486:	2032      	movs	r0, #50	@ 0x32
 8000488:	f001 fcba 	bl	8001e00 <HAL_Delay>
        ssd1306_Fill(Black);
 800048c:	2000      	movs	r0, #0
 800048e:	f001 f851 	bl	8001534 <ssd1306_Fill>
        ssd1306_UpdateScreen();
 8000492:	f001 f869 	bl	8001568 <ssd1306_UpdateScreen>
        HAL_Delay(50);
 8000496:	2032      	movs	r0, #50	@ 0x32
 8000498:	f001 fcb2 	bl	8001e00 <HAL_Delay>
    for(int i = 0; i < 2; i++) {
 800049c:	687b      	ldr	r3, [r7, #4]
 800049e:	3301      	adds	r3, #1
 80004a0:	607b      	str	r3, [r7, #4]
 80004a2:	687b      	ldr	r3, [r7, #4]
 80004a4:	2b01      	cmp	r3, #1
 80004a6:	dde9      	ble.n	800047c <toggle_display_invert+0x2c>
    }
}
 80004a8:	46c0      	nop			@ (mov r8, r8)
 80004aa:	46c0      	nop			@ (mov r8, r8)
 80004ac:	46bd      	mov	sp, r7
 80004ae:	b002      	add	sp, #8
 80004b0:	bd80      	pop	{r7, pc}
 80004b2:	46c0      	nop			@ (mov r8, r8)
 80004b4:	200001c0 	.word	0x200001c0
 80004b8:	200001e0 	.word	0x200001e0

080004bc <draw_animation>:

void draw_animation(char* frame){
 80004bc:	b580      	push	{r7, lr}
 80004be:	b084      	sub	sp, #16
 80004c0:	af02      	add	r7, sp, #8
 80004c2:	6078      	str	r0, [r7, #4]
    ssd1306_Fill(Black);
 80004c4:	2000      	movs	r0, #0
 80004c6:	f001 f835 	bl	8001534 <ssd1306_Fill>
    ssd1306_DrawBitmap(0,0,frame,128,64,White);
 80004ca:	687a      	ldr	r2, [r7, #4]
 80004cc:	2301      	movs	r3, #1
 80004ce:	9301      	str	r3, [sp, #4]
 80004d0:	2340      	movs	r3, #64	@ 0x40
 80004d2:	9300      	str	r3, [sp, #0]
 80004d4:	2380      	movs	r3, #128	@ 0x80
 80004d6:	2100      	movs	r1, #0
 80004d8:	2000      	movs	r0, #0
 80004da:	f001 f9cd 	bl	8001878 <ssd1306_DrawBitmap>
    current_frame = frame;  // Store current frame
 80004de:	4b03      	ldr	r3, [pc, #12]	@ (80004ec <draw_animation+0x30>)
 80004e0:	687a      	ldr	r2, [r7, #4]
 80004e2:	601a      	str	r2, [r3, #0]
}
 80004e4:	46c0      	nop			@ (mov r8, r8)
 80004e6:	46bd      	mov	sp, r7
 80004e8:	b002      	add	sp, #8
 80004ea:	bd80      	pop	{r7, pc}
 80004ec:	200001ec 	.word	0x200001ec

080004f0 <draw_animation_erase>:
    // Draw without clearing - useful for transitions
    ssd1306_DrawBitmap(0,0,frame,128,64,White);
    current_frame = frame;
}

void draw_animation_erase(char* frame){
 80004f0:	b580      	push	{r7, lr}
 80004f2:	b084      	sub	sp, #16
 80004f4:	af02      	add	r7, sp, #8
 80004f6:	6078      	str	r0, [r7, #4]
    ssd1306_DrawBitmap(0,0,frame,128,64,Black);
 80004f8:	687a      	ldr	r2, [r7, #4]
 80004fa:	2300      	movs	r3, #0
 80004fc:	9301      	str	r3, [sp, #4]
 80004fe:	2340      	movs	r3, #64	@ 0x40
 8000500:	9300      	str	r3, [sp, #0]
 8000502:	2380      	movs	r3, #128	@ 0x80
 8000504:	2100      	movs	r1, #0
 8000506:	2000      	movs	r0, #0
 8000508:	f001 f9b6 	bl	8001878 <ssd1306_DrawBitmap>
}
 800050c:	46c0      	nop			@ (mov r8, r8)
 800050e:	46bd      	mov	sp, r7
 8000510:	b002      	add	sp, #8
 8000512:	bd80      	pop	{r7, pc}

08000514 <draw_animation_transparent>:

void draw_animation_transparent(char* frame){
 8000514:	b580      	push	{r7, lr}
 8000516:	b084      	sub	sp, #16
 8000518:	af02      	add	r7, sp, #8
 800051a:	6078      	str	r0, [r7, #4]
    ssd1306_DrawBitmap(0,0,frame,128,64,White);
 800051c:	687a      	ldr	r2, [r7, #4]
 800051e:	2301      	movs	r3, #1
 8000520:	9301      	str	r3, [sp, #4]
 8000522:	2340      	movs	r3, #64	@ 0x40
 8000524:	9300      	str	r3, [sp, #0]
 8000526:	2380      	movs	r3, #128	@ 0x80
 8000528:	2100      	movs	r1, #0
 800052a:	2000      	movs	r0, #0
 800052c:	f001 f9a4 	bl	8001878 <ssd1306_DrawBitmap>
}
 8000530:	46c0      	nop			@ (mov r8, r8)
 8000532:	46bd      	mov	sp, r7
 8000534:	b002      	add	sp, #8
 8000536:	bd80      	pop	{r7, pc}

08000538 <readPins>:

void readPins(){
 8000538:	b580      	push	{r7, lr}
 800053a:	af00      	add	r7, sp, #0
    sw_state_left = HAL_GPIO_ReadPin(SW_LEFT_GPIO_Port, SW_LEFT_Pin);
 800053c:	23a0      	movs	r3, #160	@ 0xa0
 800053e:	05db      	lsls	r3, r3, #23
 8000540:	2140      	movs	r1, #64	@ 0x40
 8000542:	0018      	movs	r0, r3
 8000544:	f002 f868 	bl	8002618 <HAL_GPIO_ReadPin>
 8000548:	0003      	movs	r3, r0
 800054a:	001a      	movs	r2, r3
 800054c:	4b06      	ldr	r3, [pc, #24]	@ (8000568 <readPins+0x30>)
 800054e:	601a      	str	r2, [r3, #0]
    sw_state_right = HAL_GPIO_ReadPin(SW_RIGHT_GPIO_Port, SW_RIGHT_Pin);
 8000550:	4b06      	ldr	r3, [pc, #24]	@ (800056c <readPins+0x34>)
 8000552:	2101      	movs	r1, #1
 8000554:	0018      	movs	r0, r3
 8000556:	f002 f85f 	bl	8002618 <HAL_GPIO_ReadPin>
 800055a:	0003      	movs	r3, r0
 800055c:	001a      	movs	r2, r3
 800055e:	4b04      	ldr	r3, [pc, #16]	@ (8000570 <readPins+0x38>)
 8000560:	601a      	str	r2, [r3, #0]
}
 8000562:	46c0      	nop			@ (mov r8, r8)
 8000564:	46bd      	mov	sp, r7
 8000566:	bd80      	pop	{r7, pc}
 8000568:	200001b4 	.word	0x200001b4
 800056c:	50000400 	.word	0x50000400
 8000570:	200001b8 	.word	0x200001b8

08000574 <display_tap_count_overlay>:

// Display tap count as overlay
void display_tap_count_overlay(void) {
 8000574:	b580      	push	{r7, lr}
 8000576:	b08a      	sub	sp, #40	@ 0x28
 8000578:	af02      	add	r7, sp, #8
    char buffer[32];
    // Display counts in a single line to save space
    sprintf(buffer, "%lu", settings.total_taps);
 800057a:	4b0c      	ldr	r3, [pc, #48]	@ (80005ac <display_tap_count_overlay+0x38>)
 800057c:	681a      	ldr	r2, [r3, #0]
 800057e:	490c      	ldr	r1, [pc, #48]	@ (80005b0 <display_tap_count_overlay+0x3c>)
 8000580:	003b      	movs	r3, r7
 8000582:	0018      	movs	r0, r3
 8000584:	f003 fde8 	bl	8004158 <siprintf>
    ssd1306_SetCursor(2, 1);
 8000588:	2101      	movs	r1, #1
 800058a:	2002      	movs	r0, #2
 800058c:	f001 f95a 	bl	8001844 <ssd1306_SetCursor>
    ssd1306_WriteString(buffer, ComicSans_11x12, White);
 8000590:	4b08      	ldr	r3, [pc, #32]	@ (80005b4 <display_tap_count_overlay+0x40>)
 8000592:	0038      	movs	r0, r7
 8000594:	2201      	movs	r2, #1
 8000596:	9200      	str	r2, [sp, #0]
 8000598:	6819      	ldr	r1, [r3, #0]
 800059a:	685a      	ldr	r2, [r3, #4]
 800059c:	689b      	ldr	r3, [r3, #8]
 800059e:	f001 f925 	bl	80017ec <ssd1306_WriteString>
}
 80005a2:	46c0      	nop			@ (mov r8, r8)
 80005a4:	46bd      	mov	sp, r7
 80005a6:	b008      	add	sp, #32
 80005a8:	bd80      	pop	{r7, pc}
 80005aa:	46c0      	nop			@ (mov r8, r8)
 80005ac:	200001c0 	.word	0x200001c0
 80005b0:	08004ac0 	.word	0x08004ac0
 80005b4:	08008090 	.word	0x08008090

080005b8 <display_saved_indicator>:

// Display saved indicator
void display_saved_indicator(void) {
 80005b8:	b580      	push	{r7, lr}
 80005ba:	b082      	sub	sp, #8
 80005bc:	af02      	add	r7, sp, #8
    // Display "saved!" in bottom right corner
    ssd1306_SetCursor(80, 52);
 80005be:	2134      	movs	r1, #52	@ 0x34
 80005c0:	2050      	movs	r0, #80	@ 0x50
 80005c2:	f001 f93f 	bl	8001844 <ssd1306_SetCursor>
    ssd1306_WriteString("saved!", ComicSans_11x12, White);
 80005c6:	4b06      	ldr	r3, [pc, #24]	@ (80005e0 <display_saved_indicator+0x28>)
 80005c8:	4806      	ldr	r0, [pc, #24]	@ (80005e4 <display_saved_indicator+0x2c>)
 80005ca:	2201      	movs	r2, #1
 80005cc:	9200      	str	r2, [sp, #0]
 80005ce:	6819      	ldr	r1, [r3, #0]
 80005d0:	685a      	ldr	r2, [r3, #4]
 80005d2:	689b      	ldr	r3, [r3, #8]
 80005d4:	f001 f90a 	bl	80017ec <ssd1306_WriteString>
}
 80005d8:	46c0      	nop			@ (mov r8, r8)
 80005da:	46bd      	mov	sp, r7
 80005dc:	bd80      	pop	{r7, pc}
 80005de:	46c0      	nop			@ (mov r8, r8)
 80005e0:	08008090 	.word	0x08008090
 80005e4:	08004ac4 	.word	0x08004ac4

080005e8 <update_display_with_overlays>:

// Update display with overlays
void update_display_with_overlays(void) {
 80005e8:	b580      	push	{r7, lr}
 80005ea:	af00      	add	r7, sp, #0
    // Draw overlay on top if enabled
    if (settings.display_mode) {
 80005ec:	4b08      	ldr	r3, [pc, #32]	@ (8000610 <update_display_with_overlays+0x28>)
 80005ee:	7b5b      	ldrb	r3, [r3, #13]
 80005f0:	2b00      	cmp	r3, #0
 80005f2:	d001      	beq.n	80005f8 <update_display_with_overlays+0x10>
        display_tap_count_overlay();
 80005f4:	f7ff ffbe 	bl	8000574 <display_tap_count_overlay>
    }

    // Show saved indicator if active
    if (show_saved_indicator) {
 80005f8:	4b06      	ldr	r3, [pc, #24]	@ (8000614 <update_display_with_overlays+0x2c>)
 80005fa:	781b      	ldrb	r3, [r3, #0]
 80005fc:	2b00      	cmp	r3, #0
 80005fe:	d001      	beq.n	8000604 <update_display_with_overlays+0x1c>
        display_saved_indicator();
 8000600:	f7ff ffda 	bl	80005b8 <display_saved_indicator>
    }

    ssd1306_UpdateScreen();
 8000604:	f000 ffb0 	bl	8001568 <ssd1306_UpdateScreen>
}
 8000608:	46c0      	nop			@ (mov r8, r8)
 800060a:	46bd      	mov	sp, r7
 800060c:	bd80      	pop	{r7, pc}
 800060e:	46c0      	nop			@ (mov r8, r8)
 8000610:	200001c0 	.word	0x200001c0
 8000614:	200001e8 	.word	0x200001e8

08000618 <redraw_current_frame>:

// Redraw current frame with overlays
void redraw_current_frame(void) {
 8000618:	b580      	push	{r7, lr}
 800061a:	af00      	add	r7, sp, #0
    if (current_frame != NULL) {
 800061c:	4b06      	ldr	r3, [pc, #24]	@ (8000638 <redraw_current_frame+0x20>)
 800061e:	681b      	ldr	r3, [r3, #0]
 8000620:	2b00      	cmp	r3, #0
 8000622:	d006      	beq.n	8000632 <redraw_current_frame+0x1a>
        draw_animation(current_frame);
 8000624:	4b04      	ldr	r3, [pc, #16]	@ (8000638 <redraw_current_frame+0x20>)
 8000626:	681b      	ldr	r3, [r3, #0]
 8000628:	0018      	movs	r0, r3
 800062a:	f7ff ff47 	bl	80004bc <draw_animation>
        update_display_with_overlays();
 800062e:	f7ff ffdb 	bl	80005e8 <update_display_with_overlays>
    }
}
 8000632:	46c0      	nop			@ (mov r8, r8)
 8000634:	46bd      	mov	sp, r7
 8000636:	bd80      	pop	{r7, pc}
 8000638:	200001ec 	.word	0x200001ec

0800063c <save_settings>:

// Save all settings to flash
void save_settings(void) {
 800063c:	b580      	push	{r7, lr}
 800063e:	b08a      	sub	sp, #40	@ 0x28
 8000640:	af00      	add	r7, sp, #0
    // Update checksum
    settings.checksum = calculate_checksum(&settings);
 8000642:	4b26      	ldr	r3, [pc, #152]	@ (80006dc <save_settings+0xa0>)
 8000644:	0018      	movs	r0, r3
 8000646:	f7ff fedb 	bl	8000400 <calculate_checksum>
 800064a:	0002      	movs	r2, r0
 800064c:	4b23      	ldr	r3, [pc, #140]	@ (80006dc <save_settings+0xa0>)
 800064e:	611a      	str	r2, [r3, #16]

    HAL_FLASH_Unlock();
 8000650:	f001 fd26 	bl	80020a0 <HAL_FLASH_Unlock>

    FLASH_EraseInitTypeDef EraseInitStruct;
    uint32_t PageError;

    EraseInitStruct.TypeErase = FLASH_TYPEERASE_PAGES;
 8000654:	2108      	movs	r1, #8
 8000656:	187b      	adds	r3, r7, r1
 8000658:	2202      	movs	r2, #2
 800065a:	601a      	str	r2, [r3, #0]
    EraseInitStruct.Page = 31;  // Last page for 64KB device
 800065c:	187b      	adds	r3, r7, r1
 800065e:	221f      	movs	r2, #31
 8000660:	609a      	str	r2, [r3, #8]
    EraseInitStruct.NbPages = 1;
 8000662:	187b      	adds	r3, r7, r1
 8000664:	2201      	movs	r2, #1
 8000666:	60da      	str	r2, [r3, #12]

    HAL_FLASHEx_Erase(&EraseInitStruct, &PageError);
 8000668:	1d3a      	adds	r2, r7, #4
 800066a:	187b      	adds	r3, r7, r1
 800066c:	0011      	movs	r1, r2
 800066e:	0018      	movs	r0, r3
 8000670:	f001 fdca 	bl	8002208 <HAL_FLASHEx_Erase>

    // Write entire structure using doubleword programming
    uint64_t *data = (uint64_t*)&settings;
 8000674:	4b19      	ldr	r3, [pc, #100]	@ (80006dc <save_settings+0xa0>)
 8000676:	61fb      	str	r3, [r7, #28]
    uint32_t address = FLASH_USER_START_ADDR;
 8000678:	4b19      	ldr	r3, [pc, #100]	@ (80006e0 <save_settings+0xa4>)
 800067a:	627b      	str	r3, [r7, #36]	@ 0x24

    // Calculate number of doublewords to write
    int doublewords = (sizeof(Settings_t) + 7) / 8;  // Round up to nearest 8 bytes
 800067c:	2303      	movs	r3, #3
 800067e:	61bb      	str	r3, [r7, #24]

    for(int i = 0; i < doublewords; i++) {
 8000680:	2300      	movs	r3, #0
 8000682:	623b      	str	r3, [r7, #32]
 8000684:	e00f      	b.n	80006a6 <save_settings+0x6a>
        HAL_FLASH_Program(FLASH_TYPEPROGRAM_DOUBLEWORD, address, data[i]);
 8000686:	6a3b      	ldr	r3, [r7, #32]
 8000688:	00db      	lsls	r3, r3, #3
 800068a:	69fa      	ldr	r2, [r7, #28]
 800068c:	18d3      	adds	r3, r2, r3
 800068e:	681a      	ldr	r2, [r3, #0]
 8000690:	685b      	ldr	r3, [r3, #4]
 8000692:	6a79      	ldr	r1, [r7, #36]	@ 0x24
 8000694:	2001      	movs	r0, #1
 8000696:	f001 fcb5 	bl	8002004 <HAL_FLASH_Program>
        address += 8;
 800069a:	6a7b      	ldr	r3, [r7, #36]	@ 0x24
 800069c:	3308      	adds	r3, #8
 800069e:	627b      	str	r3, [r7, #36]	@ 0x24
    for(int i = 0; i < doublewords; i++) {
 80006a0:	6a3b      	ldr	r3, [r7, #32]
 80006a2:	3301      	adds	r3, #1
 80006a4:	623b      	str	r3, [r7, #32]
 80006a6:	6a3a      	ldr	r2, [r7, #32]
 80006a8:	69bb      	ldr	r3, [r7, #24]
 80006aa:	429a      	cmp	r2, r3
 80006ac:	dbeb      	blt.n	8000686 <save_settings+0x4a>
    }

    HAL_FLASH_Lock();
 80006ae:	f001 fd1b 	bl	80020e8 <HAL_FLASH_Lock>

    // Update last save time
    last_save_time = HAL_GetTick();
 80006b2:	f001 fb9b 	bl	8001dec <HAL_GetTick>
 80006b6:	0002      	movs	r2, r0
 80006b8:	4b0a      	ldr	r3, [pc, #40]	@ (80006e4 <save_settings+0xa8>)
 80006ba:	601a      	str	r2, [r3, #0]
    data_changed = 0;  // Clear the changed flag
 80006bc:	4b0a      	ldr	r3, [pc, #40]	@ (80006e8 <save_settings+0xac>)
 80006be:	2200      	movs	r2, #0
 80006c0:	701a      	strb	r2, [r3, #0]

    // Trigger saved indicator
    show_saved_indicator = 1;
 80006c2:	4b0a      	ldr	r3, [pc, #40]	@ (80006ec <save_settings+0xb0>)
 80006c4:	2201      	movs	r2, #1
 80006c6:	701a      	strb	r2, [r3, #0]
    saved_indicator_timer = HAL_GetTick();
 80006c8:	f001 fb90 	bl	8001dec <HAL_GetTick>
 80006cc:	0002      	movs	r2, r0
 80006ce:	4b08      	ldr	r3, [pc, #32]	@ (80006f0 <save_settings+0xb4>)
 80006d0:	601a      	str	r2, [r3, #0]
}
 80006d2:	46c0      	nop			@ (mov r8, r8)
 80006d4:	46bd      	mov	sp, r7
 80006d6:	b00a      	add	sp, #40	@ 0x28
 80006d8:	bd80      	pop	{r7, pc}
 80006da:	46c0      	nop			@ (mov r8, r8)
 80006dc:	200001c0 	.word	0x200001c0
 80006e0:	0800f800 	.word	0x0800f800
 80006e4:	200001dc 	.word	0x200001dc
 80006e8:	200001e0 	.word	0x200001e0
 80006ec:	200001e8 	.word	0x200001e8
 80006f0:	200001e4 	.word	0x200001e4

080006f4 <load_settings>:

// Load all settings from flash
void load_settings(void) {
 80006f4:	b590      	push	{r4, r7, lr}
 80006f6:	b08b      	sub	sp, #44	@ 0x2c
 80006f8:	af00      	add	r7, sp, #0
    Settings_t loaded_settings;

    // Read entire structure from flash
    uint64_t *dest = (uint64_t*)&loaded_settings;
 80006fa:	1d3b      	adds	r3, r7, #4
 80006fc:	623b      	str	r3, [r7, #32]
    uint64_t *src = (uint64_t*)FLASH_USER_START_ADDR;
 80006fe:	4b22      	ldr	r3, [pc, #136]	@ (8000788 <load_settings+0x94>)
 8000700:	61fb      	str	r3, [r7, #28]

    int doublewords = (sizeof(Settings_t) + 7) / 8;
 8000702:	2303      	movs	r3, #3
 8000704:	61bb      	str	r3, [r7, #24]

    for(int i = 0; i < doublewords; i++) {
 8000706:	2300      	movs	r3, #0
 8000708:	627b      	str	r3, [r7, #36]	@ 0x24
 800070a:	e00e      	b.n	800072a <load_settings+0x36>
        dest[i] = src[i];
 800070c:	6a7b      	ldr	r3, [r7, #36]	@ 0x24
 800070e:	00db      	lsls	r3, r3, #3
 8000710:	69fa      	ldr	r2, [r7, #28]
 8000712:	18d3      	adds	r3, r2, r3
 8000714:	6a7a      	ldr	r2, [r7, #36]	@ 0x24
 8000716:	00d2      	lsls	r2, r2, #3
 8000718:	6a39      	ldr	r1, [r7, #32]
 800071a:	1889      	adds	r1, r1, r2
 800071c:	681a      	ldr	r2, [r3, #0]
 800071e:	685b      	ldr	r3, [r3, #4]
 8000720:	600a      	str	r2, [r1, #0]
 8000722:	604b      	str	r3, [r1, #4]
    for(int i = 0; i < doublewords; i++) {
 8000724:	6a7b      	ldr	r3, [r7, #36]	@ 0x24
 8000726:	3301      	adds	r3, #1
 8000728:	627b      	str	r3, [r7, #36]	@ 0x24
 800072a:	6a7a      	ldr	r2, [r7, #36]	@ 0x24
 800072c:	69bb      	ldr	r3, [r7, #24]
 800072e:	429a      	cmp	r2, r3
 8000730:	dbec      	blt.n	800070c <load_settings+0x18>
    }

    // Verify checksum
    if(loaded_settings.checksum == calculate_checksum(&loaded_settings) &&
 8000732:	1d3b      	adds	r3, r7, #4
 8000734:	691c      	ldr	r4, [r3, #16]
 8000736:	1d3b      	adds	r3, r7, #4
 8000738:	0018      	movs	r0, r3
 800073a:	f7ff fe61 	bl	8000400 <calculate_checksum>
 800073e:	0003      	movs	r3, r0
 8000740:	429c      	cmp	r4, r3
 8000742:	d10a      	bne.n	800075a <load_settings+0x66>
       loaded_settings.checksum != 0xFFFFFFFF) {
 8000744:	1d3b      	adds	r3, r7, #4
 8000746:	691b      	ldr	r3, [r3, #16]
    if(loaded_settings.checksum == calculate_checksum(&loaded_settings) &&
 8000748:	3301      	adds	r3, #1
 800074a:	d006      	beq.n	800075a <load_settings+0x66>
        // Valid data, copy to working structure
        settings = loaded_settings;
 800074c:	4b0f      	ldr	r3, [pc, #60]	@ (800078c <load_settings+0x98>)
 800074e:	1d3a      	adds	r2, r7, #4
 8000750:	ca13      	ldmia	r2!, {r0, r1, r4}
 8000752:	c313      	stmia	r3!, {r0, r1, r4}
 8000754:	ca03      	ldmia	r2!, {r0, r1}
 8000756:	c303      	stmia	r3!, {r0, r1}
 8000758:	e012      	b.n	8000780 <load_settings+0x8c>
    } else {
        // Invalid or no data, use defaults
        settings.total_taps = 0;
 800075a:	4b0c      	ldr	r3, [pc, #48]	@ (800078c <load_settings+0x98>)
 800075c:	2200      	movs	r2, #0
 800075e:	601a      	str	r2, [r3, #0]
        settings.left_taps = 0;
 8000760:	4b0a      	ldr	r3, [pc, #40]	@ (800078c <load_settings+0x98>)
 8000762:	2200      	movs	r2, #0
 8000764:	605a      	str	r2, [r3, #4]
        settings.right_taps = 0;
 8000766:	4b09      	ldr	r3, [pc, #36]	@ (800078c <load_settings+0x98>)
 8000768:	2200      	movs	r2, #0
 800076a:	609a      	str	r2, [r3, #8]
        settings.display_inverted = 0;
 800076c:	4b07      	ldr	r3, [pc, #28]	@ (800078c <load_settings+0x98>)
 800076e:	2200      	movs	r2, #0
 8000770:	731a      	strb	r2, [r3, #12]
        settings.display_mode = 0;
 8000772:	4b06      	ldr	r3, [pc, #24]	@ (800078c <load_settings+0x98>)
 8000774:	2200      	movs	r2, #0
 8000776:	735a      	strb	r2, [r3, #13]
        settings.checksum = 0;
 8000778:	4b04      	ldr	r3, [pc, #16]	@ (800078c <load_settings+0x98>)
 800077a:	2200      	movs	r2, #0
 800077c:	611a      	str	r2, [r3, #16]
    }
}
 800077e:	46c0      	nop			@ (mov r8, r8)
 8000780:	46c0      	nop			@ (mov r8, r8)
 8000782:	46bd      	mov	sp, r7
 8000784:	b00b      	add	sp, #44	@ 0x2c
 8000786:	bd90      	pop	{r4, r7, pc}
 8000788:	0800f800 	.word	0x0800f800
 800078c:	200001c0 	.word	0x200001c0

08000790 <reset_all_settings>:

// Reset all counters and settings
void reset_all_settings(void) {
 8000790:	b580      	push	{r7, lr}
 8000792:	af00      	add	r7, sp, #0
    // Don't do flash operations too early
    if (HAL_GetTick() < 100) {
 8000794:	f001 fb2a 	bl	8001dec <HAL_GetTick>
 8000798:	0003      	movs	r3, r0
 800079a:	2b63      	cmp	r3, #99	@ 0x63
 800079c:	d802      	bhi.n	80007a4 <reset_all_settings+0x14>
        HAL_Delay(100);  // Ensure system is stable
 800079e:	2064      	movs	r0, #100	@ 0x64
 80007a0:	f001 fb2e 	bl	8001e00 <HAL_Delay>
    }

    // Set values to defaults
    settings.total_taps = 0;
 80007a4:	4b09      	ldr	r3, [pc, #36]	@ (80007cc <reset_all_settings+0x3c>)
 80007a6:	2200      	movs	r2, #0
 80007a8:	601a      	str	r2, [r3, #0]
    settings.left_taps = 0;
 80007aa:	4b08      	ldr	r3, [pc, #32]	@ (80007cc <reset_all_settings+0x3c>)
 80007ac:	2200      	movs	r2, #0
 80007ae:	605a      	str	r2, [r3, #4]
    settings.right_taps = 0;
 80007b0:	4b06      	ldr	r3, [pc, #24]	@ (80007cc <reset_all_settings+0x3c>)
 80007b2:	2200      	movs	r2, #0
 80007b4:	609a      	str	r2, [r3, #8]
    settings.display_inverted = 0;
 80007b6:	4b05      	ldr	r3, [pc, #20]	@ (80007cc <reset_all_settings+0x3c>)
 80007b8:	2200      	movs	r2, #0
 80007ba:	731a      	strb	r2, [r3, #12]
    settings.display_mode = 0;
 80007bc:	4b03      	ldr	r3, [pc, #12]	@ (80007cc <reset_all_settings+0x3c>)
 80007be:	2200      	movs	r2, #0
 80007c0:	735a      	strb	r2, [r3, #13]

    // Save the reset settings
    save_settings();
 80007c2:	f7ff ff3b 	bl	800063c <save_settings>
}
 80007c6:	46c0      	nop			@ (mov r8, r8)
 80007c8:	46bd      	mov	sp, r7
 80007ca:	bd80      	pop	{r7, pc}
 80007cc:	200001c0 	.word	0x200001c0

080007d0 <check_and_save>:

// Check if it's time to save to flash
void check_and_save(void) {
 80007d0:	b580      	push	{r7, lr}
 80007d2:	af00      	add	r7, sp, #0
    if (data_changed && (HAL_GetTick() - last_save_time >= FLASH_SAVE_INTERVAL)) {
 80007d4:	4b08      	ldr	r3, [pc, #32]	@ (80007f8 <check_and_save+0x28>)
 80007d6:	781b      	ldrb	r3, [r3, #0]
 80007d8:	2b00      	cmp	r3, #0
 80007da:	d00a      	beq.n	80007f2 <check_and_save+0x22>
 80007dc:	f001 fb06 	bl	8001dec <HAL_GetTick>
 80007e0:	0002      	movs	r2, r0
 80007e2:	4b06      	ldr	r3, [pc, #24]	@ (80007fc <check_and_save+0x2c>)
 80007e4:	681b      	ldr	r3, [r3, #0]
 80007e6:	1ad3      	subs	r3, r2, r3
 80007e8:	4a05      	ldr	r2, [pc, #20]	@ (8000800 <check_and_save+0x30>)
 80007ea:	4293      	cmp	r3, r2
 80007ec:	d901      	bls.n	80007f2 <check_and_save+0x22>
        save_settings();
 80007ee:	f7ff ff25 	bl	800063c <save_settings>
    }
}
 80007f2:	46c0      	nop			@ (mov r8, r8)
 80007f4:	46bd      	mov	sp, r7
 80007f6:	bd80      	pop	{r7, pc}
 80007f8:	200001e0 	.word	0x200001e0
 80007fc:	200001dc 	.word	0x200001dc
 8000800:	0000752f 	.word	0x0000752f

08000804 <force_save>:

// Force save (for important events)
void force_save(void) {
 8000804:	b580      	push	{r7, lr}
 8000806:	af00      	add	r7, sp, #0
    if (data_changed) {
 8000808:	4b04      	ldr	r3, [pc, #16]	@ (800081c <force_save+0x18>)
 800080a:	781b      	ldrb	r3, [r3, #0]
 800080c:	2b00      	cmp	r3, #0
 800080e:	d001      	beq.n	8000814 <force_save+0x10>
        save_settings();
 8000810:	f7ff ff14 	bl	800063c <save_settings>
    }
}
 8000814:	46c0      	nop			@ (mov r8, r8)
 8000816:	46bd      	mov	sp, r7
 8000818:	bd80      	pop	{r7, pc}
 800081a:	46c0      	nop			@ (mov r8, r8)
 800081c:	200001e0 	.word	0x200001e0

08000820 <update_saved_indicator>:

// Update saved indicator visibility
void update_saved_indicator(void) {
 8000820:	b580      	push	{r7, lr}
 8000822:	af00      	add	r7, sp, #0
    if (show_saved_indicator && (HAL_GetTick() - saved_indicator_timer >= SAVED_DISPLAY_TIME)) {
 8000824:	4b09      	ldr	r3, [pc, #36]	@ (800084c <update_saved_indicator+0x2c>)
 8000826:	781b      	ldrb	r3, [r3, #0]
 8000828:	2b00      	cmp	r3, #0
 800082a:	d00c      	beq.n	8000846 <update_saved_indicator+0x26>
 800082c:	f001 fade 	bl	8001dec <HAL_GetTick>
 8000830:	0002      	movs	r2, r0
 8000832:	4b07      	ldr	r3, [pc, #28]	@ (8000850 <update_saved_indicator+0x30>)
 8000834:	681b      	ldr	r3, [r3, #0]
 8000836:	1ad2      	subs	r2, r2, r3
 8000838:	23fa      	movs	r3, #250	@ 0xfa
 800083a:	00db      	lsls	r3, r3, #3
 800083c:	429a      	cmp	r2, r3
 800083e:	d302      	bcc.n	8000846 <update_saved_indicator+0x26>
        show_saved_indicator = 0;
 8000840:	4b02      	ldr	r3, [pc, #8]	@ (800084c <update_saved_indicator+0x2c>)
 8000842:	2200      	movs	r2, #0
 8000844:	701a      	strb	r2, [r3, #0]
    }
}
 8000846:	46c0      	nop			@ (mov r8, r8)
 8000848:	46bd      	mov	sp, r7
 800084a:	bd80      	pop	{r7, pc}
 800084c:	200001e8 	.word	0x200001e8
 8000850:	200001e4 	.word	0x200001e4

08000854 <handle_display_mode_switch>:

// Handle display mode switching (both buttons held)
uint8_t handle_display_mode_switch(void) {
 8000854:	b580      	push	{r7, lr}
 8000856:	af00      	add	r7, sp, #0
    if (BOTH_PRESSED) {
 8000858:	4b1b      	ldr	r3, [pc, #108]	@ (80008c8 <handle_display_mode_switch+0x74>)
 800085a:	681b      	ldr	r3, [r3, #0]
 800085c:	2b00      	cmp	r3, #0
 800085e:	d12a      	bne.n	80008b6 <handle_display_mode_switch+0x62>
 8000860:	4b1a      	ldr	r3, [pc, #104]	@ (80008cc <handle_display_mode_switch+0x78>)
 8000862:	681b      	ldr	r3, [r3, #0]
 8000864:	2b00      	cmp	r3, #0
 8000866:	d126      	bne.n	80008b6 <handle_display_mode_switch+0x62>
        if (both_pressed_timer == 0) {
 8000868:	4b19      	ldr	r3, [pc, #100]	@ (80008d0 <handle_display_mode_switch+0x7c>)
 800086a:	681b      	ldr	r3, [r3, #0]
 800086c:	2b00      	cmp	r3, #0
 800086e:	d105      	bne.n	800087c <handle_display_mode_switch+0x28>
            both_pressed_timer = HAL_GetTick();
 8000870:	f001 fabc 	bl	8001dec <HAL_GetTick>
 8000874:	0002      	movs	r2, r0
 8000876:	4b16      	ldr	r3, [pc, #88]	@ (80008d0 <handle_display_mode_switch+0x7c>)
 8000878:	601a      	str	r2, [r3, #0]
        if (both_pressed_timer == 0) {
 800087a:	e020      	b.n	80008be <handle_display_mode_switch+0x6a>
        } else if (HAL_GetTick() - both_pressed_timer >= MODE_SWITCH_TIME) {
 800087c:	f001 fab6 	bl	8001dec <HAL_GetTick>
 8000880:	0002      	movs	r2, r0
 8000882:	4b13      	ldr	r3, [pc, #76]	@ (80008d0 <handle_display_mode_switch+0x7c>)
 8000884:	681b      	ldr	r3, [r3, #0]
 8000886:	1ad3      	subs	r3, r2, r3
 8000888:	4a12      	ldr	r2, [pc, #72]	@ (80008d4 <handle_display_mode_switch+0x80>)
 800088a:	4293      	cmp	r3, r2
 800088c:	d917      	bls.n	80008be <handle_display_mode_switch+0x6a>
            settings.display_mode = !settings.display_mode;
 800088e:	4b12      	ldr	r3, [pc, #72]	@ (80008d8 <handle_display_mode_switch+0x84>)
 8000890:	7b5b      	ldrb	r3, [r3, #13]
 8000892:	425a      	negs	r2, r3
 8000894:	4153      	adcs	r3, r2
 8000896:	b2db      	uxtb	r3, r3
 8000898:	001a      	movs	r2, r3
 800089a:	4b0f      	ldr	r3, [pc, #60]	@ (80008d8 <handle_display_mode_switch+0x84>)
 800089c:	735a      	strb	r2, [r3, #13]
            both_pressed_timer = 0;
 800089e:	4b0c      	ldr	r3, [pc, #48]	@ (80008d0 <handle_display_mode_switch+0x7c>)
 80008a0:	2200      	movs	r2, #0
 80008a2:	601a      	str	r2, [r3, #0]
            data_changed = 1;  // Mark data as changed
 80008a4:	4b0d      	ldr	r3, [pc, #52]	@ (80008dc <handle_display_mode_switch+0x88>)
 80008a6:	2201      	movs	r2, #1
 80008a8:	701a      	strb	r2, [r3, #0]

            // Immediately update display to show/hide overlay
            redraw_current_frame();
 80008aa:	f7ff feb5 	bl	8000618 <redraw_current_frame>

            // Force save when switching modes
            force_save();
 80008ae:	f7ff ffa9 	bl	8000804 <force_save>

            return 1; // Mode switched
 80008b2:	2301      	movs	r3, #1
 80008b4:	e005      	b.n	80008c2 <handle_display_mode_switch+0x6e>
        }
    } else {
        both_pressed_timer = 0;
 80008b6:	4b06      	ldr	r3, [pc, #24]	@ (80008d0 <handle_display_mode_switch+0x7c>)
 80008b8:	2200      	movs	r2, #0
 80008ba:	601a      	str	r2, [r3, #0]
 80008bc:	e000      	b.n	80008c0 <handle_display_mode_switch+0x6c>
        if (both_pressed_timer == 0) {
 80008be:	46c0      	nop			@ (mov r8, r8)
    }
    return 0; // No mode switch
 80008c0:	2300      	movs	r3, #0
}
 80008c2:	0018      	movs	r0, r3
 80008c4:	46bd      	mov	sp, r7
 80008c6:	bd80      	pop	{r7, pc}
 80008c8:	200001b4 	.word	0x200001b4
 80008cc:	200001b8 	.word	0x200001b8
 80008d0:	200001d4 	.word	0x200001d4
 80008d4:	000009c3 	.word	0x000009c3
 80008d8:	200001c0 	.word	0x200001c0
 80008dc:	200001e0 	.word	0x200001e0

080008e0 <handle_invert_toggle>:

// Handle invert toggle (left button held)
uint8_t handle_invert_toggle(void) {
 80008e0:	b580      	push	{r7, lr}
 80008e2:	af00      	add	r7, sp, #0
    if (LEFT_PRESSED && !RIGHT_PRESSED && both_pressed_timer == 0) {
 80008e4:	4b22      	ldr	r3, [pc, #136]	@ (8000970 <handle_invert_toggle+0x90>)
 80008e6:	681b      	ldr	r3, [r3, #0]
 80008e8:	2b00      	cmp	r3, #0
 80008ea:	d138      	bne.n	800095e <handle_invert_toggle+0x7e>
 80008ec:	4b21      	ldr	r3, [pc, #132]	@ (8000974 <handle_invert_toggle+0x94>)
 80008ee:	681b      	ldr	r3, [r3, #0]
 80008f0:	2b01      	cmp	r3, #1
 80008f2:	d134      	bne.n	800095e <handle_invert_toggle+0x7e>
 80008f4:	4b1e      	ldr	r3, [pc, #120]	@ (8000970 <handle_invert_toggle+0x90>)
 80008f6:	681b      	ldr	r3, [r3, #0]
 80008f8:	2b01      	cmp	r3, #1
 80008fa:	d103      	bne.n	8000904 <handle_invert_toggle+0x24>
 80008fc:	4b1d      	ldr	r3, [pc, #116]	@ (8000974 <handle_invert_toggle+0x94>)
 80008fe:	681b      	ldr	r3, [r3, #0]
 8000900:	2b00      	cmp	r3, #0
 8000902:	d02c      	beq.n	800095e <handle_invert_toggle+0x7e>
 8000904:	4b1c      	ldr	r3, [pc, #112]	@ (8000978 <handle_invert_toggle+0x98>)
 8000906:	681b      	ldr	r3, [r3, #0]
 8000908:	2b00      	cmp	r3, #0
 800090a:	d128      	bne.n	800095e <handle_invert_toggle+0x7e>
        if (invert_timer == 0) {
 800090c:	4b1b      	ldr	r3, [pc, #108]	@ (800097c <handle_invert_toggle+0x9c>)
 800090e:	681b      	ldr	r3, [r3, #0]
 8000910:	2b00      	cmp	r3, #0
 8000912:	d105      	bne.n	8000920 <handle_invert_toggle+0x40>
            invert_timer = HAL_GetTick();
 8000914:	f001 fa6a 	bl	8001dec <HAL_GetTick>
 8000918:	0002      	movs	r2, r0
 800091a:	4b18      	ldr	r3, [pc, #96]	@ (800097c <handle_invert_toggle+0x9c>)
 800091c:	601a      	str	r2, [r3, #0]
        if (invert_timer == 0) {
 800091e:	e022      	b.n	8000966 <handle_invert_toggle+0x86>
        } else if (HAL_GetTick() - invert_timer >= INVERT_HOLD_TIME) {
 8000920:	f001 fa64 	bl	8001dec <HAL_GetTick>
 8000924:	0002      	movs	r2, r0
 8000926:	4b15      	ldr	r3, [pc, #84]	@ (800097c <handle_invert_toggle+0x9c>)
 8000928:	681b      	ldr	r3, [r3, #0]
 800092a:	1ad2      	subs	r2, r2, r3
 800092c:	23fa      	movs	r3, #250	@ 0xfa
 800092e:	00db      	lsls	r3, r3, #3
 8000930:	429a      	cmp	r2, r3
 8000932:	d318      	bcc.n	8000966 <handle_invert_toggle+0x86>
            toggle_display_invert();
 8000934:	f7ff fd8c 	bl	8000450 <toggle_display_invert>
            invert_timer = 0;
 8000938:	4b10      	ldr	r3, [pc, #64]	@ (800097c <handle_invert_toggle+0x9c>)
 800093a:	2200      	movs	r2, #0
 800093c:	601a      	str	r2, [r3, #0]

            // Wait for button release
            while(LEFT_PRESSED) {
 800093e:	e004      	b.n	800094a <handle_invert_toggle+0x6a>
                HAL_Delay(10);
 8000940:	200a      	movs	r0, #10
 8000942:	f001 fa5d 	bl	8001e00 <HAL_Delay>
                readPins();
 8000946:	f7ff fdf7 	bl	8000538 <readPins>
            while(LEFT_PRESSED) {
 800094a:	4b09      	ldr	r3, [pc, #36]	@ (8000970 <handle_invert_toggle+0x90>)
 800094c:	681b      	ldr	r3, [r3, #0]
 800094e:	2b00      	cmp	r3, #0
 8000950:	d103      	bne.n	800095a <handle_invert_toggle+0x7a>
 8000952:	4b08      	ldr	r3, [pc, #32]	@ (8000974 <handle_invert_toggle+0x94>)
 8000954:	681b      	ldr	r3, [r3, #0]
 8000956:	2b01      	cmp	r3, #1
 8000958:	d0f2      	beq.n	8000940 <handle_invert_toggle+0x60>
            }
            return 1; // Inverted
 800095a:	2301      	movs	r3, #1
 800095c:	e005      	b.n	800096a <handle_invert_toggle+0x8a>
        }
    } else {
        invert_timer = 0;
 800095e:	4b07      	ldr	r3, [pc, #28]	@ (800097c <handle_invert_toggle+0x9c>)
 8000960:	2200      	movs	r2, #0
 8000962:	601a      	str	r2, [r3, #0]
 8000964:	e000      	b.n	8000968 <handle_invert_toggle+0x88>
        if (invert_timer == 0) {
 8000966:	46c0      	nop			@ (mov r8, r8)
    }
    return 0; // No invert
 8000968:	2300      	movs	r3, #0
}
 800096a:	0018      	movs	r0, r3
 800096c:	46bd      	mov	sp, r7
 800096e:	bd80      	pop	{r7, pc}
 8000970:	200001b4 	.word	0x200001b4
 8000974:	200001b8 	.word	0x200001b8
 8000978:	200001d4 	.word	0x200001d4
 800097c:	200001d8 	.word	0x200001d8

08000980 <register_tap>:

// Register a tap and increment counters
void register_tap(uint8_t is_left) {
 8000980:	b580      	push	{r7, lr}
 8000982:	b082      	sub	sp, #8
 8000984:	af00      	add	r7, sp, #0
 8000986:	0002      	movs	r2, r0
 8000988:	1dfb      	adds	r3, r7, #7
 800098a:	701a      	strb	r2, [r3, #0]
    if (is_left) {
 800098c:	1dfb      	adds	r3, r7, #7
 800098e:	781b      	ldrb	r3, [r3, #0]
 8000990:	2b00      	cmp	r3, #0
 8000992:	d005      	beq.n	80009a0 <register_tap+0x20>
        settings.left_taps++;
 8000994:	4b0b      	ldr	r3, [pc, #44]	@ (80009c4 <register_tap+0x44>)
 8000996:	685b      	ldr	r3, [r3, #4]
 8000998:	1c5a      	adds	r2, r3, #1
 800099a:	4b0a      	ldr	r3, [pc, #40]	@ (80009c4 <register_tap+0x44>)
 800099c:	605a      	str	r2, [r3, #4]
 800099e:	e004      	b.n	80009aa <register_tap+0x2a>
    } else {
        settings.right_taps++;
 80009a0:	4b08      	ldr	r3, [pc, #32]	@ (80009c4 <register_tap+0x44>)
 80009a2:	689b      	ldr	r3, [r3, #8]
 80009a4:	1c5a      	adds	r2, r3, #1
 80009a6:	4b07      	ldr	r3, [pc, #28]	@ (80009c4 <register_tap+0x44>)
 80009a8:	609a      	str	r2, [r3, #8]
    }
    settings.total_taps++;
 80009aa:	4b06      	ldr	r3, [pc, #24]	@ (80009c4 <register_tap+0x44>)
 80009ac:	681b      	ldr	r3, [r3, #0]
 80009ae:	1c5a      	adds	r2, r3, #1
 80009b0:	4b04      	ldr	r3, [pc, #16]	@ (80009c4 <register_tap+0x44>)
 80009b2:	601a      	str	r2, [r3, #0]
    data_changed = 1;
 80009b4:	4b04      	ldr	r3, [pc, #16]	@ (80009c8 <register_tap+0x48>)
 80009b6:	2201      	movs	r2, #1
 80009b8:	701a      	strb	r2, [r3, #0]
}
 80009ba:	46c0      	nop			@ (mov r8, r8)
 80009bc:	46bd      	mov	sp, r7
 80009be:	b002      	add	sp, #8
 80009c0:	bd80      	pop	{r7, pc}
 80009c2:	46c0      	nop			@ (mov r8, r8)
 80009c4:	200001c0 	.word	0x200001c0
 80009c8:	200001e0 	.word	0x200001e0

080009cc <handle_tap_decay>:

// Handle tap animations and decay
void handle_tap_decay(int32_t *tap_left_cntr, int32_t *tap_right_cntr) {
 80009cc:	b580      	push	{r7, lr}
 80009ce:	b082      	sub	sp, #8
 80009d0:	af00      	add	r7, sp, #0
 80009d2:	6078      	str	r0, [r7, #4]
 80009d4:	6039      	str	r1, [r7, #0]
    if(*tap_left_cntr > 0){
 80009d6:	687b      	ldr	r3, [r7, #4]
 80009d8:	681b      	ldr	r3, [r3, #0]
 80009da:	2b00      	cmp	r3, #0
 80009dc:	dd13      	ble.n	8000a06 <handle_tap_decay+0x3a>
        if(HAL_GetTick() - *tap_left_cntr > TAP_DECAY_TIME) {
 80009de:	f001 fa05 	bl	8001dec <HAL_GetTick>
 80009e2:	0002      	movs	r2, r0
 80009e4:	687b      	ldr	r3, [r7, #4]
 80009e6:	681b      	ldr	r3, [r3, #0]
 80009e8:	1ad3      	subs	r3, r2, r3
 80009ea:	2bc8      	cmp	r3, #200	@ 0xc8
 80009ec:	d907      	bls.n	80009fe <handle_tap_decay+0x32>
            draw_animation_erase(&img_tap_left);
 80009ee:	4b14      	ldr	r3, [pc, #80]	@ (8000a40 <handle_tap_decay+0x74>)
 80009f0:	0018      	movs	r0, r3
 80009f2:	f7ff fd7d 	bl	80004f0 <draw_animation_erase>
            *tap_left_cntr = 0;
 80009f6:	687b      	ldr	r3, [r7, #4]
 80009f8:	2200      	movs	r2, #0
 80009fa:	601a      	str	r2, [r3, #0]
 80009fc:	e003      	b.n	8000a06 <handle_tap_decay+0x3a>
        }
        else{
            draw_animation_transparent(&img_tap_left);
 80009fe:	4b10      	ldr	r3, [pc, #64]	@ (8000a40 <handle_tap_decay+0x74>)
 8000a00:	0018      	movs	r0, r3
 8000a02:	f7ff fd87 	bl	8000514 <draw_animation_transparent>
        }
    }
    if(*tap_right_cntr > 0){
 8000a06:	683b      	ldr	r3, [r7, #0]
 8000a08:	681b      	ldr	r3, [r3, #0]
 8000a0a:	2b00      	cmp	r3, #0
 8000a0c:	dd13      	ble.n	8000a36 <handle_tap_decay+0x6a>
        if(HAL_GetTick() - *tap_right_cntr > TAP_DECAY_TIME) {
 8000a0e:	f001 f9ed 	bl	8001dec <HAL_GetTick>
 8000a12:	0002      	movs	r2, r0
 8000a14:	683b      	ldr	r3, [r7, #0]
 8000a16:	681b      	ldr	r3, [r3, #0]
 8000a18:	1ad3      	subs	r3, r2, r3
 8000a1a:	2bc8      	cmp	r3, #200	@ 0xc8
 8000a1c:	d907      	bls.n	8000a2e <handle_tap_decay+0x62>
            draw_animation_erase(&img_tap_right);
 8000a1e:	4b09      	ldr	r3, [pc, #36]	@ (8000a44 <handle_tap_decay+0x78>)
 8000a20:	0018      	movs	r0, r3
 8000a22:	f7ff fd65 	bl	80004f0 <draw_animation_erase>
            *tap_right_cntr = 0;
 8000a26:	683b      	ldr	r3, [r7, #0]
 8000a28:	2200      	movs	r2, #0
 8000a2a:	601a      	str	r2, [r3, #0]
        }
        else{
            draw_animation_transparent(&img_tap_right);
        }
    }
}
 8000a2c:	e003      	b.n	8000a36 <handle_tap_decay+0x6a>
            draw_animation_transparent(&img_tap_right);
 8000a2e:	4b05      	ldr	r3, [pc, #20]	@ (8000a44 <handle_tap_decay+0x78>)
 8000a30:	0018      	movs	r0, r3
 8000a32:	f7ff fd6f 	bl	8000514 <draw_animation_transparent>
}
 8000a36:	46c0      	nop			@ (mov r8, r8)
 8000a38:	46bd      	mov	sp, r7
 8000a3a:	b002      	add	sp, #8
 8000a3c:	bd80      	pop	{r7, pc}
 8000a3e:	46c0      	nop			@ (mov r8, r8)
 8000a40:	08006f48 	.word	0x08006f48
 8000a44:	08007348 	.word	0x08007348

08000a48 <handle_paw_animations>:

// Handle paw animations based on button states
void handle_paw_animations(uint8_t *left_state, uint8_t *right_state,
                          int32_t *tap_left_cntr, int32_t *tap_right_cntr,
                          int32_t *idle_cntr) {
 8000a48:	b580      	push	{r7, lr}
 8000a4a:	b084      	sub	sp, #16
 8000a4c:	af00      	add	r7, sp, #0
 8000a4e:	60f8      	str	r0, [r7, #12]
 8000a50:	60b9      	str	r1, [r7, #8]
 8000a52:	607a      	str	r2, [r7, #4]
 8000a54:	603b      	str	r3, [r7, #0]
    *idle_cntr = 0;
 8000a56:	69bb      	ldr	r3, [r7, #24]
 8000a58:	2200      	movs	r2, #0
 8000a5a:	601a      	str	r2, [r3, #0]

    if((BOTH_PRESSED) && ((*left_state | *right_state) == 0 || (*left_state ^ *right_state) == 1)){
 8000a5c:	4b54      	ldr	r3, [pc, #336]	@ (8000bb0 <handle_paw_animations+0x168>)
 8000a5e:	681b      	ldr	r3, [r3, #0]
 8000a60:	2b00      	cmp	r3, #0
 8000a62:	d140      	bne.n	8000ae6 <handle_paw_animations+0x9e>
 8000a64:	4b53      	ldr	r3, [pc, #332]	@ (8000bb4 <handle_paw_animations+0x16c>)
 8000a66:	681b      	ldr	r3, [r3, #0]
 8000a68:	2b00      	cmp	r3, #0
 8000a6a:	d13c      	bne.n	8000ae6 <handle_paw_animations+0x9e>
 8000a6c:	68fb      	ldr	r3, [r7, #12]
 8000a6e:	781a      	ldrb	r2, [r3, #0]
 8000a70:	68bb      	ldr	r3, [r7, #8]
 8000a72:	781b      	ldrb	r3, [r3, #0]
 8000a74:	4313      	orrs	r3, r2
 8000a76:	b2db      	uxtb	r3, r3
 8000a78:	2b00      	cmp	r3, #0
 8000a7a:	d007      	beq.n	8000a8c <handle_paw_animations+0x44>
 8000a7c:	68fb      	ldr	r3, [r7, #12]
 8000a7e:	781a      	ldrb	r2, [r3, #0]
 8000a80:	68bb      	ldr	r3, [r7, #8]
 8000a82:	781b      	ldrb	r3, [r3, #0]
 8000a84:	4053      	eors	r3, r2
 8000a86:	b2db      	uxtb	r3, r3
 8000a88:	2b01      	cmp	r3, #1
 8000a8a:	d12c      	bne.n	8000ae6 <handle_paw_animations+0x9e>
        draw_animation(&img_both_down_alt);
 8000a8c:	4b4a      	ldr	r3, [pc, #296]	@ (8000bb8 <handle_paw_animations+0x170>)
 8000a8e:	0018      	movs	r0, r3
 8000a90:	f7ff fd14 	bl	80004bc <draw_animation>
        if(!*right_state){
 8000a94:	68bb      	ldr	r3, [r7, #8]
 8000a96:	781b      	ldrb	r3, [r3, #0]
 8000a98:	2b00      	cmp	r3, #0
 8000a9a:	d10c      	bne.n	8000ab6 <handle_paw_animations+0x6e>
            draw_animation_transparent(&img_tap_right);
 8000a9c:	4b47      	ldr	r3, [pc, #284]	@ (8000bbc <handle_paw_animations+0x174>)
 8000a9e:	0018      	movs	r0, r3
 8000aa0:	f7ff fd38 	bl	8000514 <draw_animation_transparent>
            *tap_right_cntr = HAL_GetTick();
 8000aa4:	f001 f9a2 	bl	8001dec <HAL_GetTick>
 8000aa8:	0003      	movs	r3, r0
 8000aaa:	001a      	movs	r2, r3
 8000aac:	683b      	ldr	r3, [r7, #0]
 8000aae:	601a      	str	r2, [r3, #0]
            register_tap(0); // Right tap
 8000ab0:	2000      	movs	r0, #0
 8000ab2:	f7ff ff65 	bl	8000980 <register_tap>
        }
        if(!*left_state){
 8000ab6:	68fb      	ldr	r3, [r7, #12]
 8000ab8:	781b      	ldrb	r3, [r3, #0]
 8000aba:	2b00      	cmp	r3, #0
 8000abc:	d10c      	bne.n	8000ad8 <handle_paw_animations+0x90>
            draw_animation_transparent(&img_tap_left);
 8000abe:	4b40      	ldr	r3, [pc, #256]	@ (8000bc0 <handle_paw_animations+0x178>)
 8000ac0:	0018      	movs	r0, r3
 8000ac2:	f7ff fd27 	bl	8000514 <draw_animation_transparent>
            *tap_left_cntr = HAL_GetTick();
 8000ac6:	f001 f991 	bl	8001dec <HAL_GetTick>
 8000aca:	0003      	movs	r3, r0
 8000acc:	001a      	movs	r2, r3
 8000ace:	687b      	ldr	r3, [r7, #4]
 8000ad0:	601a      	str	r2, [r3, #0]
            register_tap(1); // Left tap
 8000ad2:	2001      	movs	r0, #1
 8000ad4:	f7ff ff54 	bl	8000980 <register_tap>
        }
        *right_state = 1;
 8000ad8:	68bb      	ldr	r3, [r7, #8]
 8000ada:	2201      	movs	r2, #1
 8000adc:	701a      	strb	r2, [r3, #0]
        *left_state = 1;
 8000ade:	68fb      	ldr	r3, [r7, #12]
 8000ae0:	2201      	movs	r2, #1
 8000ae2:	701a      	strb	r2, [r3, #0]
 8000ae4:	e05f      	b.n	8000ba6 <handle_paw_animations+0x15e>
    }
    else if(RIGHT_PRESSED){
 8000ae6:	4b32      	ldr	r3, [pc, #200]	@ (8000bb0 <handle_paw_animations+0x168>)
 8000ae8:	681b      	ldr	r3, [r3, #0]
 8000aea:	2b01      	cmp	r3, #1
 8000aec:	d12b      	bne.n	8000b46 <handle_paw_animations+0xfe>
 8000aee:	4b31      	ldr	r3, [pc, #196]	@ (8000bb4 <handle_paw_animations+0x16c>)
 8000af0:	681b      	ldr	r3, [r3, #0]
 8000af2:	2b00      	cmp	r3, #0
 8000af4:	d127      	bne.n	8000b46 <handle_paw_animations+0xfe>
        if(*right_state == 0 || *left_state == 1){
 8000af6:	68bb      	ldr	r3, [r7, #8]
 8000af8:	781b      	ldrb	r3, [r3, #0]
 8000afa:	2b00      	cmp	r3, #0
 8000afc:	d003      	beq.n	8000b06 <handle_paw_animations+0xbe>
 8000afe:	68fb      	ldr	r3, [r7, #12]
 8000b00:	781b      	ldrb	r3, [r3, #0]
 8000b02:	2b01      	cmp	r3, #1
 8000b04:	d117      	bne.n	8000b36 <handle_paw_animations+0xee>
            draw_animation(&img_right_down_alt);
 8000b06:	4b2f      	ldr	r3, [pc, #188]	@ (8000bc4 <handle_paw_animations+0x17c>)
 8000b08:	0018      	movs	r0, r3
 8000b0a:	f7ff fcd7 	bl	80004bc <draw_animation>
            if(!*right_state){
 8000b0e:	68bb      	ldr	r3, [r7, #8]
 8000b10:	781b      	ldrb	r3, [r3, #0]
 8000b12:	2b00      	cmp	r3, #0
 8000b14:	d10c      	bne.n	8000b30 <handle_paw_animations+0xe8>
                draw_animation_transparent(&img_tap_right);
 8000b16:	4b29      	ldr	r3, [pc, #164]	@ (8000bbc <handle_paw_animations+0x174>)
 8000b18:	0018      	movs	r0, r3
 8000b1a:	f7ff fcfb 	bl	8000514 <draw_animation_transparent>
                *tap_right_cntr = HAL_GetTick();
 8000b1e:	f001 f965 	bl	8001dec <HAL_GetTick>
 8000b22:	0003      	movs	r3, r0
 8000b24:	001a      	movs	r2, r3
 8000b26:	683b      	ldr	r3, [r7, #0]
 8000b28:	601a      	str	r2, [r3, #0]
                register_tap(0); // Right tap
 8000b2a:	2000      	movs	r0, #0
 8000b2c:	f7ff ff28 	bl	8000980 <register_tap>
            }
            *right_state = 1;
 8000b30:	68bb      	ldr	r3, [r7, #8]
 8000b32:	2201      	movs	r2, #1
 8000b34:	701a      	strb	r2, [r3, #0]
        }
        if(*left_state)
 8000b36:	68fb      	ldr	r3, [r7, #12]
 8000b38:	781b      	ldrb	r3, [r3, #0]
 8000b3a:	2b00      	cmp	r3, #0
 8000b3c:	d033      	beq.n	8000ba6 <handle_paw_animations+0x15e>
            *left_state = 0;
 8000b3e:	68fb      	ldr	r3, [r7, #12]
 8000b40:	2200      	movs	r2, #0
 8000b42:	701a      	strb	r2, [r3, #0]
        if(*left_state)
 8000b44:	e02f      	b.n	8000ba6 <handle_paw_animations+0x15e>
    }
    else if(LEFT_PRESSED){
 8000b46:	4b1a      	ldr	r3, [pc, #104]	@ (8000bb0 <handle_paw_animations+0x168>)
 8000b48:	681b      	ldr	r3, [r3, #0]
 8000b4a:	2b00      	cmp	r3, #0
 8000b4c:	d12b      	bne.n	8000ba6 <handle_paw_animations+0x15e>
 8000b4e:	4b19      	ldr	r3, [pc, #100]	@ (8000bb4 <handle_paw_animations+0x16c>)
 8000b50:	681b      	ldr	r3, [r3, #0]
 8000b52:	2b01      	cmp	r3, #1
 8000b54:	d127      	bne.n	8000ba6 <handle_paw_animations+0x15e>
        if(*left_state == 0 || *right_state == 1){
 8000b56:	68fb      	ldr	r3, [r7, #12]
 8000b58:	781b      	ldrb	r3, [r3, #0]
 8000b5a:	2b00      	cmp	r3, #0
 8000b5c:	d003      	beq.n	8000b66 <handle_paw_animations+0x11e>
 8000b5e:	68bb      	ldr	r3, [r7, #8]
 8000b60:	781b      	ldrb	r3, [r3, #0]
 8000b62:	2b01      	cmp	r3, #1
 8000b64:	d117      	bne.n	8000b96 <handle_paw_animations+0x14e>
            draw_animation(&img_left_down_alt);
 8000b66:	4b18      	ldr	r3, [pc, #96]	@ (8000bc8 <handle_paw_animations+0x180>)
 8000b68:	0018      	movs	r0, r3
 8000b6a:	f7ff fca7 	bl	80004bc <draw_animation>
            if(!*left_state){
 8000b6e:	68fb      	ldr	r3, [r7, #12]
 8000b70:	781b      	ldrb	r3, [r3, #0]
 8000b72:	2b00      	cmp	r3, #0
 8000b74:	d10c      	bne.n	8000b90 <handle_paw_animations+0x148>
                draw_animation_transparent(&img_tap_left);
 8000b76:	4b12      	ldr	r3, [pc, #72]	@ (8000bc0 <handle_paw_animations+0x178>)
 8000b78:	0018      	movs	r0, r3
 8000b7a:	f7ff fccb 	bl	8000514 <draw_animation_transparent>
                *tap_left_cntr = HAL_GetTick();
 8000b7e:	f001 f935 	bl	8001dec <HAL_GetTick>
 8000b82:	0003      	movs	r3, r0
 8000b84:	001a      	movs	r2, r3
 8000b86:	687b      	ldr	r3, [r7, #4]
 8000b88:	601a      	str	r2, [r3, #0]
                register_tap(1); // Left tap
 8000b8a:	2001      	movs	r0, #1
 8000b8c:	f7ff fef8 	bl	8000980 <register_tap>
            }
            *left_state = 1;
 8000b90:	68fb      	ldr	r3, [r7, #12]
 8000b92:	2201      	movs	r2, #1
 8000b94:	701a      	strb	r2, [r3, #0]
        }
        if(*right_state)
 8000b96:	68bb      	ldr	r3, [r7, #8]
 8000b98:	781b      	ldrb	r3, [r3, #0]
 8000b9a:	2b00      	cmp	r3, #0
 8000b9c:	d003      	beq.n	8000ba6 <handle_paw_animations+0x15e>
            *right_state = 0;
 8000b9e:	68bb      	ldr	r3, [r7, #8]
 8000ba0:	2200      	movs	r2, #0
 8000ba2:	701a      	strb	r2, [r3, #0]
    }
}
 8000ba4:	e7ff      	b.n	8000ba6 <handle_paw_animations+0x15e>
 8000ba6:	46c0      	nop			@ (mov r8, r8)
 8000ba8:	46bd      	mov	sp, r7
 8000baa:	b004      	add	sp, #16
 8000bac:	bd80      	pop	{r7, pc}
 8000bae:	46c0      	nop			@ (mov r8, r8)
 8000bb0:	200001b4 	.word	0x200001b4
 8000bb4:	200001b8 	.word	0x200001b8
 8000bb8:	08006348 	.word	0x08006348
 8000bbc:	08007348 	.word	0x08007348
 8000bc0:	08006f48 	.word	0x08006f48
 8000bc4:	08006b48 	.word	0x08006b48
 8000bc8:	08006748 	.word	0x08006748

08000bcc <check_idle_transition>:

// Check if should return to idle state
uint8_t check_idle_transition(int32_t *idle_cntr, uint8_t *left_state, uint8_t *right_state) {
 8000bcc:	b580      	push	{r7, lr}
 8000bce:	b084      	sub	sp, #16
 8000bd0:	af00      	add	r7, sp, #0
 8000bd2:	60f8      	str	r0, [r7, #12]
 8000bd4:	60b9      	str	r1, [r7, #8]
 8000bd6:	607a      	str	r2, [r7, #4]
    if(NONE_PRESSED){
 8000bd8:	4b1c      	ldr	r3, [pc, #112]	@ (8000c4c <check_idle_transition+0x80>)
 8000bda:	681b      	ldr	r3, [r3, #0]
 8000bdc:	2b01      	cmp	r3, #1
 8000bde:	d130      	bne.n	8000c42 <check_idle_transition+0x76>
 8000be0:	4b1b      	ldr	r3, [pc, #108]	@ (8000c50 <check_idle_transition+0x84>)
 8000be2:	681b      	ldr	r3, [r3, #0]
 8000be4:	2b01      	cmp	r3, #1
 8000be6:	d12c      	bne.n	8000c42 <check_idle_transition+0x76>
        draw_animation(&img_both_up);
 8000be8:	4b1a      	ldr	r3, [pc, #104]	@ (8000c54 <check_idle_transition+0x88>)
 8000bea:	0018      	movs	r0, r3
 8000bec:	f7ff fc66 	bl	80004bc <draw_animation>
        if(*idle_cntr == 0){
 8000bf0:	68fb      	ldr	r3, [r7, #12]
 8000bf2:	681b      	ldr	r3, [r3, #0]
 8000bf4:	2b00      	cmp	r3, #0
 8000bf6:	d105      	bne.n	8000c04 <check_idle_transition+0x38>
            *idle_cntr = HAL_GetTick();
 8000bf8:	f001 f8f8 	bl	8001dec <HAL_GetTick>
 8000bfc:	0003      	movs	r3, r0
 8000bfe:	001a      	movs	r2, r3
 8000c00:	68fb      	ldr	r3, [r7, #12]
 8000c02:	601a      	str	r2, [r3, #0]
        }
        if(HAL_GetTick() - *idle_cntr >= IDLE_TIME){
 8000c04:	f001 f8f2 	bl	8001dec <HAL_GetTick>
 8000c08:	0002      	movs	r2, r0
 8000c0a:	68fb      	ldr	r3, [r7, #12]
 8000c0c:	681b      	ldr	r3, [r3, #0]
 8000c0e:	1ad2      	subs	r2, r2, r3
 8000c10:	23fa      	movs	r3, #250	@ 0xfa
 8000c12:	00db      	lsls	r3, r3, #3
 8000c14:	429a      	cmp	r2, r3
 8000c16:	d306      	bcc.n	8000c26 <check_idle_transition+0x5a>
            *idle_cntr = 0;
 8000c18:	68fb      	ldr	r3, [r7, #12]
 8000c1a:	2200      	movs	r2, #0
 8000c1c:	601a      	str	r2, [r3, #0]
            // Force save before going to idle
            force_save();
 8000c1e:	f7ff fdf1 	bl	8000804 <force_save>
            return 1; // Should transition to idle
 8000c22:	2301      	movs	r3, #1
 8000c24:	e00e      	b.n	8000c44 <check_idle_transition+0x78>
        }
        if(*left_state)
 8000c26:	68bb      	ldr	r3, [r7, #8]
 8000c28:	781b      	ldrb	r3, [r3, #0]
 8000c2a:	2b00      	cmp	r3, #0
 8000c2c:	d002      	beq.n	8000c34 <check_idle_transition+0x68>
            *left_state = 0;
 8000c2e:	68bb      	ldr	r3, [r7, #8]
 8000c30:	2200      	movs	r2, #0
 8000c32:	701a      	strb	r2, [r3, #0]
        if(*right_state)
 8000c34:	687b      	ldr	r3, [r7, #4]
 8000c36:	781b      	ldrb	r3, [r3, #0]
 8000c38:	2b00      	cmp	r3, #0
 8000c3a:	d002      	beq.n	8000c42 <check_idle_transition+0x76>
            *right_state = 0;
 8000c3c:	687b      	ldr	r3, [r7, #4]
 8000c3e:	2200      	movs	r2, #0
 8000c40:	701a      	strb	r2, [r3, #0]
    }
    return 0; // Stay in current state
 8000c42:	2300      	movs	r3, #0
}
 8000c44:	0018      	movs	r0, r3
 8000c46:	46bd      	mov	sp, r7
 8000c48:	b004      	add	sp, #16
 8000c4a:	bd80      	pop	{r7, pc}
 8000c4c:	200001b4 	.word	0x200001b4
 8000c50:	200001b8 	.word	0x200001b8
 8000c54:	08004b48 	.word	0x08004b48

08000c58 <handle_reset>:

void handle_reset(){
 8000c58:	b580      	push	{r7, lr}
 8000c5a:	b084      	sub	sp, #16
 8000c5c:	af02      	add	r7, sp, #8
    // Show confirmation prompt
    ssd1306_SetCursor(27, 10);  // x = 9
 8000c5e:	210a      	movs	r1, #10
 8000c60:	201b      	movs	r0, #27
 8000c62:	f000 fdef 	bl	8001844 <ssd1306_SetCursor>
    ssd1306_WriteString("RESET ALL?", ComicSans_11x12, White);
 8000c66:	4b51      	ldr	r3, [pc, #324]	@ (8000dac <handle_reset+0x154>)
 8000c68:	4851      	ldr	r0, [pc, #324]	@ (8000db0 <handle_reset+0x158>)
 8000c6a:	2201      	movs	r2, #1
 8000c6c:	9200      	str	r2, [sp, #0]
 8000c6e:	6819      	ldr	r1, [r3, #0]
 8000c70:	685a      	ldr	r2, [r3, #4]
 8000c72:	689b      	ldr	r3, [r3, #8]
 8000c74:	f000 fdba 	bl	80017ec <ssd1306_WriteString>
    ssd1306_SetCursor(27, 26);  // x = 3
 8000c78:	211a      	movs	r1, #26
 8000c7a:	201b      	movs	r0, #27
 8000c7c:	f000 fde2 	bl	8001844 <ssd1306_SetCursor>
    ssd1306_WriteString("Press again", ComicSans_11x12, White);
 8000c80:	4b4a      	ldr	r3, [pc, #296]	@ (8000dac <handle_reset+0x154>)
 8000c82:	484c      	ldr	r0, [pc, #304]	@ (8000db4 <handle_reset+0x15c>)
 8000c84:	2201      	movs	r2, #1
 8000c86:	9200      	str	r2, [sp, #0]
 8000c88:	6819      	ldr	r1, [r3, #0]
 8000c8a:	685a      	ldr	r2, [r3, #4]
 8000c8c:	689b      	ldr	r3, [r3, #8]
 8000c8e:	f000 fdad 	bl	80017ec <ssd1306_WriteString>
    ssd1306_SetCursor(27, 42);  // x = 9
 8000c92:	212a      	movs	r1, #42	@ 0x2a
 8000c94:	201b      	movs	r0, #27
 8000c96:	f000 fdd5 	bl	8001844 <ssd1306_SetCursor>
    ssd1306_WriteString("to confirm", ComicSans_11x12, White);
 8000c9a:	4b44      	ldr	r3, [pc, #272]	@ (8000dac <handle_reset+0x154>)
 8000c9c:	4846      	ldr	r0, [pc, #280]	@ (8000db8 <handle_reset+0x160>)
 8000c9e:	2201      	movs	r2, #1
 8000ca0:	9200      	str	r2, [sp, #0]
 8000ca2:	6819      	ldr	r1, [r3, #0]
 8000ca4:	685a      	ldr	r2, [r3, #4]
 8000ca6:	689b      	ldr	r3, [r3, #8]
 8000ca8:	f000 fda0 	bl	80017ec <ssd1306_WriteString>
    ssd1306_UpdateScreen();
 8000cac:	f000 fc5c 	bl	8001568 <ssd1306_UpdateScreen>
    // Wait for button release
    while(RIGHT_PRESSED) {
 8000cb0:	e004      	b.n	8000cbc <handle_reset+0x64>
        HAL_Delay(10);
 8000cb2:	200a      	movs	r0, #10
 8000cb4:	f001 f8a4 	bl	8001e00 <HAL_Delay>
        readPins();
 8000cb8:	f7ff fc3e 	bl	8000538 <readPins>
    while(RIGHT_PRESSED) {
 8000cbc:	4b3f      	ldr	r3, [pc, #252]	@ (8000dbc <handle_reset+0x164>)
 8000cbe:	681b      	ldr	r3, [r3, #0]
 8000cc0:	2b01      	cmp	r3, #1
 8000cc2:	d103      	bne.n	8000ccc <handle_reset+0x74>
 8000cc4:	4b3e      	ldr	r3, [pc, #248]	@ (8000dc0 <handle_reset+0x168>)
 8000cc6:	681b      	ldr	r3, [r3, #0]
 8000cc8:	2b00      	cmp	r3, #0
 8000cca:	d0f2      	beq.n	8000cb2 <handle_reset+0x5a>
    }

    // Wait for confirmation press
    uint32_t confirm_start = HAL_GetTick();
 8000ccc:	f001 f88e 	bl	8001dec <HAL_GetTick>
 8000cd0:	0003      	movs	r3, r0
 8000cd2:	603b      	str	r3, [r7, #0]
    uint8_t confirmed = 0;
 8000cd4:	1dfb      	adds	r3, r7, #7
 8000cd6:	2200      	movs	r2, #0
 8000cd8:	701a      	strb	r2, [r3, #0]

    while(HAL_GetTick() - confirm_start < RESET_CONFIRM_TIMEOUT) {
 8000cda:	e010      	b.n	8000cfe <handle_reset+0xa6>
        readPins();
 8000cdc:	f7ff fc2c 	bl	8000538 <readPins>

        if(RIGHT_PRESSED) {
 8000ce0:	4b36      	ldr	r3, [pc, #216]	@ (8000dbc <handle_reset+0x164>)
 8000ce2:	681b      	ldr	r3, [r3, #0]
 8000ce4:	2b01      	cmp	r3, #1
 8000ce6:	d107      	bne.n	8000cf8 <handle_reset+0xa0>
 8000ce8:	4b35      	ldr	r3, [pc, #212]	@ (8000dc0 <handle_reset+0x168>)
 8000cea:	681b      	ldr	r3, [r3, #0]
 8000cec:	2b00      	cmp	r3, #0
 8000cee:	d103      	bne.n	8000cf8 <handle_reset+0xa0>
            confirmed = 1;
 8000cf0:	1dfb      	adds	r3, r7, #7
 8000cf2:	2201      	movs	r2, #1
 8000cf4:	701a      	strb	r2, [r3, #0]
            break;
 8000cf6:	e00a      	b.n	8000d0e <handle_reset+0xb6>
        }

        HAL_Delay(100);
 8000cf8:	2064      	movs	r0, #100	@ 0x64
 8000cfa:	f001 f881 	bl	8001e00 <HAL_Delay>
    while(HAL_GetTick() - confirm_start < RESET_CONFIRM_TIMEOUT) {
 8000cfe:	f001 f875 	bl	8001dec <HAL_GetTick>
 8000d02:	0002      	movs	r2, r0
 8000d04:	683b      	ldr	r3, [r7, #0]
 8000d06:	1ad3      	subs	r3, r2, r3
 8000d08:	4a2e      	ldr	r2, [pc, #184]	@ (8000dc4 <handle_reset+0x16c>)
 8000d0a:	4293      	cmp	r3, r2
 8000d0c:	d9e6      	bls.n	8000cdc <handle_reset+0x84>
    }

    if(confirmed) {
 8000d0e:	1dfb      	adds	r3, r7, #7
 8000d10:	781b      	ldrb	r3, [r3, #0]
 8000d12:	2b00      	cmp	r3, #0
 8000d14:	d02a      	beq.n	8000d6c <handle_reset+0x114>
        // Perform reset
        reset_all_settings();
 8000d16:	f7ff fd3b 	bl	8000790 <reset_all_settings>
        ssd1306_InvertDisplay(0);  // Apply default display mode
 8000d1a:	2000      	movs	r0, #0
 8000d1c:	f000 fe78 	bl	8001a10 <ssd1306_InvertDisplay>

        // Show success feedback
        ssd1306_Fill(Black);
 8000d20:	2000      	movs	r0, #0
 8000d22:	f000 fc07 	bl	8001534 <ssd1306_Fill>
        ssd1306_SetCursor(35, 20);
 8000d26:	2114      	movs	r1, #20
 8000d28:	2023      	movs	r0, #35	@ 0x23
 8000d2a:	f000 fd8b 	bl	8001844 <ssd1306_SetCursor>
        ssd1306_WriteString("RESET OK!", ComicSans_11x12, White);
 8000d2e:	4b1f      	ldr	r3, [pc, #124]	@ (8000dac <handle_reset+0x154>)
 8000d30:	4825      	ldr	r0, [pc, #148]	@ (8000dc8 <handle_reset+0x170>)
 8000d32:	2201      	movs	r2, #1
 8000d34:	9200      	str	r2, [sp, #0]
 8000d36:	6819      	ldr	r1, [r3, #0]
 8000d38:	685a      	ldr	r2, [r3, #4]
 8000d3a:	689b      	ldr	r3, [r3, #8]
 8000d3c:	f000 fd56 	bl	80017ec <ssd1306_WriteString>
        ssd1306_UpdateScreen();
 8000d40:	f000 fc12 	bl	8001568 <ssd1306_UpdateScreen>
        HAL_Delay(1000);
 8000d44:	23fa      	movs	r3, #250	@ 0xfa
 8000d46:	009b      	lsls	r3, r3, #2
 8000d48:	0018      	movs	r0, r3
 8000d4a:	f001 f859 	bl	8001e00 <HAL_Delay>

        // Wait for button release
        while(RIGHT_PRESSED) {
 8000d4e:	e004      	b.n	8000d5a <handle_reset+0x102>
            HAL_Delay(10);
 8000d50:	200a      	movs	r0, #10
 8000d52:	f001 f855 	bl	8001e00 <HAL_Delay>
            readPins();
 8000d56:	f7ff fbef 	bl	8000538 <readPins>
        while(RIGHT_PRESSED) {
 8000d5a:	4b18      	ldr	r3, [pc, #96]	@ (8000dbc <handle_reset+0x164>)
 8000d5c:	681b      	ldr	r3, [r3, #0]
 8000d5e:	2b01      	cmp	r3, #1
 8000d60:	d11b      	bne.n	8000d9a <handle_reset+0x142>
 8000d62:	4b17      	ldr	r3, [pc, #92]	@ (8000dc0 <handle_reset+0x168>)
 8000d64:	681b      	ldr	r3, [r3, #0]
 8000d66:	2b00      	cmp	r3, #0
 8000d68:	d0f2      	beq.n	8000d50 <handle_reset+0xf8>
 8000d6a:	e016      	b.n	8000d9a <handle_reset+0x142>
        }
    } else {
        // Cancelled
        ssd1306_Fill(Black);
 8000d6c:	2000      	movs	r0, #0
 8000d6e:	f000 fbe1 	bl	8001534 <ssd1306_Fill>
        ssd1306_SetCursor(40, 25);
 8000d72:	2119      	movs	r1, #25
 8000d74:	2028      	movs	r0, #40	@ 0x28
 8000d76:	f000 fd65 	bl	8001844 <ssd1306_SetCursor>
        ssd1306_WriteString("Cancelled", ComicSans_11x12, White);
 8000d7a:	4b0c      	ldr	r3, [pc, #48]	@ (8000dac <handle_reset+0x154>)
 8000d7c:	4813      	ldr	r0, [pc, #76]	@ (8000dcc <handle_reset+0x174>)
 8000d7e:	2201      	movs	r2, #1
 8000d80:	9200      	str	r2, [sp, #0]
 8000d82:	6819      	ldr	r1, [r3, #0]
 8000d84:	685a      	ldr	r2, [r3, #4]
 8000d86:	689b      	ldr	r3, [r3, #8]
 8000d88:	f000 fd30 	bl	80017ec <ssd1306_WriteString>
        ssd1306_UpdateScreen();
 8000d8c:	f000 fbec 	bl	8001568 <ssd1306_UpdateScreen>
        HAL_Delay(1000);
 8000d90:	23fa      	movs	r3, #250	@ 0xfa
 8000d92:	009b      	lsls	r3, r3, #2
 8000d94:	0018      	movs	r0, r3
 8000d96:	f001 f833 	bl	8001e00 <HAL_Delay>
    }

    // Clear screen
    ssd1306_Fill(Black);
 8000d9a:	2000      	movs	r0, #0
 8000d9c:	f000 fbca 	bl	8001534 <ssd1306_Fill>
    ssd1306_UpdateScreen();
 8000da0:	f000 fbe2 	bl	8001568 <ssd1306_UpdateScreen>
}
 8000da4:	46c0      	nop			@ (mov r8, r8)
 8000da6:	46bd      	mov	sp, r7
 8000da8:	b002      	add	sp, #8
 8000daa:	bd80      	pop	{r7, pc}
 8000dac:	08008090 	.word	0x08008090
 8000db0:	08004acc 	.word	0x08004acc
 8000db4:	08004ad8 	.word	0x08004ad8
 8000db8:	08004ae4 	.word	0x08004ae4
 8000dbc:	200001b4 	.word	0x200001b4
 8000dc0:	200001b8 	.word	0x200001b8
 8000dc4:	0000270f 	.word	0x0000270f
 8000dc8:	08004af0 	.word	0x08004af0
 8000dcc:	08004afc 	.word	0x08004afc

08000dd0 <handle_credits>:

void handle_credits(){
 8000dd0:	b580      	push	{r7, lr}
 8000dd2:	b082      	sub	sp, #8
 8000dd4:	af02      	add	r7, sp, #8
    // Show confirmation prompt
    ssd1306_SetCursor(5, 10);  // x = 9
 8000dd6:	210a      	movs	r1, #10
 8000dd8:	2005      	movs	r0, #5
 8000dda:	f000 fd33 	bl	8001844 <ssd1306_SetCursor>
    ssd1306_WriteString("Bongo Cat Fidget Toy", ComicSans_11x12, White);
 8000dde:	4b35      	ldr	r3, [pc, #212]	@ (8000eb4 <handle_credits+0xe4>)
 8000de0:	4835      	ldr	r0, [pc, #212]	@ (8000eb8 <handle_credits+0xe8>)
 8000de2:	2201      	movs	r2, #1
 8000de4:	9200      	str	r2, [sp, #0]
 8000de6:	6819      	ldr	r1, [r3, #0]
 8000de8:	685a      	ldr	r2, [r3, #4]
 8000dea:	689b      	ldr	r3, [r3, #8]
 8000dec:	f000 fcfe 	bl	80017ec <ssd1306_WriteString>
    ssd1306_SetCursor(13, 21);  // x = 3
 8000df0:	2115      	movs	r1, #21
 8000df2:	200d      	movs	r0, #13
 8000df4:	f000 fd26 	bl	8001844 <ssd1306_SetCursor>
    ssd1306_WriteString("by Afonso Muralha", ComicSans_11x12, White);
 8000df8:	4b2e      	ldr	r3, [pc, #184]	@ (8000eb4 <handle_credits+0xe4>)
 8000dfa:	4830      	ldr	r0, [pc, #192]	@ (8000ebc <handle_credits+0xec>)
 8000dfc:	2201      	movs	r2, #1
 8000dfe:	9200      	str	r2, [sp, #0]
 8000e00:	6819      	ldr	r1, [r3, #0]
 8000e02:	685a      	ldr	r2, [r3, #4]
 8000e04:	689b      	ldr	r3, [r3, #8]
 8000e06:	f000 fcf1 	bl	80017ec <ssd1306_WriteString>
    ssd1306_SetCursor(13, 40);  // x = 9
 8000e0a:	2128      	movs	r1, #40	@ 0x28
 8000e0c:	200d      	movs	r0, #13
 8000e0e:	f000 fd19 	bl	8001844 <ssd1306_SetCursor>
    ssd1306_WriteString("afonsomuralha.com", ComicSans_11x12, White);
 8000e12:	4b28      	ldr	r3, [pc, #160]	@ (8000eb4 <handle_credits+0xe4>)
 8000e14:	482a      	ldr	r0, [pc, #168]	@ (8000ec0 <handle_credits+0xf0>)
 8000e16:	2201      	movs	r2, #1
 8000e18:	9200      	str	r2, [sp, #0]
 8000e1a:	6819      	ldr	r1, [r3, #0]
 8000e1c:	685a      	ldr	r2, [r3, #4]
 8000e1e:	689b      	ldr	r3, [r3, #8]
 8000e20:	f000 fce4 	bl	80017ec <ssd1306_WriteString>

    ssd1306_UpdateScreen();
 8000e24:	f000 fba0 	bl	8001568 <ssd1306_UpdateScreen>
    // Wait for button release
    while(BOTH_PRESSED || LEFT_PRESSED || RIGHT_PRESSED) {
 8000e28:	e004      	b.n	8000e34 <handle_credits+0x64>
        HAL_Delay(10);
 8000e2a:	200a      	movs	r0, #10
 8000e2c:	f000 ffe8 	bl	8001e00 <HAL_Delay>
        readPins();
 8000e30:	f7ff fb82 	bl	8000538 <readPins>
    while(BOTH_PRESSED || LEFT_PRESSED || RIGHT_PRESSED) {
 8000e34:	4b23      	ldr	r3, [pc, #140]	@ (8000ec4 <handle_credits+0xf4>)
 8000e36:	681b      	ldr	r3, [r3, #0]
 8000e38:	2b00      	cmp	r3, #0
 8000e3a:	d103      	bne.n	8000e44 <handle_credits+0x74>
 8000e3c:	4b22      	ldr	r3, [pc, #136]	@ (8000ec8 <handle_credits+0xf8>)
 8000e3e:	681b      	ldr	r3, [r3, #0]
 8000e40:	2b00      	cmp	r3, #0
 8000e42:	d0f2      	beq.n	8000e2a <handle_credits+0x5a>
 8000e44:	4b1f      	ldr	r3, [pc, #124]	@ (8000ec4 <handle_credits+0xf4>)
 8000e46:	681b      	ldr	r3, [r3, #0]
 8000e48:	2b00      	cmp	r3, #0
 8000e4a:	d103      	bne.n	8000e54 <handle_credits+0x84>
 8000e4c:	4b1e      	ldr	r3, [pc, #120]	@ (8000ec8 <handle_credits+0xf8>)
 8000e4e:	681b      	ldr	r3, [r3, #0]
 8000e50:	2b01      	cmp	r3, #1
 8000e52:	d0ea      	beq.n	8000e2a <handle_credits+0x5a>
 8000e54:	4b1b      	ldr	r3, [pc, #108]	@ (8000ec4 <handle_credits+0xf4>)
 8000e56:	681b      	ldr	r3, [r3, #0]
 8000e58:	2b01      	cmp	r3, #1
 8000e5a:	d000      	beq.n	8000e5e <handle_credits+0x8e>
 8000e5c:	e003      	b.n	8000e66 <handle_credits+0x96>
 8000e5e:	4b1a      	ldr	r3, [pc, #104]	@ (8000ec8 <handle_credits+0xf8>)
 8000e60:	681b      	ldr	r3, [r3, #0]
 8000e62:	2b00      	cmp	r3, #0
 8000e64:	d0e1      	beq.n	8000e2a <handle_credits+0x5a>
    }

    while(1) {
        readPins();
 8000e66:	f7ff fb67 	bl	8000538 <readPins>

        if(RIGHT_PRESSED || LEFT_PRESSED || BOTH_PRESSED) {
 8000e6a:	4b16      	ldr	r3, [pc, #88]	@ (8000ec4 <handle_credits+0xf4>)
 8000e6c:	681b      	ldr	r3, [r3, #0]
 8000e6e:	2b01      	cmp	r3, #1
 8000e70:	d103      	bne.n	8000e7a <handle_credits+0xaa>
 8000e72:	4b15      	ldr	r3, [pc, #84]	@ (8000ec8 <handle_credits+0xf8>)
 8000e74:	681b      	ldr	r3, [r3, #0]
 8000e76:	2b00      	cmp	r3, #0
 8000e78:	d013      	beq.n	8000ea2 <handle_credits+0xd2>
 8000e7a:	4b12      	ldr	r3, [pc, #72]	@ (8000ec4 <handle_credits+0xf4>)
 8000e7c:	681b      	ldr	r3, [r3, #0]
 8000e7e:	2b00      	cmp	r3, #0
 8000e80:	d103      	bne.n	8000e8a <handle_credits+0xba>
 8000e82:	4b11      	ldr	r3, [pc, #68]	@ (8000ec8 <handle_credits+0xf8>)
 8000e84:	681b      	ldr	r3, [r3, #0]
 8000e86:	2b01      	cmp	r3, #1
 8000e88:	d00b      	beq.n	8000ea2 <handle_credits+0xd2>
 8000e8a:	4b0e      	ldr	r3, [pc, #56]	@ (8000ec4 <handle_credits+0xf4>)
 8000e8c:	681b      	ldr	r3, [r3, #0]
 8000e8e:	2b00      	cmp	r3, #0
 8000e90:	d103      	bne.n	8000e9a <handle_credits+0xca>
 8000e92:	4b0d      	ldr	r3, [pc, #52]	@ (8000ec8 <handle_credits+0xf8>)
 8000e94:	681b      	ldr	r3, [r3, #0]
 8000e96:	2b00      	cmp	r3, #0
 8000e98:	d003      	beq.n	8000ea2 <handle_credits+0xd2>
            break;
        }

        HAL_Delay(100);
 8000e9a:	2064      	movs	r0, #100	@ 0x64
 8000e9c:	f000 ffb0 	bl	8001e00 <HAL_Delay>
        readPins();
 8000ea0:	e7e1      	b.n	8000e66 <handle_credits+0x96>
    }

    // Clear screen
    ssd1306_Fill(Black);
 8000ea2:	2000      	movs	r0, #0
 8000ea4:	f000 fb46 	bl	8001534 <ssd1306_Fill>
    ssd1306_UpdateScreen();
 8000ea8:	f000 fb5e 	bl	8001568 <ssd1306_UpdateScreen>
}
 8000eac:	46c0      	nop			@ (mov r8, r8)
 8000eae:	46bd      	mov	sp, r7
 8000eb0:	bd80      	pop	{r7, pc}
 8000eb2:	46c0      	nop			@ (mov r8, r8)
 8000eb4:	08008090 	.word	0x08008090
 8000eb8:	08004b08 	.word	0x08004b08
 8000ebc:	08004b20 	.word	0x08004b20
 8000ec0:	08004b34 	.word	0x08004b34
 8000ec4:	200001b4 	.word	0x200001b4
 8000ec8:	200001b8 	.word	0x200001b8

08000ecc <handle_boot_overrides>:

// Handle boot-time button overrides
void handle_boot_overrides(void) {
 8000ecc:	b580      	push	{r7, lr}
 8000ece:	af00      	add	r7, sp, #0
    readPins();
 8000ed0:	f7ff fb32 	bl	8000538 <readPins>

    // Show credits
    if(BOTH_PRESSED){
 8000ed4:	4b18      	ldr	r3, [pc, #96]	@ (8000f38 <handle_boot_overrides+0x6c>)
 8000ed6:	681b      	ldr	r3, [r3, #0]
 8000ed8:	2b00      	cmp	r3, #0
 8000eda:	d106      	bne.n	8000eea <handle_boot_overrides+0x1e>
 8000edc:	4b17      	ldr	r3, [pc, #92]	@ (8000f3c <handle_boot_overrides+0x70>)
 8000ede:	681b      	ldr	r3, [r3, #0]
 8000ee0:	2b00      	cmp	r3, #0
 8000ee2:	d102      	bne.n	8000eea <handle_boot_overrides+0x1e>
        handle_credits();
 8000ee4:	f7ff ff74 	bl	8000dd0 <handle_credits>
        // If right is pressed at boot, reset everything
        if(RIGHT_PRESSED) {
            handle_reset();
        }
    }
}
 8000ee8:	e023      	b.n	8000f32 <handle_boot_overrides+0x66>
        if(LEFT_PRESSED) {
 8000eea:	4b13      	ldr	r3, [pc, #76]	@ (8000f38 <handle_boot_overrides+0x6c>)
 8000eec:	681b      	ldr	r3, [r3, #0]
 8000eee:	2b00      	cmp	r3, #0
 8000ef0:	d115      	bne.n	8000f1e <handle_boot_overrides+0x52>
 8000ef2:	4b12      	ldr	r3, [pc, #72]	@ (8000f3c <handle_boot_overrides+0x70>)
 8000ef4:	681b      	ldr	r3, [r3, #0]
 8000ef6:	2b01      	cmp	r3, #1
 8000ef8:	d111      	bne.n	8000f1e <handle_boot_overrides+0x52>
            toggle_display_invert();
 8000efa:	f7ff faa9 	bl	8000450 <toggle_display_invert>
            force_save();  // Save immediately for boot-time changes
 8000efe:	f7ff fc81 	bl	8000804 <force_save>
            while(LEFT_PRESSED) {
 8000f02:	e004      	b.n	8000f0e <handle_boot_overrides+0x42>
                HAL_Delay(10);
 8000f04:	200a      	movs	r0, #10
 8000f06:	f000 ff7b 	bl	8001e00 <HAL_Delay>
                readPins();
 8000f0a:	f7ff fb15 	bl	8000538 <readPins>
            while(LEFT_PRESSED) {
 8000f0e:	4b0a      	ldr	r3, [pc, #40]	@ (8000f38 <handle_boot_overrides+0x6c>)
 8000f10:	681b      	ldr	r3, [r3, #0]
 8000f12:	2b00      	cmp	r3, #0
 8000f14:	d103      	bne.n	8000f1e <handle_boot_overrides+0x52>
 8000f16:	4b09      	ldr	r3, [pc, #36]	@ (8000f3c <handle_boot_overrides+0x70>)
 8000f18:	681b      	ldr	r3, [r3, #0]
 8000f1a:	2b01      	cmp	r3, #1
 8000f1c:	d0f2      	beq.n	8000f04 <handle_boot_overrides+0x38>
        if(RIGHT_PRESSED) {
 8000f1e:	4b06      	ldr	r3, [pc, #24]	@ (8000f38 <handle_boot_overrides+0x6c>)
 8000f20:	681b      	ldr	r3, [r3, #0]
 8000f22:	2b01      	cmp	r3, #1
 8000f24:	d105      	bne.n	8000f32 <handle_boot_overrides+0x66>
 8000f26:	4b05      	ldr	r3, [pc, #20]	@ (8000f3c <handle_boot_overrides+0x70>)
 8000f28:	681b      	ldr	r3, [r3, #0]
 8000f2a:	2b00      	cmp	r3, #0
 8000f2c:	d101      	bne.n	8000f32 <handle_boot_overrides+0x66>
            handle_reset();
 8000f2e:	f7ff fe93 	bl	8000c58 <handle_reset>
}
 8000f32:	46c0      	nop			@ (mov r8, r8)
 8000f34:	46bd      	mov	sp, r7
 8000f36:	bd80      	pop	{r7, pc}
 8000f38:	200001b4 	.word	0x200001b4
 8000f3c:	200001b8 	.word	0x200001b8

08000f40 <HAL_TIM_PeriodElapsedCallback>:

// Callback: timer has rolled over
void HAL_TIM_PeriodElapsedCallback(TIM_HandleTypeDef *htim)
{
 8000f40:	b580      	push	{r7, lr}
 8000f42:	b082      	sub	sp, #8
 8000f44:	af00      	add	r7, sp, #0
 8000f46:	6078      	str	r0, [r7, #4]
    if (htim == &htim14)
 8000f48:	687a      	ldr	r2, [r7, #4]
 8000f4a:	4b04      	ldr	r3, [pc, #16]	@ (8000f5c <HAL_TIM_PeriodElapsedCallback+0x1c>)
 8000f4c:	429a      	cmp	r2, r3
 8000f4e:	d101      	bne.n	8000f54 <HAL_TIM_PeriodElapsedCallback+0x14>
    {
        readPins();
 8000f50:	f7ff faf2 	bl	8000538 <readPins>
    }
}
 8000f54:	46c0      	nop			@ (mov r8, r8)
 8000f56:	46bd      	mov	sp, r7
 8000f58:	b002      	add	sp, #8
 8000f5a:	bd80      	pop	{r7, pc}
 8000f5c:	20000168 	.word	0x20000168

08000f60 <main>:
/**
  * @brief  The application entry point.
  * @retval int
  */
int main(void)
{
 8000f60:	b590      	push	{r4, r7, lr}
 8000f62:	b089      	sub	sp, #36	@ 0x24
 8000f64:	af02      	add	r7, sp, #8
  /* USER CODE END 1 */

  /* MCU Configuration--------------------------------------------------------*/

  /* Reset of all peripherals, Initializes the Flash interface and the Systick. */
  HAL_Init();
 8000f66:	f000 fec5 	bl	8001cf4 <HAL_Init>
  /* USER CODE BEGIN Init */

  /* USER CODE END Init */

  /* Configure the system clock */
  SystemClock_Config();
 8000f6a:	f000 f8b3 	bl	80010d4 <SystemClock_Config>
  /* USER CODE BEGIN SysInit */

  /* USER CODE END SysInit */

  /* Initialize all configured peripherals */
  MX_GPIO_Init();
 8000f6e:	f000 f98b 	bl	8001288 <MX_GPIO_Init>
  MX_I2C1_Init();
 8000f72:	f000 f91f 	bl	80011b4 <MX_I2C1_Init>
  MX_TIM14_Init();
 8000f76:	f000 f961 	bl	800123c <MX_TIM14_Init>

  /* Initialize interrupts */
  MX_NVIC_Init();
 8000f7a:	f000 f906 	bl	800118a <MX_NVIC_Init>
  /* USER CODE BEGIN 2 */
  HAL_GPIO_WritePin(OLED_RST_GPIO_Port, OLED_RST_Pin, GPIO_PIN_RESET);
 8000f7e:	2380      	movs	r3, #128	@ 0x80
 8000f80:	0219      	lsls	r1, r3, #8
 8000f82:	23a0      	movs	r3, #160	@ 0xa0
 8000f84:	05db      	lsls	r3, r3, #23
 8000f86:	2200      	movs	r2, #0
 8000f88:	0018      	movs	r0, r3
 8000f8a:	f001 fb62 	bl	8002652 <HAL_GPIO_WritePin>
  HAL_Delay(10);
 8000f8e:	200a      	movs	r0, #10
 8000f90:	f000 ff36 	bl	8001e00 <HAL_Delay>
  HAL_GPIO_WritePin(OLED_RST_GPIO_Port, OLED_RST_Pin, GPIO_PIN_SET);
 8000f94:	2380      	movs	r3, #128	@ 0x80
 8000f96:	0219      	lsls	r1, r3, #8
 8000f98:	23a0      	movs	r3, #160	@ 0xa0
 8000f9a:	05db      	lsls	r3, r3, #23
 8000f9c:	2201      	movs	r2, #1
 8000f9e:	0018      	movs	r0, r3
 8000fa0:	f001 fb57 	bl	8002652 <HAL_GPIO_WritePin>
  ssd1306_Init();
 8000fa4:	f000 fa5a 	bl	800145c <ssd1306_Init>

  load_settings();
 8000fa8:	f7ff fba4 	bl	80006f4 <load_settings>

  // Apply the loaded display invert setting
  ssd1306_InvertDisplay(settings.display_inverted);
 8000fac:	4b42      	ldr	r3, [pc, #264]	@ (80010b8 <main+0x158>)
 8000fae:	7b1b      	ldrb	r3, [r3, #12]
 8000fb0:	0018      	movs	r0, r3
 8000fb2:	f000 fd2d 	bl	8001a10 <ssd1306_InvertDisplay>

  // Initialize save time
  last_save_time = HAL_GetTick();
 8000fb6:	f000 ff19 	bl	8001dec <HAL_GetTick>
 8000fba:	0002      	movs	r2, r0
 8000fbc:	4b3f      	ldr	r3, [pc, #252]	@ (80010bc <main+0x15c>)
 8000fbe:	601a      	str	r2, [r3, #0]

  // Check button states at boot for override options
  handle_boot_overrides();
 8000fc0:	f7ff ff84 	bl	8000ecc <handle_boot_overrides>

  state_e state = IDLE;
 8000fc4:	2317      	movs	r3, #23
 8000fc6:	18fb      	adds	r3, r7, r3
 8000fc8:	2200      	movs	r2, #0
 8000fca:	701a      	strb	r2, [r3, #0]
  int32_t idle_cntr = 0;
 8000fcc:	2300      	movs	r3, #0
 8000fce:	613b      	str	r3, [r7, #16]
  int32_t tap_left_cntr = 0;
 8000fd0:	2300      	movs	r3, #0
 8000fd2:	60fb      	str	r3, [r7, #12]
  int32_t tap_right_cntr = 0;
 8000fd4:	2300      	movs	r3, #0
 8000fd6:	60bb      	str	r3, [r7, #8]
  uint8_t left_state = 0;
 8000fd8:	1dfb      	adds	r3, r7, #7
 8000fda:	2200      	movs	r2, #0
 8000fdc:	701a      	strb	r2, [r3, #0]
  uint8_t right_state = 0;
 8000fde:	1dbb      	adds	r3, r7, #6
 8000fe0:	2200      	movs	r2, #0
 8000fe2:	701a      	strb	r2, [r3, #0]

  HAL_TIM_Base_Start_IT(&htim14);
 8000fe4:	4b36      	ldr	r3, [pc, #216]	@ (80010c0 <main+0x160>)
 8000fe6:	0018      	movs	r0, r3
 8000fe8:	f002 feae 	bl	8003d48 <HAL_TIM_Base_Start_IT>

  while(1) {
    // Periodic tasks
    check_and_save();
 8000fec:	f7ff fbf0 	bl	80007d0 <check_and_save>
    update_saved_indicator();
 8000ff0:	f7ff fc16 	bl	8000820 <update_saved_indicator>

    switch(state){
 8000ff4:	2317      	movs	r3, #23
 8000ff6:	18fb      	adds	r3, r7, r3
 8000ff8:	781b      	ldrb	r3, [r3, #0]
 8000ffa:	2b00      	cmp	r3, #0
 8000ffc:	d002      	beq.n	8001004 <main+0xa4>
 8000ffe:	2b01      	cmp	r3, #1
 8001000:	d028      	beq.n	8001054 <main+0xf4>
 8001002:	e058      	b.n	80010b6 <main+0x156>
    case IDLE:
        if(sw_state_left == 0 || sw_state_right == 0){
 8001004:	4b2f      	ldr	r3, [pc, #188]	@ (80010c4 <main+0x164>)
 8001006:	681b      	ldr	r3, [r3, #0]
 8001008:	2b00      	cmp	r3, #0
 800100a:	d003      	beq.n	8001014 <main+0xb4>
 800100c:	4b2e      	ldr	r3, [pc, #184]	@ (80010c8 <main+0x168>)
 800100e:	681b      	ldr	r3, [r3, #0]
 8001010:	2b00      	cmp	r3, #0
 8001012:	d104      	bne.n	800101e <main+0xbe>
            // Smooth transition - no clear, just go to SWITCH state
            state = SWITCH;
 8001014:	2317      	movs	r3, #23
 8001016:	18fb      	adds	r3, r7, r3
 8001018:	2201      	movs	r2, #1
 800101a:	701a      	strb	r2, [r3, #0]
            draw_animation(ani_idle[idle_cnt]);
            update_display_with_overlays();
            idle_cnt = (idle_cnt + 1) % ani_idle_LEN;
            HAL_Delay(100);
        }
        break;
 800101c:	e04b      	b.n	80010b6 <main+0x156>
            draw_animation(ani_idle[idle_cnt]);
 800101e:	4b2b      	ldr	r3, [pc, #172]	@ (80010cc <main+0x16c>)
 8001020:	781b      	ldrb	r3, [r3, #0]
 8001022:	001a      	movs	r2, r3
 8001024:	4b2a      	ldr	r3, [pc, #168]	@ (80010d0 <main+0x170>)
 8001026:	0092      	lsls	r2, r2, #2
 8001028:	58d3      	ldr	r3, [r2, r3]
 800102a:	0018      	movs	r0, r3
 800102c:	f7ff fa46 	bl	80004bc <draw_animation>
            update_display_with_overlays();
 8001030:	f7ff fada 	bl	80005e8 <update_display_with_overlays>
            idle_cnt = (idle_cnt + 1) % ani_idle_LEN;
 8001034:	4b25      	ldr	r3, [pc, #148]	@ (80010cc <main+0x16c>)
 8001036:	781b      	ldrb	r3, [r3, #0]
 8001038:	3301      	adds	r3, #1
 800103a:	2205      	movs	r2, #5
 800103c:	0011      	movs	r1, r2
 800103e:	0018      	movs	r0, r3
 8001040:	f7ff f9d8 	bl	80003f4 <__aeabi_idivmod>
 8001044:	000b      	movs	r3, r1
 8001046:	b2da      	uxtb	r2, r3
 8001048:	4b20      	ldr	r3, [pc, #128]	@ (80010cc <main+0x16c>)
 800104a:	701a      	strb	r2, [r3, #0]
            HAL_Delay(100);
 800104c:	2064      	movs	r0, #100	@ 0x64
 800104e:	f000 fed7 	bl	8001e00 <HAL_Delay>
        break;
 8001052:	e030      	b.n	80010b6 <main+0x156>

    case SWITCH:
        // Handle special button combos
        handle_display_mode_switch();
 8001054:	f7ff fbfe 	bl	8000854 <handle_display_mode_switch>
        handle_invert_toggle();
 8001058:	f7ff fc42 	bl	80008e0 <handle_invert_toggle>

        // Check for idle transition
        if(check_idle_transition(&idle_cntr, &left_state, &right_state)) {
 800105c:	1dba      	adds	r2, r7, #6
 800105e:	1df9      	adds	r1, r7, #7
 8001060:	2310      	movs	r3, #16
 8001062:	18fb      	adds	r3, r7, r3
 8001064:	0018      	movs	r0, r3
 8001066:	f7ff fdb1 	bl	8000bcc <check_idle_transition>
 800106a:	1e03      	subs	r3, r0, #0
 800106c:	d004      	beq.n	8001078 <main+0x118>
            state = IDLE;
 800106e:	2317      	movs	r3, #23
 8001070:	18fb      	adds	r3, r7, r3
 8001072:	2200      	movs	r2, #0
 8001074:	701a      	strb	r2, [r3, #0]
 8001076:	e013      	b.n	80010a0 <main+0x140>
        }
        // Handle normal paw animations
        else if(!NONE_PRESSED) {
 8001078:	4b12      	ldr	r3, [pc, #72]	@ (80010c4 <main+0x164>)
 800107a:	681b      	ldr	r3, [r3, #0]
 800107c:	2b01      	cmp	r3, #1
 800107e:	d103      	bne.n	8001088 <main+0x128>
 8001080:	4b11      	ldr	r3, [pc, #68]	@ (80010c8 <main+0x168>)
 8001082:	681b      	ldr	r3, [r3, #0]
 8001084:	2b01      	cmp	r3, #1
 8001086:	d00b      	beq.n	80010a0 <main+0x140>
            handle_paw_animations(&left_state, &right_state,
 8001088:	2308      	movs	r3, #8
 800108a:	18fc      	adds	r4, r7, r3
 800108c:	230c      	movs	r3, #12
 800108e:	18fa      	adds	r2, r7, r3
 8001090:	1db9      	adds	r1, r7, #6
 8001092:	1df8      	adds	r0, r7, #7
 8001094:	2310      	movs	r3, #16
 8001096:	18fb      	adds	r3, r7, r3
 8001098:	9300      	str	r3, [sp, #0]
 800109a:	0023      	movs	r3, r4
 800109c:	f7ff fcd4 	bl	8000a48 <handle_paw_animations>
                                &tap_left_cntr, &tap_right_cntr, &idle_cntr);
        }

        // Handle tap decay animations
        handle_tap_decay(&tap_left_cntr, &tap_right_cntr);
 80010a0:	2308      	movs	r3, #8
 80010a2:	18fa      	adds	r2, r7, r3
 80010a4:	230c      	movs	r3, #12
 80010a6:	18fb      	adds	r3, r7, r3
 80010a8:	0011      	movs	r1, r2
 80010aa:	0018      	movs	r0, r3
 80010ac:	f7ff fc8e 	bl	80009cc <handle_tap_decay>

        // Update display with all overlays
        update_display_with_overlays();
 80010b0:	f7ff fa9a 	bl	80005e8 <update_display_with_overlays>
        break;
 80010b4:	46c0      	nop			@ (mov r8, r8)
    check_and_save();
 80010b6:	e799      	b.n	8000fec <main+0x8c>
 80010b8:	200001c0 	.word	0x200001c0
 80010bc:	200001dc 	.word	0x200001dc
 80010c0:	20000168 	.word	0x20000168
 80010c4:	200001b4 	.word	0x200001b4
 80010c8:	200001b8 	.word	0x200001b8
 80010cc:	200001bc 	.word	0x200001bc
 80010d0:	20000000 	.word	0x20000000

080010d4 <SystemClock_Config>:
/**
  * @brief System Clock Configuration
  * @retval None
  */
void SystemClock_Config(void)
{
 80010d4:	b590      	push	{r4, r7, lr}
 80010d6:	b093      	sub	sp, #76	@ 0x4c
 80010d8:	af00      	add	r7, sp, #0
  RCC_OscInitTypeDef RCC_OscInitStruct = {0};
 80010da:	2414      	movs	r4, #20
 80010dc:	193b      	adds	r3, r7, r4
 80010de:	0018      	movs	r0, r3
 80010e0:	2334      	movs	r3, #52	@ 0x34
 80010e2:	001a      	movs	r2, r3
 80010e4:	2100      	movs	r1, #0
 80010e6:	f003 f859 	bl	800419c <memset>
  RCC_ClkInitTypeDef RCC_ClkInitStruct = {0};
 80010ea:	1d3b      	adds	r3, r7, #4
 80010ec:	0018      	movs	r0, r3
 80010ee:	2310      	movs	r3, #16
 80010f0:	001a      	movs	r2, r3
 80010f2:	2100      	movs	r1, #0
 80010f4:	f003 f852 	bl	800419c <memset>

  /** Configure the main internal regulator output voltage
  */
  HAL_PWREx_ControlVoltageScaling(PWR_REGULATOR_VOLTAGE_SCALE1);
 80010f8:	2380      	movs	r3, #128	@ 0x80
 80010fa:	009b      	lsls	r3, r3, #2
 80010fc:	0018      	movs	r0, r3
 80010fe:	f001 ffcb 	bl	8003098 <HAL_PWREx_ControlVoltageScaling>

  /** Initializes the RCC Oscillators according to the specified parameters
  * in the RCC_OscInitTypeDef structure.
  */
  RCC_OscInitStruct.OscillatorType = RCC_OSCILLATORTYPE_HSI;
 8001102:	193b      	adds	r3, r7, r4
 8001104:	2202      	movs	r2, #2
 8001106:	601a      	str	r2, [r3, #0]
  RCC_OscInitStruct.HSIState = RCC_HSI_ON;
 8001108:	193b      	adds	r3, r7, r4
 800110a:	2280      	movs	r2, #128	@ 0x80
 800110c:	0052      	lsls	r2, r2, #1
 800110e:	60da      	str	r2, [r3, #12]
  RCC_OscInitStruct.HSIDiv = RCC_HSI_DIV1;
 8001110:	0021      	movs	r1, r4
 8001112:	187b      	adds	r3, r7, r1
 8001114:	2200      	movs	r2, #0
 8001116:	611a      	str	r2, [r3, #16]
  RCC_OscInitStruct.HSICalibrationValue = RCC_HSICALIBRATION_DEFAULT;
 8001118:	187b      	adds	r3, r7, r1
 800111a:	2240      	movs	r2, #64	@ 0x40
 800111c:	615a      	str	r2, [r3, #20]
  RCC_OscInitStruct.PLL.PLLState = RCC_PLL_ON;
 800111e:	187b      	adds	r3, r7, r1
 8001120:	2202      	movs	r2, #2
 8001122:	61da      	str	r2, [r3, #28]
  RCC_OscInitStruct.PLL.PLLSource = RCC_PLLSOURCE_HSI;
 8001124:	187b      	adds	r3, r7, r1
 8001126:	2202      	movs	r2, #2
 8001128:	621a      	str	r2, [r3, #32]
  RCC_OscInitStruct.PLL.PLLM = RCC_PLLM_DIV1;
 800112a:	187b      	adds	r3, r7, r1
 800112c:	2200      	movs	r2, #0
 800112e:	625a      	str	r2, [r3, #36]	@ 0x24
  RCC_OscInitStruct.PLL.PLLN = 8;
 8001130:	187b      	adds	r3, r7, r1
 8001132:	2208      	movs	r2, #8
 8001134:	629a      	str	r2, [r3, #40]	@ 0x28
  RCC_OscInitStruct.PLL.PLLP = RCC_PLLP_DIV2;
 8001136:	187b      	adds	r3, r7, r1
 8001138:	2280      	movs	r2, #128	@ 0x80
 800113a:	0292      	lsls	r2, r2, #10
 800113c:	62da      	str	r2, [r3, #44]	@ 0x2c
  RCC_OscInitStruct.PLL.PLLR = RCC_PLLR_DIV2;
 800113e:	187b      	adds	r3, r7, r1
 8001140:	2280      	movs	r2, #128	@ 0x80
 8001142:	0592      	lsls	r2, r2, #22
 8001144:	631a      	str	r2, [r3, #48]	@ 0x30
  if (HAL_RCC_OscConfig(&RCC_OscInitStruct) != HAL_OK)
 8001146:	187b      	adds	r3, r7, r1
 8001148:	0018      	movs	r0, r3
 800114a:	f001 ffe5 	bl	8003118 <HAL_RCC_OscConfig>
 800114e:	1e03      	subs	r3, r0, #0
 8001150:	d001      	beq.n	8001156 <SystemClock_Config+0x82>
  {
    Error_Handler();
 8001152:	f000 f943 	bl	80013dc <Error_Handler>
  }

  /** Initializes the CPU, AHB and APB buses clocks
  */
  RCC_ClkInitStruct.ClockType = RCC_CLOCKTYPE_HCLK|RCC_CLOCKTYPE_SYSCLK
 8001156:	1d3b      	adds	r3, r7, #4
 8001158:	2207      	movs	r2, #7
 800115a:	601a      	str	r2, [r3, #0]
                              |RCC_CLOCKTYPE_PCLK1;
  RCC_ClkInitStruct.SYSCLKSource = RCC_SYSCLKSOURCE_PLLCLK;
 800115c:	1d3b      	adds	r3, r7, #4
 800115e:	2202      	movs	r2, #2
 8001160:	605a      	str	r2, [r3, #4]
  RCC_ClkInitStruct.AHBCLKDivider = RCC_SYSCLK_DIV2;
 8001162:	1d3b      	adds	r3, r7, #4
 8001164:	2280      	movs	r2, #128	@ 0x80
 8001166:	0112      	lsls	r2, r2, #4
 8001168:	609a      	str	r2, [r3, #8]
  RCC_ClkInitStruct.APB1CLKDivider = RCC_HCLK_DIV1;
 800116a:	1d3b      	adds	r3, r7, #4
 800116c:	2200      	movs	r2, #0
 800116e:	60da      	str	r2, [r3, #12]

  if (HAL_RCC_ClockConfig(&RCC_ClkInitStruct, FLASH_LATENCY_1) != HAL_OK)
 8001170:	1d3b      	adds	r3, r7, #4
 8001172:	2101      	movs	r1, #1
 8001174:	0018      	movs	r0, r3
 8001176:	f002 fadf 	bl	8003738 <HAL_RCC_ClockConfig>
 800117a:	1e03      	subs	r3, r0, #0
 800117c:	d001      	beq.n	8001182 <SystemClock_Config+0xae>
  {
    Error_Handler();
 800117e:	f000 f92d 	bl	80013dc <Error_Handler>
  }
}
 8001182:	46c0      	nop			@ (mov r8, r8)
 8001184:	46bd      	mov	sp, r7
 8001186:	b013      	add	sp, #76	@ 0x4c
 8001188:	bd90      	pop	{r4, r7, pc}

0800118a <MX_NVIC_Init>:
/**
  * @brief NVIC Configuration.
  * @retval None
  */
static void MX_NVIC_Init(void)
{
 800118a:	b580      	push	{r7, lr}
 800118c:	af00      	add	r7, sp, #0
  /* RCC_IRQn interrupt configuration */
  HAL_NVIC_SetPriority(RCC_IRQn, 0, 0);
 800118e:	2200      	movs	r2, #0
 8001190:	2100      	movs	r1, #0
 8001192:	2004      	movs	r0, #4
 8001194:	f000 ff04 	bl	8001fa0 <HAL_NVIC_SetPriority>
  HAL_NVIC_EnableIRQ(RCC_IRQn);
 8001198:	2004      	movs	r0, #4
 800119a:	f000 ff16 	bl	8001fca <HAL_NVIC_EnableIRQ>
  /* TIM14_IRQn interrupt configuration */
  HAL_NVIC_SetPriority(TIM14_IRQn, 0, 0);
 800119e:	2200      	movs	r2, #0
 80011a0:	2100      	movs	r1, #0
 80011a2:	2013      	movs	r0, #19
 80011a4:	f000 fefc 	bl	8001fa0 <HAL_NVIC_SetPriority>
  HAL_NVIC_EnableIRQ(TIM14_IRQn);
 80011a8:	2013      	movs	r0, #19
 80011aa:	f000 ff0e 	bl	8001fca <HAL_NVIC_EnableIRQ>
}
 80011ae:	46c0      	nop			@ (mov r8, r8)
 80011b0:	46bd      	mov	sp, r7
 80011b2:	bd80      	pop	{r7, pc}

080011b4 <MX_I2C1_Init>:
  * @brief I2C1 Initialization Function
  * @param None
  * @retval None
  */
static void MX_I2C1_Init(void)
{
 80011b4:	b580      	push	{r7, lr}
 80011b6:	af00      	add	r7, sp, #0
  /* USER CODE END I2C1_Init 0 */

  /* USER CODE BEGIN I2C1_Init 1 */

  /* USER CODE END I2C1_Init 1 */
  hi2c1.Instance = I2C1;
 80011b8:	4b1d      	ldr	r3, [pc, #116]	@ (8001230 <MX_I2C1_Init+0x7c>)
 80011ba:	4a1e      	ldr	r2, [pc, #120]	@ (8001234 <MX_I2C1_Init+0x80>)
 80011bc:	601a      	str	r2, [r3, #0]
  hi2c1.Init.Timing = 0x00601133;
 80011be:	4b1c      	ldr	r3, [pc, #112]	@ (8001230 <MX_I2C1_Init+0x7c>)
 80011c0:	4a1d      	ldr	r2, [pc, #116]	@ (8001238 <MX_I2C1_Init+0x84>)
 80011c2:	605a      	str	r2, [r3, #4]
  hi2c1.Init.OwnAddress1 = 0;
 80011c4:	4b1a      	ldr	r3, [pc, #104]	@ (8001230 <MX_I2C1_Init+0x7c>)
 80011c6:	2200      	movs	r2, #0
 80011c8:	609a      	str	r2, [r3, #8]
  hi2c1.Init.AddressingMode = I2C_ADDRESSINGMODE_7BIT;
 80011ca:	4b19      	ldr	r3, [pc, #100]	@ (8001230 <MX_I2C1_Init+0x7c>)
 80011cc:	2201      	movs	r2, #1
 80011ce:	60da      	str	r2, [r3, #12]
  hi2c1.Init.DualAddressMode = I2C_DUALADDRESS_DISABLE;
 80011d0:	4b17      	ldr	r3, [pc, #92]	@ (8001230 <MX_I2C1_Init+0x7c>)
 80011d2:	2200      	movs	r2, #0
 80011d4:	611a      	str	r2, [r3, #16]
  hi2c1.Init.OwnAddress2 = 0;
 80011d6:	4b16      	ldr	r3, [pc, #88]	@ (8001230 <MX_I2C1_Init+0x7c>)
 80011d8:	2200      	movs	r2, #0
 80011da:	615a      	str	r2, [r3, #20]
  hi2c1.Init.OwnAddress2Masks = I2C_OA2_NOMASK;
 80011dc:	4b14      	ldr	r3, [pc, #80]	@ (8001230 <MX_I2C1_Init+0x7c>)
 80011de:	2200      	movs	r2, #0
 80011e0:	619a      	str	r2, [r3, #24]
  hi2c1.Init.GeneralCallMode = I2C_GENERALCALL_DISABLE;
 80011e2:	4b13      	ldr	r3, [pc, #76]	@ (8001230 <MX_I2C1_Init+0x7c>)
 80011e4:	2200      	movs	r2, #0
 80011e6:	61da      	str	r2, [r3, #28]
  hi2c1.Init.NoStretchMode = I2C_NOSTRETCH_ENABLE;
 80011e8:	4b11      	ldr	r3, [pc, #68]	@ (8001230 <MX_I2C1_Init+0x7c>)
 80011ea:	2280      	movs	r2, #128	@ 0x80
 80011ec:	0292      	lsls	r2, r2, #10
 80011ee:	621a      	str	r2, [r3, #32]
  if (HAL_I2C_Init(&hi2c1) != HAL_OK)
 80011f0:	4b0f      	ldr	r3, [pc, #60]	@ (8001230 <MX_I2C1_Init+0x7c>)
 80011f2:	0018      	movs	r0, r3
 80011f4:	f001 fa4a 	bl	800268c <HAL_I2C_Init>
 80011f8:	1e03      	subs	r3, r0, #0
 80011fa:	d001      	beq.n	8001200 <MX_I2C1_Init+0x4c>
  {
    Error_Handler();
 80011fc:	f000 f8ee 	bl	80013dc <Error_Handler>
  }

  /** Configure Analogue filter
  */
  if (HAL_I2CEx_ConfigAnalogFilter(&hi2c1, I2C_ANALOGFILTER_DISABLE) != HAL_OK)
 8001200:	2380      	movs	r3, #128	@ 0x80
 8001202:	015a      	lsls	r2, r3, #5
 8001204:	4b0a      	ldr	r3, [pc, #40]	@ (8001230 <MX_I2C1_Init+0x7c>)
 8001206:	0011      	movs	r1, r2
 8001208:	0018      	movs	r0, r3
 800120a:	f001 fead 	bl	8002f68 <HAL_I2CEx_ConfigAnalogFilter>
 800120e:	1e03      	subs	r3, r0, #0
 8001210:	d001      	beq.n	8001216 <MX_I2C1_Init+0x62>
  {
    Error_Handler();
 8001212:	f000 f8e3 	bl	80013dc <Error_Handler>
  }

  /** Configure Digital filter
  */
  if (HAL_I2CEx_ConfigDigitalFilter(&hi2c1, 0) != HAL_OK)
 8001216:	4b06      	ldr	r3, [pc, #24]	@ (8001230 <MX_I2C1_Init+0x7c>)
 8001218:	2100      	movs	r1, #0
 800121a:	0018      	movs	r0, r3
 800121c:	f001 fef0 	bl	8003000 <HAL_I2CEx_ConfigDigitalFilter>
 8001220:	1e03      	subs	r3, r0, #0
 8001222:	d001      	beq.n	8001228 <MX_I2C1_Init+0x74>
  {
    Error_Handler();
 8001224:	f000 f8da 	bl	80013dc <Error_Handler>
  }
  /* USER CODE BEGIN I2C1_Init 2 */

  /* USER CODE END I2C1_Init 2 */

}
 8001228:	46c0      	nop			@ (mov r8, r8)
 800122a:	46bd      	mov	sp, r7
 800122c:	bd80      	pop	{r7, pc}
 800122e:	46c0      	nop			@ (mov r8, r8)
 8001230:	20000114 	.word	0x20000114
 8001234:	40005400 	.word	0x40005400
 8001238:	00601133 	.word	0x00601133

0800123c <MX_TIM14_Init>:
  * @brief TIM14 Initialization Function
  * @param None
  * @retval None
  */
static void MX_TIM14_Init(void)
{
 800123c:	b580      	push	{r7, lr}
 800123e:	af00      	add	r7, sp, #0
  htim14.Instance = TIM14;
 8001240:	4b0e      	ldr	r3, [pc, #56]	@ (800127c <MX_TIM14_Init+0x40>)
 8001242:	4a0f      	ldr	r2, [pc, #60]	@ (8001280 <MX_TIM14_Init+0x44>)
 8001244:	601a      	str	r2, [r3, #0]
  htim14.Init.Prescaler = 32-1;      // Was 100-1
 8001246:	4b0d      	ldr	r3, [pc, #52]	@ (800127c <MX_TIM14_Init+0x40>)
 8001248:	221f      	movs	r2, #31
 800124a:	605a      	str	r2, [r3, #4]
  htim14.Init.CounterMode = TIM_COUNTERMODE_UP;
 800124c:	4b0b      	ldr	r3, [pc, #44]	@ (800127c <MX_TIM14_Init+0x40>)
 800124e:	2200      	movs	r2, #0
 8001250:	609a      	str	r2, [r3, #8]
  htim14.Init.Period = 10000-1;      // 32MHz/32/10000 = 100Hz
 8001252:	4b0a      	ldr	r3, [pc, #40]	@ (800127c <MX_TIM14_Init+0x40>)
 8001254:	4a0b      	ldr	r2, [pc, #44]	@ (8001284 <MX_TIM14_Init+0x48>)
 8001256:	60da      	str	r2, [r3, #12]
  htim14.Init.ClockDivision = TIM_CLOCKDIVISION_DIV1;
 8001258:	4b08      	ldr	r3, [pc, #32]	@ (800127c <MX_TIM14_Init+0x40>)
 800125a:	2200      	movs	r2, #0
 800125c:	611a      	str	r2, [r3, #16]
  htim14.Init.AutoReloadPreload = TIM_AUTORELOAD_PRELOAD_DISABLE;
 800125e:	4b07      	ldr	r3, [pc, #28]	@ (800127c <MX_TIM14_Init+0x40>)
 8001260:	2200      	movs	r2, #0
 8001262:	619a      	str	r2, [r3, #24]
  if (HAL_TIM_Base_Init(&htim14) != HAL_OK)
 8001264:	4b05      	ldr	r3, [pc, #20]	@ (800127c <MX_TIM14_Init+0x40>)
 8001266:	0018      	movs	r0, r3
 8001268:	f002 fd16 	bl	8003c98 <HAL_TIM_Base_Init>
 800126c:	1e03      	subs	r3, r0, #0
 800126e:	d001      	beq.n	8001274 <MX_TIM14_Init+0x38>
  {
    Error_Handler();
 8001270:	f000 f8b4 	bl	80013dc <Error_Handler>
  }
}
 8001274:	46c0      	nop			@ (mov r8, r8)
 8001276:	46bd      	mov	sp, r7
 8001278:	bd80      	pop	{r7, pc}
 800127a:	46c0      	nop			@ (mov r8, r8)
 800127c:	20000168 	.word	0x20000168
 8001280:	40002000 	.word	0x40002000
 8001284:	0000270f 	.word	0x0000270f

08001288 <MX_GPIO_Init>:
  * @brief GPIO Initialization Function
  * @param None
  * @retval None
  */
static void MX_GPIO_Init(void)
{
 8001288:	b590      	push	{r4, r7, lr}
 800128a:	b089      	sub	sp, #36	@ 0x24
 800128c:	af00      	add	r7, sp, #0
  GPIO_InitTypeDef GPIO_InitStruct = {0};
 800128e:	240c      	movs	r4, #12
 8001290:	193b      	adds	r3, r7, r4
 8001292:	0018      	movs	r0, r3
 8001294:	2314      	movs	r3, #20
 8001296:	001a      	movs	r2, r3
 8001298:	2100      	movs	r1, #0
 800129a:	f002 ff7f 	bl	800419c <memset>
  /* USER CODE BEGIN MX_GPIO_Init_1 */
  /* USER CODE END MX_GPIO_Init_1 */

  /* GPIO Ports Clock Enable */
  __HAL_RCC_GPIOB_CLK_ENABLE();
 800129e:	4b4a      	ldr	r3, [pc, #296]	@ (80013c8 <MX_GPIO_Init+0x140>)
 80012a0:	6b5a      	ldr	r2, [r3, #52]	@ 0x34
 80012a2:	4b49      	ldr	r3, [pc, #292]	@ (80013c8 <MX_GPIO_Init+0x140>)
 80012a4:	2102      	movs	r1, #2
 80012a6:	430a      	orrs	r2, r1
 80012a8:	635a      	str	r2, [r3, #52]	@ 0x34
 80012aa:	4b47      	ldr	r3, [pc, #284]	@ (80013c8 <MX_GPIO_Init+0x140>)
 80012ac:	6b5b      	ldr	r3, [r3, #52]	@ 0x34
 80012ae:	2202      	movs	r2, #2
 80012b0:	4013      	ands	r3, r2
 80012b2:	60bb      	str	r3, [r7, #8]
 80012b4:	68bb      	ldr	r3, [r7, #8]
  __HAL_RCC_GPIOC_CLK_ENABLE();
 80012b6:	4b44      	ldr	r3, [pc, #272]	@ (80013c8 <MX_GPIO_Init+0x140>)
 80012b8:	6b5a      	ldr	r2, [r3, #52]	@ 0x34
 80012ba:	4b43      	ldr	r3, [pc, #268]	@ (80013c8 <MX_GPIO_Init+0x140>)
 80012bc:	2104      	movs	r1, #4
 80012be:	430a      	orrs	r2, r1
 80012c0:	635a      	str	r2, [r3, #52]	@ 0x34
 80012c2:	4b41      	ldr	r3, [pc, #260]	@ (80013c8 <MX_GPIO_Init+0x140>)
 80012c4:	6b5b      	ldr	r3, [r3, #52]	@ 0x34
 80012c6:	2204      	movs	r2, #4
 80012c8:	4013      	ands	r3, r2
 80012ca:	607b      	str	r3, [r7, #4]
 80012cc:	687b      	ldr	r3, [r7, #4]
  __HAL_RCC_GPIOA_CLK_ENABLE();
 80012ce:	4b3e      	ldr	r3, [pc, #248]	@ (80013c8 <MX_GPIO_Init+0x140>)
 80012d0:	6b5a      	ldr	r2, [r3, #52]	@ 0x34
 80012d2:	4b3d      	ldr	r3, [pc, #244]	@ (80013c8 <MX_GPIO_Init+0x140>)
 80012d4:	2101      	movs	r1, #1
 80012d6:	430a      	orrs	r2, r1
 80012d8:	635a      	str	r2, [r3, #52]	@ 0x34
 80012da:	4b3b      	ldr	r3, [pc, #236]	@ (80013c8 <MX_GPIO_Init+0x140>)
 80012dc:	6b5b      	ldr	r3, [r3, #52]	@ 0x34
 80012de:	2201      	movs	r2, #1
 80012e0:	4013      	ands	r3, r2
 80012e2:	603b      	str	r3, [r7, #0]
 80012e4:	683b      	ldr	r3, [r7, #0]

  /*Configure GPIO pin Output Level */
  HAL_GPIO_WritePin(OLED_RST_GPIO_Port, OLED_RST_Pin, GPIO_PIN_RESET);
 80012e6:	2380      	movs	r3, #128	@ 0x80
 80012e8:	0219      	lsls	r1, r3, #8
 80012ea:	23a0      	movs	r3, #160	@ 0xa0
 80012ec:	05db      	lsls	r3, r3, #23
 80012ee:	2200      	movs	r2, #0
 80012f0:	0018      	movs	r0, r3
 80012f2:	f001 f9ae 	bl	8002652 <HAL_GPIO_WritePin>

  /*Configure GPIO pins : PC14 PC15 PC6 */
  GPIO_InitStruct.Pin = GPIO_PIN_14|GPIO_PIN_15|GPIO_PIN_6;
 80012f6:	193b      	adds	r3, r7, r4
 80012f8:	4a34      	ldr	r2, [pc, #208]	@ (80013cc <MX_GPIO_Init+0x144>)
 80012fa:	601a      	str	r2, [r3, #0]
  GPIO_InitStruct.Mode = GPIO_MODE_ANALOG;
 80012fc:	193b      	adds	r3, r7, r4
 80012fe:	2203      	movs	r2, #3
 8001300:	605a      	str	r2, [r3, #4]
  GPIO_InitStruct.Pull = GPIO_NOPULL;
 8001302:	193b      	adds	r3, r7, r4
 8001304:	2200      	movs	r2, #0
 8001306:	609a      	str	r2, [r3, #8]
  HAL_GPIO_Init(GPIOC, &GPIO_InitStruct);
 8001308:	193b      	adds	r3, r7, r4
 800130a:	4a31      	ldr	r2, [pc, #196]	@ (80013d0 <MX_GPIO_Init+0x148>)
 800130c:	0019      	movs	r1, r3
 800130e:	0010      	movs	r0, r2
 8001310:	f001 f81e 	bl	8002350 <HAL_GPIO_Init>

  /*Configure GPIO pins : PA0 PA1 PA2 PA3
                           PA4 PA5 PA7 PA8
                           PA10 PA11 PA12 */
  GPIO_InitStruct.Pin = GPIO_PIN_0|GPIO_PIN_1|GPIO_PIN_2|GPIO_PIN_3
 8001314:	193b      	adds	r3, r7, r4
 8001316:	4a2f      	ldr	r2, [pc, #188]	@ (80013d4 <MX_GPIO_Init+0x14c>)
 8001318:	601a      	str	r2, [r3, #0]
                          |GPIO_PIN_4|GPIO_PIN_5|GPIO_PIN_7|GPIO_PIN_8
                          |GPIO_PIN_10|GPIO_PIN_11|GPIO_PIN_12;
  GPIO_InitStruct.Mode = GPIO_MODE_ANALOG;
 800131a:	193b      	adds	r3, r7, r4
 800131c:	2203      	movs	r2, #3
 800131e:	605a      	str	r2, [r3, #4]
  GPIO_InitStruct.Pull = GPIO_NOPULL;
 8001320:	193b      	adds	r3, r7, r4
 8001322:	2200      	movs	r2, #0
 8001324:	609a      	str	r2, [r3, #8]
  HAL_GPIO_Init(GPIOA, &GPIO_InitStruct);
 8001326:	193a      	adds	r2, r7, r4
 8001328:	23a0      	movs	r3, #160	@ 0xa0
 800132a:	05db      	lsls	r3, r3, #23
 800132c:	0011      	movs	r1, r2
 800132e:	0018      	movs	r0, r3
 8001330:	f001 f80e 	bl	8002350 <HAL_GPIO_Init>

  /*Configure GPIO pin : SW_LEFT_Pin */
  GPIO_InitStruct.Pin = SW_LEFT_Pin;
 8001334:	193b      	adds	r3, r7, r4
 8001336:	2240      	movs	r2, #64	@ 0x40
 8001338:	601a      	str	r2, [r3, #0]
  GPIO_InitStruct.Mode = GPIO_MODE_INPUT;
 800133a:	193b      	adds	r3, r7, r4
 800133c:	2200      	movs	r2, #0
 800133e:	605a      	str	r2, [r3, #4]
  GPIO_InitStruct.Pull = GPIO_NOPULL;
 8001340:	193b      	adds	r3, r7, r4
 8001342:	2200      	movs	r2, #0
 8001344:	609a      	str	r2, [r3, #8]
  HAL_GPIO_Init(SW_LEFT_GPIO_Port, &GPIO_InitStruct);
 8001346:	193a      	adds	r2, r7, r4
 8001348:	23a0      	movs	r3, #160	@ 0xa0
 800134a:	05db      	lsls	r3, r3, #23
 800134c:	0011      	movs	r1, r2
 800134e:	0018      	movs	r0, r3
 8001350:	f000 fffe 	bl	8002350 <HAL_GPIO_Init>

  /*Configure GPIO pin : SW_RIGHT_Pin */
  GPIO_InitStruct.Pin = SW_RIGHT_Pin;
 8001354:	193b      	adds	r3, r7, r4
 8001356:	2201      	movs	r2, #1
 8001358:	601a      	str	r2, [r3, #0]
  GPIO_InitStruct.Mode = GPIO_MODE_INPUT;
 800135a:	193b      	adds	r3, r7, r4
 800135c:	2200      	movs	r2, #0
 800135e:	605a      	str	r2, [r3, #4]
  GPIO_InitStruct.Pull = GPIO_NOPULL;
 8001360:	193b      	adds	r3, r7, r4
 8001362:	2200      	movs	r2, #0
 8001364:	609a      	str	r2, [r3, #8]
  HAL_GPIO_Init(SW_RIGHT_GPIO_Port, &GPIO_InitStruct);
 8001366:	193b      	adds	r3, r7, r4
 8001368:	4a1b      	ldr	r2, [pc, #108]	@ (80013d8 <MX_GPIO_Init+0x150>)
 800136a:	0019      	movs	r1, r3
 800136c:	0010      	movs	r0, r2
 800136e:	f000 ffef 	bl	8002350 <HAL_GPIO_Init>

  /*Configure GPIO pins : PB1 PB2 PB3 PB4
                           PB5 PB6 PB7 PB8 */
  GPIO_InitStruct.Pin = GPIO_PIN_1|GPIO_PIN_2|GPIO_PIN_3|GPIO_PIN_4
 8001372:	0021      	movs	r1, r4
 8001374:	187b      	adds	r3, r7, r1
 8001376:	22ff      	movs	r2, #255	@ 0xff
 8001378:	0052      	lsls	r2, r2, #1
 800137a:	601a      	str	r2, [r3, #0]
                          |GPIO_PIN_5|GPIO_PIN_6|GPIO_PIN_7|GPIO_PIN_8;
  GPIO_InitStruct.Mode = GPIO_MODE_ANALOG;
 800137c:	000c      	movs	r4, r1
 800137e:	193b      	adds	r3, r7, r4
 8001380:	2203      	movs	r2, #3
 8001382:	605a      	str	r2, [r3, #4]
  GPIO_InitStruct.Pull = GPIO_NOPULL;
 8001384:	193b      	adds	r3, r7, r4
 8001386:	2200      	movs	r2, #0
 8001388:	609a      	str	r2, [r3, #8]
  HAL_GPIO_Init(GPIOB, &GPIO_InitStruct);
 800138a:	193b      	adds	r3, r7, r4
 800138c:	4a12      	ldr	r2, [pc, #72]	@ (80013d8 <MX_GPIO_Init+0x150>)
 800138e:	0019      	movs	r1, r3
 8001390:	0010      	movs	r0, r2
 8001392:	f000 ffdd 	bl	8002350 <HAL_GPIO_Init>

  /*Configure GPIO pin : OLED_RST_Pin */
  GPIO_InitStruct.Pin = OLED_RST_Pin;
 8001396:	0021      	movs	r1, r4
 8001398:	187b      	adds	r3, r7, r1
 800139a:	2280      	movs	r2, #128	@ 0x80
 800139c:	0212      	lsls	r2, r2, #8
 800139e:	601a      	str	r2, [r3, #0]
  GPIO_InitStruct.Mode = GPIO_MODE_OUTPUT_PP;
 80013a0:	187b      	adds	r3, r7, r1
 80013a2:	2201      	movs	r2, #1
 80013a4:	605a      	str	r2, [r3, #4]
  GPIO_InitStruct.Pull = GPIO_NOPULL;
 80013a6:	187b      	adds	r3, r7, r1
 80013a8:	2200      	movs	r2, #0
 80013aa:	609a      	str	r2, [r3, #8]
  GPIO_InitStruct.Speed = GPIO_SPEED_FREQ_LOW;
 80013ac:	187b      	adds	r3, r7, r1
 80013ae:	2200      	movs	r2, #0
 80013b0:	60da      	str	r2, [r3, #12]
  HAL_GPIO_Init(OLED_RST_GPIO_Port, &GPIO_InitStruct);
 80013b2:	187a      	adds	r2, r7, r1
 80013b4:	23a0      	movs	r3, #160	@ 0xa0
 80013b6:	05db      	lsls	r3, r3, #23
 80013b8:	0011      	movs	r1, r2
 80013ba:	0018      	movs	r0, r3
 80013bc:	f000 ffc8 	bl	8002350 <HAL_GPIO_Init>

  /* USER CODE BEGIN MX_GPIO_Init_2 */
  /* USER CODE END MX_GPIO_Init_2 */
}
 80013c0:	46c0      	nop			@ (mov r8, r8)
 80013c2:	46bd      	mov	sp, r7
 80013c4:	b009      	add	sp, #36	@ 0x24
 80013c6:	bd90      	pop	{r4, r7, pc}
 80013c8:	40021000 	.word	0x40021000
 80013cc:	0000c040 	.word	0x0000c040
 80013d0:	50000800 	.word	0x50000800
 80013d4:	00001dbf 	.word	0x00001dbf
 80013d8:	50000400 	.word	0x50000400

080013dc <Error_Handler>:
/**
  * @brief  This function is executed in case of error occurrence.
  * @retval None
  */
void Error_Handler(void)
{
 80013dc:	b580      	push	{r7, lr}
 80013de:	af00      	add	r7, sp, #0
  \details Disables IRQ interrupts by setting the I-bit in the CPSR.
           Can only be executed in Privileged modes.
 */
__STATIC_FORCEINLINE void __disable_irq(void)
{
  __ASM volatile ("cpsid i" : : : "memory");
 80013e0:	b672      	cpsid	i
}
 80013e2:	46c0      	nop			@ (mov r8, r8)
  /* USER CODE BEGIN Error_Handler_Debug */
  /* User can add his own implementation to report the HAL error return state */
  __disable_irq();
  while (1)
 80013e4:	46c0      	nop			@ (mov r8, r8)
 80013e6:	e7fd      	b.n	80013e4 <Error_Handler+0x8>

080013e8 <ssd1306_Reset>:
#include <stdlib.h>
#include <string.h>  // For memcpy

#if defined(SSD1306_USE_I2C)

void ssd1306_Reset(void) {
 80013e8:	b580      	push	{r7, lr}
 80013ea:	af00      	add	r7, sp, #0
    /* for I2C - do nothing */
}
 80013ec:	46c0      	nop			@ (mov r8, r8)
 80013ee:	46bd      	mov	sp, r7
 80013f0:	bd80      	pop	{r7, pc}
	...

080013f4 <ssd1306_WriteCommand>:

// Send a byte to the command register
void ssd1306_WriteCommand(uint8_t byte) {
 80013f4:	b580      	push	{r7, lr}
 80013f6:	b086      	sub	sp, #24
 80013f8:	af04      	add	r7, sp, #16
 80013fa:	0002      	movs	r2, r0
 80013fc:	1dfb      	adds	r3, r7, #7
 80013fe:	701a      	strb	r2, [r3, #0]
    HAL_I2C_Mem_Write(&SSD1306_I2C_PORT, SSD1306_I2C_ADDR, 0x00, 1, &byte, 1, HAL_MAX_DELAY);
 8001400:	4808      	ldr	r0, [pc, #32]	@ (8001424 <ssd1306_WriteCommand+0x30>)
 8001402:	2301      	movs	r3, #1
 8001404:	425b      	negs	r3, r3
 8001406:	9302      	str	r3, [sp, #8]
 8001408:	2301      	movs	r3, #1
 800140a:	9301      	str	r3, [sp, #4]
 800140c:	1dfb      	adds	r3, r7, #7
 800140e:	9300      	str	r3, [sp, #0]
 8001410:	2301      	movs	r3, #1
 8001412:	2200      	movs	r2, #0
 8001414:	2178      	movs	r1, #120	@ 0x78
 8001416:	f001 f9df 	bl	80027d8 <HAL_I2C_Mem_Write>
}
 800141a:	46c0      	nop			@ (mov r8, r8)
 800141c:	46bd      	mov	sp, r7
 800141e:	b002      	add	sp, #8
 8001420:	bd80      	pop	{r7, pc}
 8001422:	46c0      	nop			@ (mov r8, r8)
 8001424:	20000114 	.word	0x20000114

08001428 <ssd1306_WriteData>:

// Send data
void ssd1306_WriteData(uint8_t* buffer, size_t buff_size) {
 8001428:	b580      	push	{r7, lr}
 800142a:	b086      	sub	sp, #24
 800142c:	af04      	add	r7, sp, #16
 800142e:	6078      	str	r0, [r7, #4]
 8001430:	6039      	str	r1, [r7, #0]
    HAL_I2C_Mem_Write(&SSD1306_I2C_PORT, SSD1306_I2C_ADDR, 0x40, 1, buffer, buff_size, HAL_MAX_DELAY);
 8001432:	683b      	ldr	r3, [r7, #0]
 8001434:	b29b      	uxth	r3, r3
 8001436:	4808      	ldr	r0, [pc, #32]	@ (8001458 <ssd1306_WriteData+0x30>)
 8001438:	2201      	movs	r2, #1
 800143a:	4252      	negs	r2, r2
 800143c:	9202      	str	r2, [sp, #8]
 800143e:	9301      	str	r3, [sp, #4]
 8001440:	687b      	ldr	r3, [r7, #4]
 8001442:	9300      	str	r3, [sp, #0]
 8001444:	2301      	movs	r3, #1
 8001446:	2240      	movs	r2, #64	@ 0x40
 8001448:	2178      	movs	r1, #120	@ 0x78
 800144a:	f001 f9c5 	bl	80027d8 <HAL_I2C_Mem_Write>
}
 800144e:	46c0      	nop			@ (mov r8, r8)
 8001450:	46bd      	mov	sp, r7
 8001452:	b002      	add	sp, #8
 8001454:	bd80      	pop	{r7, pc}
 8001456:	46c0      	nop			@ (mov r8, r8)
 8001458:	20000114 	.word	0x20000114

0800145c <ssd1306_Init>:
    }
    return ret;
}

/* Initialize the oled screen */
void ssd1306_Init(void) {
 800145c:	b580      	push	{r7, lr}
 800145e:	af00      	add	r7, sp, #0
    // Reset OLED
    ssd1306_Reset();
 8001460:	f7ff ffc2 	bl	80013e8 <ssd1306_Reset>

    // Wait for the screen to boot
    HAL_Delay(100);
 8001464:	2064      	movs	r0, #100	@ 0x64
 8001466:	f000 fccb 	bl	8001e00 <HAL_Delay>

    // Init OLED
    ssd1306_SetDisplayOn(0); //display off
 800146a:	2000      	movs	r0, #0
 800146c:	f000 faaa 	bl	80019c4 <ssd1306_SetDisplayOn>

    ssd1306_WriteCommand(0x20); //Set Memory Addressing Mode
 8001470:	2020      	movs	r0, #32
 8001472:	f7ff ffbf 	bl	80013f4 <ssd1306_WriteCommand>
    ssd1306_WriteCommand(0x00); // 00b,Horizontal Addressing Mode; 01b,Vertical Addressing Mode;
 8001476:	2000      	movs	r0, #0
 8001478:	f7ff ffbc 	bl	80013f4 <ssd1306_WriteCommand>
                                // 10b,Page Addressing Mode (RESET); 11b,Invalid

    ssd1306_WriteCommand(0xB0); //Set Page Start Address for Page Addressing Mode,0-7
 800147c:	20b0      	movs	r0, #176	@ 0xb0
 800147e:	f7ff ffb9 	bl	80013f4 <ssd1306_WriteCommand>

#ifdef SSD1306_MIRROR_VERT
    ssd1306_WriteCommand(0xC0); // Mirror vertically
 8001482:	20c0      	movs	r0, #192	@ 0xc0
 8001484:	f7ff ffb6 	bl	80013f4 <ssd1306_WriteCommand>
#else
    ssd1306_WriteCommand(0xC8); //Set COM Output Scan Direction
#endif

    ssd1306_WriteCommand(0x00); //---set low column address
 8001488:	2000      	movs	r0, #0
 800148a:	f7ff ffb3 	bl	80013f4 <ssd1306_WriteCommand>
    ssd1306_WriteCommand(0x10); //---set high column address
 800148e:	2010      	movs	r0, #16
 8001490:	f7ff ffb0 	bl	80013f4 <ssd1306_WriteCommand>

    ssd1306_WriteCommand(0x40); //--set start line address - CHECK
 8001494:	2040      	movs	r0, #64	@ 0x40
 8001496:	f7ff ffad 	bl	80013f4 <ssd1306_WriteCommand>

    ssd1306_SetContrast(0xFF);//FF
 800149a:	20ff      	movs	r0, #255	@ 0xff
 800149c:	f000 fa79 	bl	8001992 <ssd1306_SetContrast>

#ifdef SSD1306_MIRROR_HORIZ
    ssd1306_WriteCommand(0xA0); // Mirror horizontally
 80014a0:	20a0      	movs	r0, #160	@ 0xa0
 80014a2:	f7ff ffa7 	bl	80013f4 <ssd1306_WriteCommand>
#endif

#ifdef SSD1306_INVERSE_COLOR
    ssd1306_WriteCommand(0xA7); //--set inverse color
#else
    ssd1306_WriteCommand(0xA6); //--set normal color
 80014a6:	20a6      	movs	r0, #166	@ 0xa6
 80014a8:	f7ff ffa4 	bl	80013f4 <ssd1306_WriteCommand>
// Set multiplex ratio.
#if (SSD1306_HEIGHT == 128)
    // Found in the Luma Python lib for SH1106.
    ssd1306_WriteCommand(0xFF);
#else
    ssd1306_WriteCommand(0xA8); //--set multiplex ratio(1 to 64) - CHECK
 80014ac:	20a8      	movs	r0, #168	@ 0xa8
 80014ae:	f7ff ffa1 	bl	80013f4 <ssd1306_WriteCommand>
#endif

#if (SSD1306_HEIGHT == 32)
    ssd1306_WriteCommand(0x1F); //
#elif (SSD1306_HEIGHT == 64)
    ssd1306_WriteCommand(0x3F); //
 80014b2:	203f      	movs	r0, #63	@ 0x3f
 80014b4:	f7ff ff9e 	bl	80013f4 <ssd1306_WriteCommand>
    ssd1306_WriteCommand(0x3F); // Seems to work for 128px high displays too.
#else
#error "Only 32, 64, or 128 lines of height are supported!"
#endif

    ssd1306_WriteCommand(0xA4); //0xa4,Output follows RAM content;0xa5,Output ignores RAM content
 80014b8:	20a4      	movs	r0, #164	@ 0xa4
 80014ba:	f7ff ff9b 	bl	80013f4 <ssd1306_WriteCommand>

    ssd1306_WriteCommand(0xD3); //-set display offset - CHECK
 80014be:	20d3      	movs	r0, #211	@ 0xd3
 80014c0:	f7ff ff98 	bl	80013f4 <ssd1306_WriteCommand>
    ssd1306_WriteCommand(0x00); //-not offset
 80014c4:	2000      	movs	r0, #0
 80014c6:	f7ff ff95 	bl	80013f4 <ssd1306_WriteCommand>

    ssd1306_WriteCommand(0xD5); //--set display clock divide ratio/oscillator frequency
 80014ca:	20d5      	movs	r0, #213	@ 0xd5
 80014cc:	f7ff ff92 	bl	80013f4 <ssd1306_WriteCommand>
    ssd1306_WriteCommand(0xF0); //--set divide ratio
 80014d0:	20f0      	movs	r0, #240	@ 0xf0
 80014d2:	f7ff ff8f 	bl	80013f4 <ssd1306_WriteCommand>

    ssd1306_WriteCommand(0xD9); //--set pre-charge period
 80014d6:	20d9      	movs	r0, #217	@ 0xd9
 80014d8:	f7ff ff8c 	bl	80013f4 <ssd1306_WriteCommand>
    ssd1306_WriteCommand(0x22); //
 80014dc:	2022      	movs	r0, #34	@ 0x22
 80014de:	f7ff ff89 	bl	80013f4 <ssd1306_WriteCommand>

    ssd1306_WriteCommand(0xDA); //--set com pins hardware configuration - CHECK
 80014e2:	20da      	movs	r0, #218	@ 0xda
 80014e4:	f7ff ff86 	bl	80013f4 <ssd1306_WriteCommand>
#if (SSD1306_HEIGHT == 32)
    ssd1306_WriteCommand(0x02);
#elif (SSD1306_HEIGHT == 64)
    ssd1306_WriteCommand(0x12);
 80014e8:	2012      	movs	r0, #18
 80014ea:	f7ff ff83 	bl	80013f4 <ssd1306_WriteCommand>
    ssd1306_WriteCommand(0x12);
#else
#error "Only 32, 64, or 128 lines of height are supported!"
#endif

    ssd1306_WriteCommand(0xDB); //--set vcomh
 80014ee:	20db      	movs	r0, #219	@ 0xdb
 80014f0:	f7ff ff80 	bl	80013f4 <ssd1306_WriteCommand>
    ssd1306_WriteCommand(0x20); //0x20,0.77xVcc
 80014f4:	2020      	movs	r0, #32
 80014f6:	f7ff ff7d 	bl	80013f4 <ssd1306_WriteCommand>

    ssd1306_WriteCommand(0x8D); //--set DC-DC enable
 80014fa:	208d      	movs	r0, #141	@ 0x8d
 80014fc:	f7ff ff7a 	bl	80013f4 <ssd1306_WriteCommand>
    ssd1306_WriteCommand(0x14); //
 8001500:	2014      	movs	r0, #20
 8001502:	f7ff ff77 	bl	80013f4 <ssd1306_WriteCommand>
    ssd1306_SetDisplayOn(1); //--turn on SSD1306 panel
 8001506:	2001      	movs	r0, #1
 8001508:	f000 fa5c 	bl	80019c4 <ssd1306_SetDisplayOn>

    // Clear screen
    ssd1306_Fill(Black);
 800150c:	2000      	movs	r0, #0
 800150e:	f000 f811 	bl	8001534 <ssd1306_Fill>
    
    // Flush buffer to screen
    ssd1306_UpdateScreen();
 8001512:	f000 f829 	bl	8001568 <ssd1306_UpdateScreen>
    
    // Set default values for screen object
    SSD1306.CurrentX = 0;
 8001516:	4b06      	ldr	r3, [pc, #24]	@ (8001530 <ssd1306_Init+0xd4>)
 8001518:	2200      	movs	r2, #0
 800151a:	801a      	strh	r2, [r3, #0]
    SSD1306.CurrentY = 0;
 800151c:	4b04      	ldr	r3, [pc, #16]	@ (8001530 <ssd1306_Init+0xd4>)
 800151e:	2200      	movs	r2, #0
 8001520:	805a      	strh	r2, [r3, #2]
    
    SSD1306.Initialized = 1;
 8001522:	4b03      	ldr	r3, [pc, #12]	@ (8001530 <ssd1306_Init+0xd4>)
 8001524:	2201      	movs	r2, #1
 8001526:	711a      	strb	r2, [r3, #4]
}
 8001528:	46c0      	nop			@ (mov r8, r8)
 800152a:	46bd      	mov	sp, r7
 800152c:	bd80      	pop	{r7, pc}
 800152e:	46c0      	nop			@ (mov r8, r8)
 8001530:	20000600 	.word	0x20000600

08001534 <ssd1306_Fill>:

/* Fill the whole screen with the given color */
void ssd1306_Fill(SSD1306_COLOR color) {
 8001534:	b580      	push	{r7, lr}
 8001536:	b082      	sub	sp, #8
 8001538:	af00      	add	r7, sp, #0
 800153a:	0002      	movs	r2, r0
 800153c:	1dfb      	adds	r3, r7, #7
 800153e:	701a      	strb	r2, [r3, #0]
    memset(SSD1306_Buffer, (color == Black) ? 0x00 : 0xFF, sizeof(SSD1306_Buffer));
 8001540:	1dfb      	adds	r3, r7, #7
 8001542:	781b      	ldrb	r3, [r3, #0]
 8001544:	2b00      	cmp	r3, #0
 8001546:	d101      	bne.n	800154c <ssd1306_Fill+0x18>
 8001548:	2300      	movs	r3, #0
 800154a:	e000      	b.n	800154e <ssd1306_Fill+0x1a>
 800154c:	23ff      	movs	r3, #255	@ 0xff
 800154e:	2282      	movs	r2, #130	@ 0x82
 8001550:	00d2      	lsls	r2, r2, #3
 8001552:	4804      	ldr	r0, [pc, #16]	@ (8001564 <ssd1306_Fill+0x30>)
 8001554:	0019      	movs	r1, r3
 8001556:	f002 fe21 	bl	800419c <memset>
}
 800155a:	46c0      	nop			@ (mov r8, r8)
 800155c:	46bd      	mov	sp, r7
 800155e:	b002      	add	sp, #8
 8001560:	bd80      	pop	{r7, pc}
 8001562:	46c0      	nop			@ (mov r8, r8)
 8001564:	200001f0 	.word	0x200001f0

08001568 <ssd1306_UpdateScreen>:

/* Write the screenbuffer with changed to the screen */
void ssd1306_UpdateScreen(void) {
 8001568:	b580      	push	{r7, lr}
 800156a:	b082      	sub	sp, #8
 800156c:	af00      	add	r7, sp, #0
    // depends on the screen height:
    //
    //  * 32px   ==  4 pages
    //  * 64px   ==  8 pages
    //  * 128px  ==  16 pages
    for(uint8_t i = 0; i < SSD1306_HEIGHT/8; i++) {
 800156e:	1dfb      	adds	r3, r7, #7
 8001570:	2200      	movs	r2, #0
 8001572:	701a      	strb	r2, [r3, #0]
 8001574:	e01e      	b.n	80015b4 <ssd1306_UpdateScreen+0x4c>
        ssd1306_WriteCommand(0xB0 + i); // Set the current RAM page address.
 8001576:	1dfb      	adds	r3, r7, #7
 8001578:	781b      	ldrb	r3, [r3, #0]
 800157a:	3b50      	subs	r3, #80	@ 0x50
 800157c:	b2db      	uxtb	r3, r3
 800157e:	0018      	movs	r0, r3
 8001580:	f7ff ff38 	bl	80013f4 <ssd1306_WriteCommand>
        ssd1306_WriteCommand(0x00 + SSD1306_X_OFFSET_LOWER);
 8001584:	2000      	movs	r0, #0
 8001586:	f7ff ff35 	bl	80013f4 <ssd1306_WriteCommand>
        ssd1306_WriteCommand(0x10 + SSD1306_X_OFFSET_UPPER);
 800158a:	2010      	movs	r0, #16
 800158c:	f7ff ff32 	bl	80013f4 <ssd1306_WriteCommand>
        ssd1306_WriteData(&SSD1306_Buffer[SSD1306_WIDTH*i],SSD1306_WIDTH);
 8001590:	1dfb      	adds	r3, r7, #7
 8001592:	781a      	ldrb	r2, [r3, #0]
 8001594:	0013      	movs	r3, r2
 8001596:	019b      	lsls	r3, r3, #6
 8001598:	189b      	adds	r3, r3, r2
 800159a:	005b      	lsls	r3, r3, #1
 800159c:	001a      	movs	r2, r3
 800159e:	4b0a      	ldr	r3, [pc, #40]	@ (80015c8 <ssd1306_UpdateScreen+0x60>)
 80015a0:	18d3      	adds	r3, r2, r3
 80015a2:	2182      	movs	r1, #130	@ 0x82
 80015a4:	0018      	movs	r0, r3
 80015a6:	f7ff ff3f 	bl	8001428 <ssd1306_WriteData>
    for(uint8_t i = 0; i < SSD1306_HEIGHT/8; i++) {
 80015aa:	1dfb      	adds	r3, r7, #7
 80015ac:	781a      	ldrb	r2, [r3, #0]
 80015ae:	1dfb      	adds	r3, r7, #7
 80015b0:	3201      	adds	r2, #1
 80015b2:	701a      	strb	r2, [r3, #0]
 80015b4:	1dfb      	adds	r3, r7, #7
 80015b6:	781b      	ldrb	r3, [r3, #0]
 80015b8:	2b07      	cmp	r3, #7
 80015ba:	d9dc      	bls.n	8001576 <ssd1306_UpdateScreen+0xe>
    }
}
 80015bc:	46c0      	nop			@ (mov r8, r8)
 80015be:	46c0      	nop			@ (mov r8, r8)
 80015c0:	46bd      	mov	sp, r7
 80015c2:	b002      	add	sp, #8
 80015c4:	bd80      	pop	{r7, pc}
 80015c6:	46c0      	nop			@ (mov r8, r8)
 80015c8:	200001f0 	.word	0x200001f0

080015cc <ssd1306_DrawPixel>:
 * Draw one pixel in the screenbuffer
 * X => X Coordinate
 * Y => Y Coordinate
 * color => Pixel color
 */
void ssd1306_DrawPixel(uint8_t x, uint8_t y, SSD1306_COLOR color) {
 80015cc:	b590      	push	{r4, r7, lr}
 80015ce:	b083      	sub	sp, #12
 80015d0:	af00      	add	r7, sp, #0
 80015d2:	0004      	movs	r4, r0
 80015d4:	0008      	movs	r0, r1
 80015d6:	0011      	movs	r1, r2
 80015d8:	1dfb      	adds	r3, r7, #7
 80015da:	1c22      	adds	r2, r4, #0
 80015dc:	701a      	strb	r2, [r3, #0]
 80015de:	1dbb      	adds	r3, r7, #6
 80015e0:	1c02      	adds	r2, r0, #0
 80015e2:	701a      	strb	r2, [r3, #0]
 80015e4:	1d7b      	adds	r3, r7, #5
 80015e6:	1c0a      	adds	r2, r1, #0
 80015e8:	701a      	strb	r2, [r3, #0]
    if(x >= SSD1306_WIDTH || y >= SSD1306_HEIGHT) {
 80015ea:	1dfb      	adds	r3, r7, #7
 80015ec:	781b      	ldrb	r3, [r3, #0]
 80015ee:	2b81      	cmp	r3, #129	@ 0x81
 80015f0:	d853      	bhi.n	800169a <ssd1306_DrawPixel+0xce>
 80015f2:	1dbb      	adds	r3, r7, #6
 80015f4:	781b      	ldrb	r3, [r3, #0]
 80015f6:	2b3f      	cmp	r3, #63	@ 0x3f
 80015f8:	d84f      	bhi.n	800169a <ssd1306_DrawPixel+0xce>
        // Don't write outside the buffer
        return;
    }
   
    // Draw in the right color
    if(color == White) {
 80015fa:	1d7b      	adds	r3, r7, #5
 80015fc:	781b      	ldrb	r3, [r3, #0]
 80015fe:	2b01      	cmp	r3, #1
 8001600:	d124      	bne.n	800164c <ssd1306_DrawPixel+0x80>
        SSD1306_Buffer[x + (y / 8) * SSD1306_WIDTH] |= 1 << (y % 8);
 8001602:	1dfb      	adds	r3, r7, #7
 8001604:	781a      	ldrb	r2, [r3, #0]
 8001606:	1dbb      	adds	r3, r7, #6
 8001608:	781b      	ldrb	r3, [r3, #0]
 800160a:	08db      	lsrs	r3, r3, #3
 800160c:	b2d8      	uxtb	r0, r3
 800160e:	0001      	movs	r1, r0
 8001610:	000b      	movs	r3, r1
 8001612:	019b      	lsls	r3, r3, #6
 8001614:	185b      	adds	r3, r3, r1
 8001616:	005b      	lsls	r3, r3, #1
 8001618:	18d3      	adds	r3, r2, r3
 800161a:	4a22      	ldr	r2, [pc, #136]	@ (80016a4 <ssd1306_DrawPixel+0xd8>)
 800161c:	5cd3      	ldrb	r3, [r2, r3]
 800161e:	b25a      	sxtb	r2, r3
 8001620:	1dbb      	adds	r3, r7, #6
 8001622:	781b      	ldrb	r3, [r3, #0]
 8001624:	2107      	movs	r1, #7
 8001626:	400b      	ands	r3, r1
 8001628:	2101      	movs	r1, #1
 800162a:	4099      	lsls	r1, r3
 800162c:	000b      	movs	r3, r1
 800162e:	b25b      	sxtb	r3, r3
 8001630:	4313      	orrs	r3, r2
 8001632:	b25c      	sxtb	r4, r3
 8001634:	1dfb      	adds	r3, r7, #7
 8001636:	781a      	ldrb	r2, [r3, #0]
 8001638:	0001      	movs	r1, r0
 800163a:	000b      	movs	r3, r1
 800163c:	019b      	lsls	r3, r3, #6
 800163e:	185b      	adds	r3, r3, r1
 8001640:	005b      	lsls	r3, r3, #1
 8001642:	18d3      	adds	r3, r2, r3
 8001644:	b2e1      	uxtb	r1, r4
 8001646:	4a17      	ldr	r2, [pc, #92]	@ (80016a4 <ssd1306_DrawPixel+0xd8>)
 8001648:	54d1      	strb	r1, [r2, r3]
 800164a:	e027      	b.n	800169c <ssd1306_DrawPixel+0xd0>
    } else { 
        SSD1306_Buffer[x + (y / 8) * SSD1306_WIDTH] &= ~(1 << (y % 8));
 800164c:	1dfb      	adds	r3, r7, #7
 800164e:	781a      	ldrb	r2, [r3, #0]
 8001650:	1dbb      	adds	r3, r7, #6
 8001652:	781b      	ldrb	r3, [r3, #0]
 8001654:	08db      	lsrs	r3, r3, #3
 8001656:	b2d8      	uxtb	r0, r3
 8001658:	0001      	movs	r1, r0
 800165a:	000b      	movs	r3, r1
 800165c:	019b      	lsls	r3, r3, #6
 800165e:	185b      	adds	r3, r3, r1
 8001660:	005b      	lsls	r3, r3, #1
 8001662:	18d3      	adds	r3, r2, r3
 8001664:	4a0f      	ldr	r2, [pc, #60]	@ (80016a4 <ssd1306_DrawPixel+0xd8>)
 8001666:	5cd3      	ldrb	r3, [r2, r3]
 8001668:	b25b      	sxtb	r3, r3
 800166a:	1dba      	adds	r2, r7, #6
 800166c:	7812      	ldrb	r2, [r2, #0]
 800166e:	2107      	movs	r1, #7
 8001670:	400a      	ands	r2, r1
 8001672:	2101      	movs	r1, #1
 8001674:	4091      	lsls	r1, r2
 8001676:	000a      	movs	r2, r1
 8001678:	b252      	sxtb	r2, r2
 800167a:	43d2      	mvns	r2, r2
 800167c:	b252      	sxtb	r2, r2
 800167e:	4013      	ands	r3, r2
 8001680:	b25c      	sxtb	r4, r3
 8001682:	1dfb      	adds	r3, r7, #7
 8001684:	781a      	ldrb	r2, [r3, #0]
 8001686:	0001      	movs	r1, r0
 8001688:	000b      	movs	r3, r1
 800168a:	019b      	lsls	r3, r3, #6
 800168c:	185b      	adds	r3, r3, r1
 800168e:	005b      	lsls	r3, r3, #1
 8001690:	18d3      	adds	r3, r2, r3
 8001692:	b2e1      	uxtb	r1, r4
 8001694:	4a03      	ldr	r2, [pc, #12]	@ (80016a4 <ssd1306_DrawPixel+0xd8>)
 8001696:	54d1      	strb	r1, [r2, r3]
 8001698:	e000      	b.n	800169c <ssd1306_DrawPixel+0xd0>
        return;
 800169a:	46c0      	nop			@ (mov r8, r8)
    }
}
 800169c:	46bd      	mov	sp, r7
 800169e:	b003      	add	sp, #12
 80016a0:	bd90      	pop	{r4, r7, pc}
 80016a2:	46c0      	nop			@ (mov r8, r8)
 80016a4:	200001f0 	.word	0x200001f0

080016a8 <ssd1306_WriteChar>:
 * Draw 1 char to the screen buffer
 * ch       => char om weg te schrijven
 * Font     => Font waarmee we gaan schrijven
 * color    => Black or White
 */
char ssd1306_WriteChar(char ch, SSD1306_Font_t Font, SSD1306_COLOR color) {
 80016a8:	b590      	push	{r4, r7, lr}
 80016aa:	b089      	sub	sp, #36	@ 0x24
 80016ac:	af00      	add	r7, sp, #0
 80016ae:	0004      	movs	r4, r0
 80016b0:	0038      	movs	r0, r7
 80016b2:	6001      	str	r1, [r0, #0]
 80016b4:	6042      	str	r2, [r0, #4]
 80016b6:	6083      	str	r3, [r0, #8]
 80016b8:	210f      	movs	r1, #15
 80016ba:	187b      	adds	r3, r7, r1
 80016bc:	1c22      	adds	r2, r4, #0
 80016be:	701a      	strb	r2, [r3, #0]
    uint32_t i, b, j;
    
    // Check if character is valid
    if (ch < 32 || ch > 126)
 80016c0:	000a      	movs	r2, r1
 80016c2:	18bb      	adds	r3, r7, r2
 80016c4:	781b      	ldrb	r3, [r3, #0]
 80016c6:	2b1f      	cmp	r3, #31
 80016c8:	d903      	bls.n	80016d2 <ssd1306_WriteChar+0x2a>
 80016ca:	18bb      	adds	r3, r7, r2
 80016cc:	781b      	ldrb	r3, [r3, #0]
 80016ce:	2b7e      	cmp	r3, #126	@ 0x7e
 80016d0:	d901      	bls.n	80016d6 <ssd1306_WriteChar+0x2e>
        return 0;
 80016d2:	2300      	movs	r3, #0
 80016d4:	e084      	b.n	80017e0 <ssd1306_WriteChar+0x138>
    
    // Check remaining space on current line
    if (SSD1306_WIDTH < (SSD1306.CurrentX + Font.width) ||
 80016d6:	4b44      	ldr	r3, [pc, #272]	@ (80017e8 <ssd1306_WriteChar+0x140>)
 80016d8:	881b      	ldrh	r3, [r3, #0]
 80016da:	001a      	movs	r2, r3
 80016dc:	003b      	movs	r3, r7
 80016de:	781b      	ldrb	r3, [r3, #0]
 80016e0:	18d3      	adds	r3, r2, r3
 80016e2:	2b82      	cmp	r3, #130	@ 0x82
 80016e4:	dc07      	bgt.n	80016f6 <ssd1306_WriteChar+0x4e>
        SSD1306_HEIGHT < (SSD1306.CurrentY + Font.height))
 80016e6:	4b40      	ldr	r3, [pc, #256]	@ (80017e8 <ssd1306_WriteChar+0x140>)
 80016e8:	885b      	ldrh	r3, [r3, #2]
 80016ea:	001a      	movs	r2, r3
 80016ec:	003b      	movs	r3, r7
 80016ee:	785b      	ldrb	r3, [r3, #1]
 80016f0:	18d3      	adds	r3, r2, r3
    if (SSD1306_WIDTH < (SSD1306.CurrentX + Font.width) ||
 80016f2:	2b40      	cmp	r3, #64	@ 0x40
 80016f4:	dd01      	ble.n	80016fa <ssd1306_WriteChar+0x52>
    {
        // Not enough space on current line
        return 0;
 80016f6:	2300      	movs	r3, #0
 80016f8:	e072      	b.n	80017e0 <ssd1306_WriteChar+0x138>
    }
    
    // Use the font to write
    for(i = 0; i < Font.height; i++) {
 80016fa:	2300      	movs	r3, #0
 80016fc:	61fb      	str	r3, [r7, #28]
 80016fe:	e051      	b.n	80017a4 <ssd1306_WriteChar+0xfc>
        b = Font.data[(ch - 32) * Font.height + i];
 8001700:	003b      	movs	r3, r7
 8001702:	685a      	ldr	r2, [r3, #4]
 8001704:	230f      	movs	r3, #15
 8001706:	18fb      	adds	r3, r7, r3
 8001708:	781b      	ldrb	r3, [r3, #0]
 800170a:	3b20      	subs	r3, #32
 800170c:	0039      	movs	r1, r7
 800170e:	7849      	ldrb	r1, [r1, #1]
 8001710:	434b      	muls	r3, r1
 8001712:	0019      	movs	r1, r3
 8001714:	69fb      	ldr	r3, [r7, #28]
 8001716:	18cb      	adds	r3, r1, r3
 8001718:	005b      	lsls	r3, r3, #1
 800171a:	18d3      	adds	r3, r2, r3
 800171c:	881b      	ldrh	r3, [r3, #0]
 800171e:	617b      	str	r3, [r7, #20]
        for(j = 0; j < Font.width; j++) {
 8001720:	2300      	movs	r3, #0
 8001722:	61bb      	str	r3, [r7, #24]
 8001724:	e035      	b.n	8001792 <ssd1306_WriteChar+0xea>
            if((b << j) & 0x8000)  {
 8001726:	697a      	ldr	r2, [r7, #20]
 8001728:	69bb      	ldr	r3, [r7, #24]
 800172a:	409a      	lsls	r2, r3
 800172c:	2380      	movs	r3, #128	@ 0x80
 800172e:	021b      	lsls	r3, r3, #8
 8001730:	4013      	ands	r3, r2
 8001732:	d014      	beq.n	800175e <ssd1306_WriteChar+0xb6>
                ssd1306_DrawPixel(SSD1306.CurrentX + j, (SSD1306.CurrentY + i), (SSD1306_COLOR) color);
 8001734:	4b2c      	ldr	r3, [pc, #176]	@ (80017e8 <ssd1306_WriteChar+0x140>)
 8001736:	881b      	ldrh	r3, [r3, #0]
 8001738:	b2da      	uxtb	r2, r3
 800173a:	69bb      	ldr	r3, [r7, #24]
 800173c:	b2db      	uxtb	r3, r3
 800173e:	18d3      	adds	r3, r2, r3
 8001740:	b2d8      	uxtb	r0, r3
 8001742:	4b29      	ldr	r3, [pc, #164]	@ (80017e8 <ssd1306_WriteChar+0x140>)
 8001744:	885b      	ldrh	r3, [r3, #2]
 8001746:	b2da      	uxtb	r2, r3
 8001748:	69fb      	ldr	r3, [r7, #28]
 800174a:	b2db      	uxtb	r3, r3
 800174c:	18d3      	adds	r3, r2, r3
 800174e:	b2d9      	uxtb	r1, r3
 8001750:	2330      	movs	r3, #48	@ 0x30
 8001752:	18fb      	adds	r3, r7, r3
 8001754:	781b      	ldrb	r3, [r3, #0]
 8001756:	001a      	movs	r2, r3
 8001758:	f7ff ff38 	bl	80015cc <ssd1306_DrawPixel>
 800175c:	e016      	b.n	800178c <ssd1306_WriteChar+0xe4>
            } else {
                ssd1306_DrawPixel(SSD1306.CurrentX + j, (SSD1306.CurrentY + i), (SSD1306_COLOR)!color);
 800175e:	4b22      	ldr	r3, [pc, #136]	@ (80017e8 <ssd1306_WriteChar+0x140>)
 8001760:	881b      	ldrh	r3, [r3, #0]
 8001762:	b2da      	uxtb	r2, r3
 8001764:	69bb      	ldr	r3, [r7, #24]
 8001766:	b2db      	uxtb	r3, r3
 8001768:	18d3      	adds	r3, r2, r3
 800176a:	b2d8      	uxtb	r0, r3
 800176c:	4b1e      	ldr	r3, [pc, #120]	@ (80017e8 <ssd1306_WriteChar+0x140>)
 800176e:	885b      	ldrh	r3, [r3, #2]
 8001770:	b2da      	uxtb	r2, r3
 8001772:	69fb      	ldr	r3, [r7, #28]
 8001774:	b2db      	uxtb	r3, r3
 8001776:	18d3      	adds	r3, r2, r3
 8001778:	b2d9      	uxtb	r1, r3
 800177a:	2330      	movs	r3, #48	@ 0x30
 800177c:	18fb      	adds	r3, r7, r3
 800177e:	781b      	ldrb	r3, [r3, #0]
 8001780:	425a      	negs	r2, r3
 8001782:	4153      	adcs	r3, r2
 8001784:	b2db      	uxtb	r3, r3
 8001786:	001a      	movs	r2, r3
 8001788:	f7ff ff20 	bl	80015cc <ssd1306_DrawPixel>
        for(j = 0; j < Font.width; j++) {
 800178c:	69bb      	ldr	r3, [r7, #24]
 800178e:	3301      	adds	r3, #1
 8001790:	61bb      	str	r3, [r7, #24]
 8001792:	003b      	movs	r3, r7
 8001794:	781b      	ldrb	r3, [r3, #0]
 8001796:	001a      	movs	r2, r3
 8001798:	69bb      	ldr	r3, [r7, #24]
 800179a:	4293      	cmp	r3, r2
 800179c:	d3c3      	bcc.n	8001726 <ssd1306_WriteChar+0x7e>
    for(i = 0; i < Font.height; i++) {
 800179e:	69fb      	ldr	r3, [r7, #28]
 80017a0:	3301      	adds	r3, #1
 80017a2:	61fb      	str	r3, [r7, #28]
 80017a4:	003b      	movs	r3, r7
 80017a6:	785b      	ldrb	r3, [r3, #1]
 80017a8:	001a      	movs	r2, r3
 80017aa:	69fb      	ldr	r3, [r7, #28]
 80017ac:	4293      	cmp	r3, r2
 80017ae:	d3a7      	bcc.n	8001700 <ssd1306_WriteChar+0x58>
            }
        }
    }
    
    // The current space is now taken
    SSD1306.CurrentX += Font.char_width ? Font.char_width[ch - 32] : Font.width;
 80017b0:	4b0d      	ldr	r3, [pc, #52]	@ (80017e8 <ssd1306_WriteChar+0x140>)
 80017b2:	881a      	ldrh	r2, [r3, #0]
 80017b4:	003b      	movs	r3, r7
 80017b6:	689b      	ldr	r3, [r3, #8]
 80017b8:	2b00      	cmp	r3, #0
 80017ba:	d008      	beq.n	80017ce <ssd1306_WriteChar+0x126>
 80017bc:	003b      	movs	r3, r7
 80017be:	6899      	ldr	r1, [r3, #8]
 80017c0:	230f      	movs	r3, #15
 80017c2:	18fb      	adds	r3, r7, r3
 80017c4:	781b      	ldrb	r3, [r3, #0]
 80017c6:	3b20      	subs	r3, #32
 80017c8:	18cb      	adds	r3, r1, r3
 80017ca:	781b      	ldrb	r3, [r3, #0]
 80017cc:	e001      	b.n	80017d2 <ssd1306_WriteChar+0x12a>
 80017ce:	003b      	movs	r3, r7
 80017d0:	781b      	ldrb	r3, [r3, #0]
 80017d2:	189b      	adds	r3, r3, r2
 80017d4:	b29a      	uxth	r2, r3
 80017d6:	4b04      	ldr	r3, [pc, #16]	@ (80017e8 <ssd1306_WriteChar+0x140>)
 80017d8:	801a      	strh	r2, [r3, #0]
    
    // Return written char for validation
    return ch;
 80017da:	230f      	movs	r3, #15
 80017dc:	18fb      	adds	r3, r7, r3
 80017de:	781b      	ldrb	r3, [r3, #0]
}
 80017e0:	0018      	movs	r0, r3
 80017e2:	46bd      	mov	sp, r7
 80017e4:	b009      	add	sp, #36	@ 0x24
 80017e6:	bd90      	pop	{r4, r7, pc}
 80017e8:	20000600 	.word	0x20000600

080017ec <ssd1306_WriteString>:

/* Write full string to screenbuffer */
char ssd1306_WriteString(char* str, SSD1306_Font_t Font, SSD1306_COLOR color) {
 80017ec:	b580      	push	{r7, lr}
 80017ee:	b086      	sub	sp, #24
 80017f0:	af02      	add	r7, sp, #8
 80017f2:	60f8      	str	r0, [r7, #12]
 80017f4:	0038      	movs	r0, r7
 80017f6:	6001      	str	r1, [r0, #0]
 80017f8:	6042      	str	r2, [r0, #4]
 80017fa:	6083      	str	r3, [r0, #8]
    while (*str) {
 80017fc:	e017      	b.n	800182e <ssd1306_WriteString+0x42>
        if (ssd1306_WriteChar(*str, Font, color) != *str) {
 80017fe:	68fb      	ldr	r3, [r7, #12]
 8001800:	7818      	ldrb	r0, [r3, #0]
 8001802:	003b      	movs	r3, r7
 8001804:	2218      	movs	r2, #24
 8001806:	18ba      	adds	r2, r7, r2
 8001808:	7812      	ldrb	r2, [r2, #0]
 800180a:	9200      	str	r2, [sp, #0]
 800180c:	6819      	ldr	r1, [r3, #0]
 800180e:	685a      	ldr	r2, [r3, #4]
 8001810:	689b      	ldr	r3, [r3, #8]
 8001812:	f7ff ff49 	bl	80016a8 <ssd1306_WriteChar>
 8001816:	0003      	movs	r3, r0
 8001818:	001a      	movs	r2, r3
 800181a:	68fb      	ldr	r3, [r7, #12]
 800181c:	781b      	ldrb	r3, [r3, #0]
 800181e:	429a      	cmp	r2, r3
 8001820:	d002      	beq.n	8001828 <ssd1306_WriteString+0x3c>
            // Char could not be written
            return *str;
 8001822:	68fb      	ldr	r3, [r7, #12]
 8001824:	781b      	ldrb	r3, [r3, #0]
 8001826:	e008      	b.n	800183a <ssd1306_WriteString+0x4e>
        }
        str++;
 8001828:	68fb      	ldr	r3, [r7, #12]
 800182a:	3301      	adds	r3, #1
 800182c:	60fb      	str	r3, [r7, #12]
    while (*str) {
 800182e:	68fb      	ldr	r3, [r7, #12]
 8001830:	781b      	ldrb	r3, [r3, #0]
 8001832:	2b00      	cmp	r3, #0
 8001834:	d1e3      	bne.n	80017fe <ssd1306_WriteString+0x12>
    }
    
    // Everything ok
    return *str;
 8001836:	68fb      	ldr	r3, [r7, #12]
 8001838:	781b      	ldrb	r3, [r3, #0]
}
 800183a:	0018      	movs	r0, r3
 800183c:	46bd      	mov	sp, r7
 800183e:	b004      	add	sp, #16
 8001840:	bd80      	pop	{r7, pc}
	...

08001844 <ssd1306_SetCursor>:

/* Position the cursor */
void ssd1306_SetCursor(uint8_t x, uint8_t y) {
 8001844:	b580      	push	{r7, lr}
 8001846:	b082      	sub	sp, #8
 8001848:	af00      	add	r7, sp, #0
 800184a:	0002      	movs	r2, r0
 800184c:	1dfb      	adds	r3, r7, #7
 800184e:	701a      	strb	r2, [r3, #0]
 8001850:	1dbb      	adds	r3, r7, #6
 8001852:	1c0a      	adds	r2, r1, #0
 8001854:	701a      	strb	r2, [r3, #0]
    SSD1306.CurrentX = x;
 8001856:	1dfb      	adds	r3, r7, #7
 8001858:	781b      	ldrb	r3, [r3, #0]
 800185a:	b29a      	uxth	r2, r3
 800185c:	4b05      	ldr	r3, [pc, #20]	@ (8001874 <ssd1306_SetCursor+0x30>)
 800185e:	801a      	strh	r2, [r3, #0]
    SSD1306.CurrentY = y;
 8001860:	1dbb      	adds	r3, r7, #6
 8001862:	781b      	ldrb	r3, [r3, #0]
 8001864:	b29a      	uxth	r2, r3
 8001866:	4b03      	ldr	r3, [pc, #12]	@ (8001874 <ssd1306_SetCursor+0x30>)
 8001868:	805a      	strh	r2, [r3, #2]
}
 800186a:	46c0      	nop			@ (mov r8, r8)
 800186c:	46bd      	mov	sp, r7
 800186e:	b002      	add	sp, #8
 8001870:	bd80      	pop	{r7, pc}
 8001872:	46c0      	nop			@ (mov r8, r8)
 8001874:	20000600 	.word	0x20000600

08001878 <ssd1306_DrawBitmap>:
  }
  return SSD1306_OK;
}

/* Draw a bitmap */
void ssd1306_DrawBitmap(uint8_t x, uint8_t y, const unsigned char* bitmap, uint8_t w, uint8_t h, SSD1306_COLOR color) {
 8001878:	b590      	push	{r4, r7, lr}
 800187a:	b085      	sub	sp, #20
 800187c:	af00      	add	r7, sp, #0
 800187e:	0004      	movs	r4, r0
 8001880:	0008      	movs	r0, r1
 8001882:	603a      	str	r2, [r7, #0]
 8001884:	0019      	movs	r1, r3
 8001886:	1dfb      	adds	r3, r7, #7
 8001888:	1c22      	adds	r2, r4, #0
 800188a:	701a      	strb	r2, [r3, #0]
 800188c:	1dbb      	adds	r3, r7, #6
 800188e:	1c02      	adds	r2, r0, #0
 8001890:	701a      	strb	r2, [r3, #0]
 8001892:	1d7b      	adds	r3, r7, #5
 8001894:	1c0a      	adds	r2, r1, #0
 8001896:	701a      	strb	r2, [r3, #0]
    int16_t byteWidth = (w + 7) / 8; // Bitmap scanline pad = whole byte
 8001898:	1d7b      	adds	r3, r7, #5
 800189a:	781b      	ldrb	r3, [r3, #0]
 800189c:	3307      	adds	r3, #7
 800189e:	2b00      	cmp	r3, #0
 80018a0:	da00      	bge.n	80018a4 <ssd1306_DrawBitmap+0x2c>
 80018a2:	3307      	adds	r3, #7
 80018a4:	10db      	asrs	r3, r3, #3
 80018a6:	001a      	movs	r2, r3
 80018a8:	230a      	movs	r3, #10
 80018aa:	18fb      	adds	r3, r7, r3
 80018ac:	801a      	strh	r2, [r3, #0]
    uint8_t byte = 0;
 80018ae:	230f      	movs	r3, #15
 80018b0:	18fb      	adds	r3, r7, r3
 80018b2:	2200      	movs	r2, #0
 80018b4:	701a      	strb	r2, [r3, #0]

    if (x >= SSD1306_WIDTH || y >= SSD1306_HEIGHT) {
 80018b6:	1dfb      	adds	r3, r7, #7
 80018b8:	781b      	ldrb	r3, [r3, #0]
 80018ba:	2b81      	cmp	r3, #129	@ 0x81
 80018bc:	d865      	bhi.n	800198a <ssd1306_DrawBitmap+0x112>
 80018be:	1dbb      	adds	r3, r7, #6
 80018c0:	781b      	ldrb	r3, [r3, #0]
 80018c2:	2b3f      	cmp	r3, #63	@ 0x3f
 80018c4:	d861      	bhi.n	800198a <ssd1306_DrawBitmap+0x112>
        return;
    }

    for (uint8_t j = 0; j < h; j++, y++) {
 80018c6:	230e      	movs	r3, #14
 80018c8:	18fb      	adds	r3, r7, r3
 80018ca:	2200      	movs	r2, #0
 80018cc:	701a      	strb	r2, [r3, #0]
 80018ce:	e053      	b.n	8001978 <ssd1306_DrawBitmap+0x100>
        for (uint8_t i = 0; i < w; i++) {
 80018d0:	230d      	movs	r3, #13
 80018d2:	18fb      	adds	r3, r7, r3
 80018d4:	2200      	movs	r2, #0
 80018d6:	701a      	strb	r2, [r3, #0]
 80018d8:	e03c      	b.n	8001954 <ssd1306_DrawBitmap+0xdc>
            if (i & 7) {
 80018da:	230d      	movs	r3, #13
 80018dc:	18fb      	adds	r3, r7, r3
 80018de:	781b      	ldrb	r3, [r3, #0]
 80018e0:	2207      	movs	r2, #7
 80018e2:	4013      	ands	r3, r2
 80018e4:	d006      	beq.n	80018f4 <ssd1306_DrawBitmap+0x7c>
                byte <<= 1;
 80018e6:	230f      	movs	r3, #15
 80018e8:	18fa      	adds	r2, r7, r3
 80018ea:	18fb      	adds	r3, r7, r3
 80018ec:	781b      	ldrb	r3, [r3, #0]
 80018ee:	18db      	adds	r3, r3, r3
 80018f0:	7013      	strb	r3, [r2, #0]
 80018f2:	e014      	b.n	800191e <ssd1306_DrawBitmap+0xa6>
            } else {
                byte = (*(const unsigned char *)(&bitmap[j * byteWidth + i / 8]));
 80018f4:	230e      	movs	r3, #14
 80018f6:	18fb      	adds	r3, r7, r3
 80018f8:	781b      	ldrb	r3, [r3, #0]
 80018fa:	220a      	movs	r2, #10
 80018fc:	18ba      	adds	r2, r7, r2
 80018fe:	2100      	movs	r1, #0
 8001900:	5e52      	ldrsh	r2, [r2, r1]
 8001902:	4353      	muls	r3, r2
 8001904:	220d      	movs	r2, #13
 8001906:	18ba      	adds	r2, r7, r2
 8001908:	7812      	ldrb	r2, [r2, #0]
 800190a:	08d2      	lsrs	r2, r2, #3
 800190c:	b2d2      	uxtb	r2, r2
 800190e:	189b      	adds	r3, r3, r2
 8001910:	001a      	movs	r2, r3
 8001912:	683b      	ldr	r3, [r7, #0]
 8001914:	189a      	adds	r2, r3, r2
 8001916:	230f      	movs	r3, #15
 8001918:	18fb      	adds	r3, r7, r3
 800191a:	7812      	ldrb	r2, [r2, #0]
 800191c:	701a      	strb	r2, [r3, #0]
            }

            if (byte & 0x80) {
 800191e:	230f      	movs	r3, #15
 8001920:	18fb      	adds	r3, r7, r3
 8001922:	781b      	ldrb	r3, [r3, #0]
 8001924:	b25b      	sxtb	r3, r3
 8001926:	2b00      	cmp	r3, #0
 8001928:	da0e      	bge.n	8001948 <ssd1306_DrawBitmap+0xd0>
                ssd1306_DrawPixel(x + i, y, color);
 800192a:	1dfa      	adds	r2, r7, #7
 800192c:	230d      	movs	r3, #13
 800192e:	18fb      	adds	r3, r7, r3
 8001930:	7812      	ldrb	r2, [r2, #0]
 8001932:	781b      	ldrb	r3, [r3, #0]
 8001934:	18d3      	adds	r3, r2, r3
 8001936:	b2d8      	uxtb	r0, r3
 8001938:	2324      	movs	r3, #36	@ 0x24
 800193a:	18fb      	adds	r3, r7, r3
 800193c:	781a      	ldrb	r2, [r3, #0]
 800193e:	1dbb      	adds	r3, r7, #6
 8001940:	781b      	ldrb	r3, [r3, #0]
 8001942:	0019      	movs	r1, r3
 8001944:	f7ff fe42 	bl	80015cc <ssd1306_DrawPixel>
        for (uint8_t i = 0; i < w; i++) {
 8001948:	210d      	movs	r1, #13
 800194a:	187b      	adds	r3, r7, r1
 800194c:	781a      	ldrb	r2, [r3, #0]
 800194e:	187b      	adds	r3, r7, r1
 8001950:	3201      	adds	r2, #1
 8001952:	701a      	strb	r2, [r3, #0]
 8001954:	230d      	movs	r3, #13
 8001956:	18fa      	adds	r2, r7, r3
 8001958:	1d7b      	adds	r3, r7, #5
 800195a:	7812      	ldrb	r2, [r2, #0]
 800195c:	781b      	ldrb	r3, [r3, #0]
 800195e:	429a      	cmp	r2, r3
 8001960:	d3bb      	bcc.n	80018da <ssd1306_DrawBitmap+0x62>
    for (uint8_t j = 0; j < h; j++, y++) {
 8001962:	210e      	movs	r1, #14
 8001964:	187b      	adds	r3, r7, r1
 8001966:	781a      	ldrb	r2, [r3, #0]
 8001968:	187b      	adds	r3, r7, r1
 800196a:	3201      	adds	r2, #1
 800196c:	701a      	strb	r2, [r3, #0]
 800196e:	1dbb      	adds	r3, r7, #6
 8001970:	781a      	ldrb	r2, [r3, #0]
 8001972:	1dbb      	adds	r3, r7, #6
 8001974:	3201      	adds	r2, #1
 8001976:	701a      	strb	r2, [r3, #0]
 8001978:	230e      	movs	r3, #14
 800197a:	18fa      	adds	r2, r7, r3
 800197c:	2320      	movs	r3, #32
 800197e:	18fb      	adds	r3, r7, r3
 8001980:	7812      	ldrb	r2, [r2, #0]
 8001982:	781b      	ldrb	r3, [r3, #0]
 8001984:	429a      	cmp	r2, r3
 8001986:	d3a3      	bcc.n	80018d0 <ssd1306_DrawBitmap+0x58>
            }
        }
    }
    return;
 8001988:	e000      	b.n	800198c <ssd1306_DrawBitmap+0x114>
        return;
 800198a:	46c0      	nop			@ (mov r8, r8)
}
 800198c:	46bd      	mov	sp, r7
 800198e:	b005      	add	sp, #20
 8001990:	bd90      	pop	{r4, r7, pc}

08001992 <ssd1306_SetContrast>:

void ssd1306_SetContrast(const uint8_t value) {
 8001992:	b580      	push	{r7, lr}
 8001994:	b084      	sub	sp, #16
 8001996:	af00      	add	r7, sp, #0
 8001998:	0002      	movs	r2, r0
 800199a:	1dfb      	adds	r3, r7, #7
 800199c:	701a      	strb	r2, [r3, #0]
    const uint8_t kSetContrastControlRegister = 0x81;
 800199e:	210f      	movs	r1, #15
 80019a0:	187b      	adds	r3, r7, r1
 80019a2:	2281      	movs	r2, #129	@ 0x81
 80019a4:	701a      	strb	r2, [r3, #0]
    ssd1306_WriteCommand(kSetContrastControlRegister);
 80019a6:	187b      	adds	r3, r7, r1
 80019a8:	781b      	ldrb	r3, [r3, #0]
 80019aa:	0018      	movs	r0, r3
 80019ac:	f7ff fd22 	bl	80013f4 <ssd1306_WriteCommand>
    ssd1306_WriteCommand(value);
 80019b0:	1dfb      	adds	r3, r7, #7
 80019b2:	781b      	ldrb	r3, [r3, #0]
 80019b4:	0018      	movs	r0, r3
 80019b6:	f7ff fd1d 	bl	80013f4 <ssd1306_WriteCommand>
}
 80019ba:	46c0      	nop			@ (mov r8, r8)
 80019bc:	46bd      	mov	sp, r7
 80019be:	b004      	add	sp, #16
 80019c0:	bd80      	pop	{r7, pc}
	...

080019c4 <ssd1306_SetDisplayOn>:

void ssd1306_SetDisplayOn(const uint8_t on) {
 80019c4:	b580      	push	{r7, lr}
 80019c6:	b084      	sub	sp, #16
 80019c8:	af00      	add	r7, sp, #0
 80019ca:	0002      	movs	r2, r0
 80019cc:	1dfb      	adds	r3, r7, #7
 80019ce:	701a      	strb	r2, [r3, #0]
    uint8_t value;
    if (on) {
 80019d0:	1dfb      	adds	r3, r7, #7
 80019d2:	781b      	ldrb	r3, [r3, #0]
 80019d4:	2b00      	cmp	r3, #0
 80019d6:	d007      	beq.n	80019e8 <ssd1306_SetDisplayOn+0x24>
        value = 0xAF;   // Display on
 80019d8:	230f      	movs	r3, #15
 80019da:	18fb      	adds	r3, r7, r3
 80019dc:	22af      	movs	r2, #175	@ 0xaf
 80019de:	701a      	strb	r2, [r3, #0]
        SSD1306.DisplayOn = 1;
 80019e0:	4b0a      	ldr	r3, [pc, #40]	@ (8001a0c <ssd1306_SetDisplayOn+0x48>)
 80019e2:	2201      	movs	r2, #1
 80019e4:	715a      	strb	r2, [r3, #5]
 80019e6:	e006      	b.n	80019f6 <ssd1306_SetDisplayOn+0x32>
    } else {
        value = 0xAE;   // Display off
 80019e8:	230f      	movs	r3, #15
 80019ea:	18fb      	adds	r3, r7, r3
 80019ec:	22ae      	movs	r2, #174	@ 0xae
 80019ee:	701a      	strb	r2, [r3, #0]
        SSD1306.DisplayOn = 0;
 80019f0:	4b06      	ldr	r3, [pc, #24]	@ (8001a0c <ssd1306_SetDisplayOn+0x48>)
 80019f2:	2200      	movs	r2, #0
 80019f4:	715a      	strb	r2, [r3, #5]
    }
    ssd1306_WriteCommand(value);
 80019f6:	230f      	movs	r3, #15
 80019f8:	18fb      	adds	r3, r7, r3
 80019fa:	781b      	ldrb	r3, [r3, #0]
 80019fc:	0018      	movs	r0, r3
 80019fe:	f7ff fcf9 	bl	80013f4 <ssd1306_WriteCommand>
}
 8001a02:	46c0      	nop			@ (mov r8, r8)
 8001a04:	46bd      	mov	sp, r7
 8001a06:	b004      	add	sp, #16
 8001a08:	bd80      	pop	{r7, pc}
 8001a0a:	46c0      	nop			@ (mov r8, r8)
 8001a0c:	20000600 	.word	0x20000600

08001a10 <ssd1306_InvertDisplay>:

uint8_t ssd1306_GetDisplayOn() {
    return SSD1306.DisplayOn;
}

void ssd1306_InvertDisplay(uint8_t invert) {
 8001a10:	b580      	push	{r7, lr}
 8001a12:	b082      	sub	sp, #8
 8001a14:	af00      	add	r7, sp, #0
 8001a16:	0002      	movs	r2, r0
 8001a18:	1dfb      	adds	r3, r7, #7
 8001a1a:	701a      	strb	r2, [r3, #0]
    if (invert) {
 8001a1c:	1dfb      	adds	r3, r7, #7
 8001a1e:	781b      	ldrb	r3, [r3, #0]
 8001a20:	2b00      	cmp	r3, #0
 8001a22:	d003      	beq.n	8001a2c <ssd1306_InvertDisplay+0x1c>
        ssd1306_WriteCommand(0xA7); // Inverted display mode
 8001a24:	20a7      	movs	r0, #167	@ 0xa7
 8001a26:	f7ff fce5 	bl	80013f4 <ssd1306_WriteCommand>
    } else {
        ssd1306_WriteCommand(0xA6); // Normal display mode
    }
}
 8001a2a:	e002      	b.n	8001a32 <ssd1306_InvertDisplay+0x22>
        ssd1306_WriteCommand(0xA6); // Normal display mode
 8001a2c:	20a6      	movs	r0, #166	@ 0xa6
 8001a2e:	f7ff fce1 	bl	80013f4 <ssd1306_WriteCommand>
}
 8001a32:	46c0      	nop			@ (mov r8, r8)
 8001a34:	46bd      	mov	sp, r7
 8001a36:	b002      	add	sp, #8
 8001a38:	bd80      	pop	{r7, pc}
	...

08001a3c <HAL_MspInit>:
 8001a3c:	b580      	push	{r7, lr}
 8001a3e:	b082      	sub	sp, #8
 8001a40:	af00      	add	r7, sp, #0
 8001a42:	4b0f      	ldr	r3, [pc, #60]	@ (8001a80 <HAL_MspInit+0x44>)
 8001a44:	6c1a      	ldr	r2, [r3, #64]	@ 0x40
 8001a46:	4b0e      	ldr	r3, [pc, #56]	@ (8001a80 <HAL_MspInit+0x44>)
 8001a48:	2101      	movs	r1, #1
 8001a4a:	430a      	orrs	r2, r1
 8001a4c:	641a      	str	r2, [r3, #64]	@ 0x40
 8001a4e:	4b0c      	ldr	r3, [pc, #48]	@ (8001a80 <HAL_MspInit+0x44>)
 8001a50:	6c1b      	ldr	r3, [r3, #64]	@ 0x40
 8001a52:	2201      	movs	r2, #1
 8001a54:	4013      	ands	r3, r2
 8001a56:	607b      	str	r3, [r7, #4]
 8001a58:	687b      	ldr	r3, [r7, #4]
 8001a5a:	4b09      	ldr	r3, [pc, #36]	@ (8001a80 <HAL_MspInit+0x44>)
 8001a5c:	6bda      	ldr	r2, [r3, #60]	@ 0x3c
 8001a5e:	4b08      	ldr	r3, [pc, #32]	@ (8001a80 <HAL_MspInit+0x44>)
 8001a60:	2180      	movs	r1, #128	@ 0x80
 8001a62:	0549      	lsls	r1, r1, #21
 8001a64:	430a      	orrs	r2, r1
 8001a66:	63da      	str	r2, [r3, #60]	@ 0x3c
 8001a68:	4b05      	ldr	r3, [pc, #20]	@ (8001a80 <HAL_MspInit+0x44>)
 8001a6a:	6bda      	ldr	r2, [r3, #60]	@ 0x3c
 8001a6c:	2380      	movs	r3, #128	@ 0x80
 8001a6e:	055b      	lsls	r3, r3, #21
 8001a70:	4013      	ands	r3, r2
 8001a72:	603b      	str	r3, [r7, #0]
 8001a74:	683b      	ldr	r3, [r7, #0]
 8001a76:	46c0      	nop			@ (mov r8, r8)
 8001a78:	46bd      	mov	sp, r7
 8001a7a:	b002      	add	sp, #8
 8001a7c:	bd80      	pop	{r7, pc}
 8001a7e:	46c0      	nop			@ (mov r8, r8)
 8001a80:	40021000 	.word	0x40021000

08001a84 <HAL_I2C_MspInit>:
 8001a84:	b590      	push	{r4, r7, lr}
 8001a86:	b091      	sub	sp, #68	@ 0x44
 8001a88:	af00      	add	r7, sp, #0
 8001a8a:	6078      	str	r0, [r7, #4]
 8001a8c:	232c      	movs	r3, #44	@ 0x2c
 8001a8e:	18fb      	adds	r3, r7, r3
 8001a90:	0018      	movs	r0, r3
 8001a92:	2314      	movs	r3, #20
 8001a94:	001a      	movs	r2, r3
 8001a96:	2100      	movs	r1, #0
 8001a98:	f002 fb80 	bl	800419c <memset>
 8001a9c:	2414      	movs	r4, #20
 8001a9e:	193b      	adds	r3, r7, r4
 8001aa0:	0018      	movs	r0, r3
 8001aa2:	2318      	movs	r3, #24
 8001aa4:	001a      	movs	r2, r3
 8001aa6:	2100      	movs	r1, #0
 8001aa8:	f002 fb78 	bl	800419c <memset>
 8001aac:	687b      	ldr	r3, [r7, #4]
 8001aae:	681b      	ldr	r3, [r3, #0]
 8001ab0:	4a35      	ldr	r2, [pc, #212]	@ (8001b88 <HAL_I2C_MspInit+0x104>)
 8001ab2:	4293      	cmp	r3, r2
 8001ab4:	d163      	bne.n	8001b7e <HAL_I2C_MspInit+0xfa>
 8001ab6:	193b      	adds	r3, r7, r4
 8001ab8:	2220      	movs	r2, #32
 8001aba:	601a      	str	r2, [r3, #0]
 8001abc:	193b      	adds	r3, r7, r4
 8001abe:	2200      	movs	r2, #0
 8001ac0:	609a      	str	r2, [r3, #8]
 8001ac2:	193b      	adds	r3, r7, r4
 8001ac4:	0018      	movs	r0, r3
 8001ac6:	f001 ffc1 	bl	8003a4c <HAL_RCCEx_PeriphCLKConfig>
 8001aca:	1e03      	subs	r3, r0, #0
 8001acc:	d001      	beq.n	8001ad2 <HAL_I2C_MspInit+0x4e>
 8001ace:	f7ff fc85 	bl	80013dc <Error_Handler>
 8001ad2:	4b2e      	ldr	r3, [pc, #184]	@ (8001b8c <HAL_I2C_MspInit+0x108>)
 8001ad4:	6b5a      	ldr	r2, [r3, #52]	@ 0x34
 8001ad6:	4b2d      	ldr	r3, [pc, #180]	@ (8001b8c <HAL_I2C_MspInit+0x108>)
 8001ad8:	2102      	movs	r1, #2
 8001ada:	430a      	orrs	r2, r1
 8001adc:	635a      	str	r2, [r3, #52]	@ 0x34
 8001ade:	4b2b      	ldr	r3, [pc, #172]	@ (8001b8c <HAL_I2C_MspInit+0x108>)
 8001ae0:	6b5b      	ldr	r3, [r3, #52]	@ 0x34
 8001ae2:	2202      	movs	r2, #2
 8001ae4:	4013      	ands	r3, r2
 8001ae6:	613b      	str	r3, [r7, #16]
 8001ae8:	693b      	ldr	r3, [r7, #16]
 8001aea:	4b28      	ldr	r3, [pc, #160]	@ (8001b8c <HAL_I2C_MspInit+0x108>)
 8001aec:	6b5a      	ldr	r2, [r3, #52]	@ 0x34
 8001aee:	4b27      	ldr	r3, [pc, #156]	@ (8001b8c <HAL_I2C_MspInit+0x108>)
 8001af0:	2101      	movs	r1, #1
 8001af2:	430a      	orrs	r2, r1
 8001af4:	635a      	str	r2, [r3, #52]	@ 0x34
 8001af6:	4b25      	ldr	r3, [pc, #148]	@ (8001b8c <HAL_I2C_MspInit+0x108>)
 8001af8:	6b5b      	ldr	r3, [r3, #52]	@ 0x34
 8001afa:	2201      	movs	r2, #1
 8001afc:	4013      	ands	r3, r2
 8001afe:	60fb      	str	r3, [r7, #12]
 8001b00:	68fb      	ldr	r3, [r7, #12]
 8001b02:	212c      	movs	r1, #44	@ 0x2c
 8001b04:	187b      	adds	r3, r7, r1
 8001b06:	2280      	movs	r2, #128	@ 0x80
 8001b08:	0092      	lsls	r2, r2, #2
 8001b0a:	601a      	str	r2, [r3, #0]
 8001b0c:	000c      	movs	r4, r1
 8001b0e:	193b      	adds	r3, r7, r4
 8001b10:	2212      	movs	r2, #18
 8001b12:	605a      	str	r2, [r3, #4]
 8001b14:	193b      	adds	r3, r7, r4
 8001b16:	2201      	movs	r2, #1
 8001b18:	609a      	str	r2, [r3, #8]
 8001b1a:	193b      	adds	r3, r7, r4
 8001b1c:	2203      	movs	r2, #3
 8001b1e:	60da      	str	r2, [r3, #12]
 8001b20:	193b      	adds	r3, r7, r4
 8001b22:	2206      	movs	r2, #6
 8001b24:	611a      	str	r2, [r3, #16]
 8001b26:	193b      	adds	r3, r7, r4
 8001b28:	4a19      	ldr	r2, [pc, #100]	@ (8001b90 <HAL_I2C_MspInit+0x10c>)
 8001b2a:	0019      	movs	r1, r3
 8001b2c:	0010      	movs	r0, r2
 8001b2e:	f000 fc0f 	bl	8002350 <HAL_GPIO_Init>
 8001b32:	0021      	movs	r1, r4
 8001b34:	187b      	adds	r3, r7, r1
 8001b36:	2280      	movs	r2, #128	@ 0x80
 8001b38:	0092      	lsls	r2, r2, #2
 8001b3a:	601a      	str	r2, [r3, #0]
 8001b3c:	187b      	adds	r3, r7, r1
 8001b3e:	2212      	movs	r2, #18
 8001b40:	605a      	str	r2, [r3, #4]
 8001b42:	187b      	adds	r3, r7, r1
 8001b44:	2201      	movs	r2, #1
 8001b46:	609a      	str	r2, [r3, #8]
 8001b48:	187b      	adds	r3, r7, r1
 8001b4a:	2203      	movs	r2, #3
 8001b4c:	60da      	str	r2, [r3, #12]
 8001b4e:	187b      	adds	r3, r7, r1
 8001b50:	2206      	movs	r2, #6
 8001b52:	611a      	str	r2, [r3, #16]
 8001b54:	187a      	adds	r2, r7, r1
 8001b56:	23a0      	movs	r3, #160	@ 0xa0
 8001b58:	05db      	lsls	r3, r3, #23
 8001b5a:	0011      	movs	r1, r2
 8001b5c:	0018      	movs	r0, r3
 8001b5e:	f000 fbf7 	bl	8002350 <HAL_GPIO_Init>
 8001b62:	4b0a      	ldr	r3, [pc, #40]	@ (8001b8c <HAL_I2C_MspInit+0x108>)
 8001b64:	6bda      	ldr	r2, [r3, #60]	@ 0x3c
 8001b66:	4b09      	ldr	r3, [pc, #36]	@ (8001b8c <HAL_I2C_MspInit+0x108>)
 8001b68:	2180      	movs	r1, #128	@ 0x80
 8001b6a:	0389      	lsls	r1, r1, #14
 8001b6c:	430a      	orrs	r2, r1
 8001b6e:	63da      	str	r2, [r3, #60]	@ 0x3c
 8001b70:	4b06      	ldr	r3, [pc, #24]	@ (8001b8c <HAL_I2C_MspInit+0x108>)
 8001b72:	6bda      	ldr	r2, [r3, #60]	@ 0x3c
 8001b74:	2380      	movs	r3, #128	@ 0x80
 8001b76:	039b      	lsls	r3, r3, #14
 8001b78:	4013      	ands	r3, r2
 8001b7a:	60bb      	str	r3, [r7, #8]
 8001b7c:	68bb      	ldr	r3, [r7, #8]
 8001b7e:	46c0      	nop			@ (mov r8, r8)
 8001b80:	46bd      	mov	sp, r7
 8001b82:	b011      	add	sp, #68	@ 0x44
 8001b84:	bd90      	pop	{r4, r7, pc}
 8001b86:	46c0      	nop			@ (mov r8, r8)
 8001b88:	40005400 	.word	0x40005400
 8001b8c:	40021000 	.word	0x40021000
 8001b90:	50000400 	.word	0x50000400

08001b94 <HAL_TIM_Base_MspInit>:
 8001b94:	b580      	push	{r7, lr}
 8001b96:	b084      	sub	sp, #16
 8001b98:	af00      	add	r7, sp, #0
 8001b9a:	6078      	str	r0, [r7, #4]
 8001b9c:	687b      	ldr	r3, [r7, #4]
 8001b9e:	681b      	ldr	r3, [r3, #0]
 8001ba0:	4a0a      	ldr	r2, [pc, #40]	@ (8001bcc <HAL_TIM_Base_MspInit+0x38>)
 8001ba2:	4293      	cmp	r3, r2
 8001ba4:	d10d      	bne.n	8001bc2 <HAL_TIM_Base_MspInit+0x2e>
 8001ba6:	4b0a      	ldr	r3, [pc, #40]	@ (8001bd0 <HAL_TIM_Base_MspInit+0x3c>)
 8001ba8:	6c1a      	ldr	r2, [r3, #64]	@ 0x40
 8001baa:	4b09      	ldr	r3, [pc, #36]	@ (8001bd0 <HAL_TIM_Base_MspInit+0x3c>)
 8001bac:	2180      	movs	r1, #128	@ 0x80
 8001bae:	0209      	lsls	r1, r1, #8
 8001bb0:	430a      	orrs	r2, r1
 8001bb2:	641a      	str	r2, [r3, #64]	@ 0x40
 8001bb4:	4b06      	ldr	r3, [pc, #24]	@ (8001bd0 <HAL_TIM_Base_MspInit+0x3c>)
 8001bb6:	6c1a      	ldr	r2, [r3, #64]	@ 0x40
 8001bb8:	2380      	movs	r3, #128	@ 0x80
 8001bba:	021b      	lsls	r3, r3, #8
 8001bbc:	4013      	ands	r3, r2
 8001bbe:	60fb      	str	r3, [r7, #12]
 8001bc0:	68fb      	ldr	r3, [r7, #12]
 8001bc2:	46c0      	nop			@ (mov r8, r8)
 8001bc4:	46bd      	mov	sp, r7
 8001bc6:	b004      	add	sp, #16
 8001bc8:	bd80      	pop	{r7, pc}
 8001bca:	46c0      	nop			@ (mov r8, r8)
 8001bcc:	40002000 	.word	0x40002000
 8001bd0:	40021000 	.word	0x40021000

08001bd4 <NMI_Handler>:
 8001bd4:	b580      	push	{r7, lr}
 8001bd6:	af00      	add	r7, sp, #0
 8001bd8:	46c0      	nop			@ (mov r8, r8)
 8001bda:	e7fd      	b.n	8001bd8 <NMI_Handler+0x4>

08001bdc <HardFault_Handler>:
 8001bdc:	b580      	push	{r7, lr}
 8001bde:	af00      	add	r7, sp, #0
 8001be0:	46c0      	nop			@ (mov r8, r8)
 8001be2:	e7fd      	b.n	8001be0 <HardFault_Handler+0x4>

08001be4 <SVC_Handler>:
 8001be4:	b580      	push	{r7, lr}
 8001be6:	af00      	add	r7, sp, #0
 8001be8:	46c0      	nop			@ (mov r8, r8)
 8001bea:	46bd      	mov	sp, r7
 8001bec:	bd80      	pop	{r7, pc}

08001bee <PendSV_Handler>:
 8001bee:	b580      	push	{r7, lr}
 8001bf0:	af00      	add	r7, sp, #0
 8001bf2:	46c0      	nop			@ (mov r8, r8)
 8001bf4:	46bd      	mov	sp, r7
 8001bf6:	bd80      	pop	{r7, pc}

08001bf8 <SysTick_Handler>:
 8001bf8:	b580      	push	{r7, lr}
 8001bfa:	af00      	add	r7, sp, #0
 8001bfc:	f000 f8e4 	bl	8001dc8 <HAL_IncTick>
 8001c00:	46c0      	nop			@ (mov r8, r8)
 8001c02:	46bd      	mov	sp, r7
 8001c04:	bd80      	pop	{r7, pc}

08001c06 <RCC_IRQHandler>:
 8001c06:	b580      	push	{r7, lr}
 8001c08:	af00      	add	r7, sp, #0
 8001c0a:	46c0      	nop			@ (mov r8, r8)
 8001c0c:	46bd      	mov	sp, r7
 8001c0e:	bd80      	pop	{r7, pc}

08001c10 <TIM14_IRQHandler>:
 8001c10:	b580      	push	{r7, lr}
 8001c12:	af00      	add	r7, sp, #0
 8001c14:	4b03      	ldr	r3, [pc, #12]	@ (8001c24 <TIM14_IRQHandler+0x14>)
 8001c16:	0018      	movs	r0, r3
 8001c18:	f002 f8e4 	bl	8003de4 <HAL_TIM_IRQHandler>
 8001c1c:	46c0      	nop			@ (mov r8, r8)
 8001c1e:	46bd      	mov	sp, r7
 8001c20:	bd80      	pop	{r7, pc}
 8001c22:	46c0      	nop			@ (mov r8, r8)
 8001c24:	20000168 	.word	0x20000168

08001c28 <_sbrk>:
 *
 * @param incr Memory size
 * @return Pointer to allocated memory
 */
void *_sbrk(ptrdiff_t incr)
{
 8001c28:	b580      	push	{r7, lr}
 8001c2a:	b086      	sub	sp, #24
 8001c2c:	af00      	add	r7, sp, #0
 8001c2e:	6078      	str	r0, [r7, #4]
  extern uint8_t _end; /* Symbol defined in the linker script */
  extern uint8_t _estack; /* Symbol defined in the linker script */
  extern uint32_t _Min_Stack_Size; /* Symbol defined in the linker script */
  const uint32_t stack_limit = (uint32_t)&_estack - (uint32_t)&_Min_Stack_Size;
 8001c30:	4a14      	ldr	r2, [pc, #80]	@ (8001c84 <_sbrk+0x5c>)
 8001c32:	4b15      	ldr	r3, [pc, #84]	@ (8001c88 <_sbrk+0x60>)
 8001c34:	1ad3      	subs	r3, r2, r3
 8001c36:	617b      	str	r3, [r7, #20]
  const uint8_t *max_heap = (uint8_t *)stack_limit;
 8001c38:	697b      	ldr	r3, [r7, #20]
 8001c3a:	613b      	str	r3, [r7, #16]
  uint8_t *prev_heap_end;

  /* Initialize heap end at first call */
  if (NULL == __sbrk_heap_end)
 8001c3c:	4b13      	ldr	r3, [pc, #76]	@ (8001c8c <_sbrk+0x64>)
 8001c3e:	681b      	ldr	r3, [r3, #0]
 8001c40:	2b00      	cmp	r3, #0
 8001c42:	d102      	bne.n	8001c4a <_sbrk+0x22>
  {
    __sbrk_heap_end = &_end;
 8001c44:	4b11      	ldr	r3, [pc, #68]	@ (8001c8c <_sbrk+0x64>)
 8001c46:	4a12      	ldr	r2, [pc, #72]	@ (8001c90 <_sbrk+0x68>)
 8001c48:	601a      	str	r2, [r3, #0]
  }

  /* Protect heap from growing into the reserved MSP stack */
  if (__sbrk_heap_end + incr > max_heap)
 8001c4a:	4b10      	ldr	r3, [pc, #64]	@ (8001c8c <_sbrk+0x64>)
 8001c4c:	681a      	ldr	r2, [r3, #0]
 8001c4e:	687b      	ldr	r3, [r7, #4]
 8001c50:	18d3      	adds	r3, r2, r3
 8001c52:	693a      	ldr	r2, [r7, #16]
 8001c54:	429a      	cmp	r2, r3
 8001c56:	d207      	bcs.n	8001c68 <_sbrk+0x40>
  {
    errno = ENOMEM;
 8001c58:	f002 faa8 	bl	80041ac <__errno>
 8001c5c:	0003      	movs	r3, r0
 8001c5e:	220c      	movs	r2, #12
 8001c60:	601a      	str	r2, [r3, #0]
    return (void *)-1;
 8001c62:	2301      	movs	r3, #1
 8001c64:	425b      	negs	r3, r3
 8001c66:	e009      	b.n	8001c7c <_sbrk+0x54>
  }

  prev_heap_end = __sbrk_heap_end;
 8001c68:	4b08      	ldr	r3, [pc, #32]	@ (8001c8c <_sbrk+0x64>)
 8001c6a:	681b      	ldr	r3, [r3, #0]
 8001c6c:	60fb      	str	r3, [r7, #12]
  __sbrk_heap_end += incr;
 8001c6e:	4b07      	ldr	r3, [pc, #28]	@ (8001c8c <_sbrk+0x64>)
 8001c70:	681a      	ldr	r2, [r3, #0]
 8001c72:	687b      	ldr	r3, [r7, #4]
 8001c74:	18d2      	adds	r2, r2, r3
 8001c76:	4b05      	ldr	r3, [pc, #20]	@ (8001c8c <_sbrk+0x64>)
 8001c78:	601a      	str	r2, [r3, #0]

  return (void *)prev_heap_end;
 8001c7a:	68fb      	ldr	r3, [r7, #12]
}
 8001c7c:	0018      	movs	r0, r3
 8001c7e:	46bd      	mov	sp, r7
 8001c80:	b006      	add	sp, #24
 8001c82:	bd80      	pop	{r7, pc}
 8001c84:	20002000 	.word	0x20002000
 8001c88:	00000400 	.word	0x00000400
 8001c8c:	20000608 	.word	0x20000608
 8001c90:	20000778 	.word	0x20000778

08001c94 <SystemInit>:
 8001c94:	b580      	push	{r7, lr}
 8001c96:	af00      	add	r7, sp, #0
 8001c98:	46c0      	nop			@ (mov r8, r8)
 8001c9a:	46bd      	mov	sp, r7
 8001c9c:	bd80      	pop	{r7, pc}
	...

08001ca0 <Reset_Handler>:

  .section .text.Reset_Handler
  .weak Reset_Handler
  .type Reset_Handler, %function
Reset_Handler:
  ldr   r0, =_estack
 8001ca0:	480d      	ldr	r0, [pc, #52]	@ (8001cd8 <LoopForever+0x2>)
  mov   sp, r0          /* set stack pointer */
 8001ca2:	4685      	mov	sp, r0

/* Call the clock system initialization function.*/
  bl  SystemInit
 8001ca4:	f7ff fff6 	bl	8001c94 <SystemInit>

/* Copy the data segment initializers from flash to SRAM */
  ldr r0, =_sdata
 8001ca8:	480c      	ldr	r0, [pc, #48]	@ (8001cdc <LoopForever+0x6>)
  ldr r1, =_edata
 8001caa:	490d      	ldr	r1, [pc, #52]	@ (8001ce0 <LoopForever+0xa>)
  ldr r2, =_sidata
 8001cac:	4a0d      	ldr	r2, [pc, #52]	@ (8001ce4 <LoopForever+0xe>)
  movs r3, #0
 8001cae:	2300      	movs	r3, #0
  b LoopCopyDataInit
 8001cb0:	e002      	b.n	8001cb8 <LoopCopyDataInit>

08001cb2 <CopyDataInit>:

CopyDataInit:
  ldr r4, [r2, r3]
 8001cb2:	58d4      	ldr	r4, [r2, r3]
  str r4, [r0, r3]
 8001cb4:	50c4      	str	r4, [r0, r3]
  adds r3, r3, #4
 8001cb6:	3304      	adds	r3, #4

08001cb8 <LoopCopyDataInit>:

LoopCopyDataInit:
  adds r4, r0, r3
 8001cb8:	18c4      	adds	r4, r0, r3
  cmp r4, r1
 8001cba:	428c      	cmp	r4, r1
  bcc CopyDataInit
 8001cbc:	d3f9      	bcc.n	8001cb2 <CopyDataInit>

/* Zero fill the bss segment. */
  ldr r2, =_sbss
 8001cbe:	4a0a      	ldr	r2, [pc, #40]	@ (8001ce8 <LoopForever+0x12>)
  ldr r4, =_ebss
 8001cc0:	4c0a      	ldr	r4, [pc, #40]	@ (8001cec <LoopForever+0x16>)
  movs r3, #0
 8001cc2:	2300      	movs	r3, #0
  b LoopFillZerobss
 8001cc4:	e001      	b.n	8001cca <LoopFillZerobss>

08001cc6 <FillZerobss>:

FillZerobss:
  str  r3, [r2]
 8001cc6:	6013      	str	r3, [r2, #0]
  adds r2, r2, #4
 8001cc8:	3204      	adds	r2, #4

08001cca <LoopFillZerobss>:

LoopFillZerobss:
  cmp r2, r4
 8001cca:	42a2      	cmp	r2, r4
  bcc FillZerobss
 8001ccc:	d3fb      	bcc.n	8001cc6 <FillZerobss>

/* Call static constructors */
  bl __libc_init_array
 8001cce:	f002 fa73 	bl	80041b8 <__libc_init_array>
/* Call the application s entry point.*/
  bl main
 8001cd2:	f7ff f945 	bl	8000f60 <main>

08001cd6 <LoopForever>:

LoopForever:
  b LoopForever
 8001cd6:	e7fe      	b.n	8001cd6 <LoopForever>
  ldr   r0, =_estack
 8001cd8:	20002000 	.word	0x20002000
  ldr r0, =_sdata
 8001cdc:	20000000 	.word	0x20000000
  ldr r1, =_edata
 8001ce0:	200000f8 	.word	0x200000f8
  ldr r2, =_sidata
 8001ce4:	08008118 	.word	0x08008118
  ldr r2, =_sbss
 8001ce8:	200000f8 	.word	0x200000f8
  ldr r4, =_ebss
 8001cec:	20000774 	.word	0x20000774

08001cf0 <ADC1_IRQHandler>:
 * @retval None
*/
  .section .text.Default_Handler,"ax",%progbits
Default_Handler:
Infinite_Loop:
  b Infinite_Loop
 8001cf0:	e7fe      	b.n	8001cf0 <ADC1_IRQHandler>
	...

08001cf4 <HAL_Init>:
 8001cf4:	b580      	push	{r7, lr}
 8001cf6:	b082      	sub	sp, #8
 8001cf8:	af00      	add	r7, sp, #0
 8001cfa:	1dfb      	adds	r3, r7, #7
 8001cfc:	2200      	movs	r2, #0
 8001cfe:	701a      	strb	r2, [r3, #0]
 8001d00:	4b0b      	ldr	r3, [pc, #44]	@ (8001d30 <HAL_Init+0x3c>)
 8001d02:	681a      	ldr	r2, [r3, #0]
 8001d04:	4b0a      	ldr	r3, [pc, #40]	@ (8001d30 <HAL_Init+0x3c>)
 8001d06:	2180      	movs	r1, #128	@ 0x80
 8001d08:	0049      	lsls	r1, r1, #1
 8001d0a:	430a      	orrs	r2, r1
 8001d0c:	601a      	str	r2, [r3, #0]
 8001d0e:	2003      	movs	r0, #3
 8001d10:	f000 f810 	bl	8001d34 <HAL_InitTick>
 8001d14:	1e03      	subs	r3, r0, #0
 8001d16:	d003      	beq.n	8001d20 <HAL_Init+0x2c>
 8001d18:	1dfb      	adds	r3, r7, #7
 8001d1a:	2201      	movs	r2, #1
 8001d1c:	701a      	strb	r2, [r3, #0]
 8001d1e:	e001      	b.n	8001d24 <HAL_Init+0x30>
 8001d20:	f7ff fe8c 	bl	8001a3c <HAL_MspInit>
 8001d24:	1dfb      	adds	r3, r7, #7
 8001d26:	781b      	ldrb	r3, [r3, #0]
 8001d28:	0018      	movs	r0, r3
 8001d2a:	46bd      	mov	sp, r7
 8001d2c:	b002      	add	sp, #8
 8001d2e:	bd80      	pop	{r7, pc}
 8001d30:	40022000 	.word	0x40022000

08001d34 <HAL_InitTick>:
 8001d34:	b590      	push	{r4, r7, lr}
 8001d36:	b085      	sub	sp, #20
 8001d38:	af00      	add	r7, sp, #0
 8001d3a:	6078      	str	r0, [r7, #4]
 8001d3c:	230f      	movs	r3, #15
 8001d3e:	18fb      	adds	r3, r7, r3
 8001d40:	2200      	movs	r2, #0
 8001d42:	701a      	strb	r2, [r3, #0]
 8001d44:	4b1d      	ldr	r3, [pc, #116]	@ (8001dbc <HAL_InitTick+0x88>)
 8001d46:	781b      	ldrb	r3, [r3, #0]
 8001d48:	2b00      	cmp	r3, #0
 8001d4a:	d02b      	beq.n	8001da4 <HAL_InitTick+0x70>
 8001d4c:	4b1c      	ldr	r3, [pc, #112]	@ (8001dc0 <HAL_InitTick+0x8c>)
 8001d4e:	681c      	ldr	r4, [r3, #0]
 8001d50:	4b1a      	ldr	r3, [pc, #104]	@ (8001dbc <HAL_InitTick+0x88>)
 8001d52:	781b      	ldrb	r3, [r3, #0]
 8001d54:	0019      	movs	r1, r3
 8001d56:	23fa      	movs	r3, #250	@ 0xfa
 8001d58:	0098      	lsls	r0, r3, #2
 8001d5a:	f7fe f9db 	bl	8000114 <__udivsi3>
 8001d5e:	0003      	movs	r3, r0
 8001d60:	0019      	movs	r1, r3
 8001d62:	0020      	movs	r0, r4
 8001d64:	f7fe f9d6 	bl	8000114 <__udivsi3>
 8001d68:	0003      	movs	r3, r0
 8001d6a:	0018      	movs	r0, r3
 8001d6c:	f000 f93d 	bl	8001fea <HAL_SYSTICK_Config>
 8001d70:	1e03      	subs	r3, r0, #0
 8001d72:	d112      	bne.n	8001d9a <HAL_InitTick+0x66>
 8001d74:	687b      	ldr	r3, [r7, #4]
 8001d76:	2b03      	cmp	r3, #3
 8001d78:	d80a      	bhi.n	8001d90 <HAL_InitTick+0x5c>
 8001d7a:	6879      	ldr	r1, [r7, #4]
 8001d7c:	2301      	movs	r3, #1
 8001d7e:	425b      	negs	r3, r3
 8001d80:	2200      	movs	r2, #0
 8001d82:	0018      	movs	r0, r3
 8001d84:	f000 f90c 	bl	8001fa0 <HAL_NVIC_SetPriority>
 8001d88:	4b0e      	ldr	r3, [pc, #56]	@ (8001dc4 <HAL_InitTick+0x90>)
 8001d8a:	687a      	ldr	r2, [r7, #4]
 8001d8c:	601a      	str	r2, [r3, #0]
 8001d8e:	e00d      	b.n	8001dac <HAL_InitTick+0x78>
 8001d90:	230f      	movs	r3, #15
 8001d92:	18fb      	adds	r3, r7, r3
 8001d94:	2201      	movs	r2, #1
 8001d96:	701a      	strb	r2, [r3, #0]
 8001d98:	e008      	b.n	8001dac <HAL_InitTick+0x78>
 8001d9a:	230f      	movs	r3, #15
 8001d9c:	18fb      	adds	r3, r7, r3
 8001d9e:	2201      	movs	r2, #1
 8001da0:	701a      	strb	r2, [r3, #0]
 8001da2:	e003      	b.n	8001dac <HAL_InitTick+0x78>
 8001da4:	230f      	movs	r3, #15
 8001da6:	18fb      	adds	r3, r7, r3
 8001da8:	2201      	movs	r2, #1
 8001daa:	701a      	strb	r2, [r3, #0]
 8001dac:	230f      	movs	r3, #15
 8001dae:	18fb      	adds	r3, r7, r3
 8001db0:	781b      	ldrb	r3, [r3, #0]
 8001db2:	0018      	movs	r0, r3
 8001db4:	46bd      	mov	sp, r7
 8001db6:	b005      	add	sp, #20
 8001db8:	bd90      	pop	{r4, r7, pc}
 8001dba:	46c0      	nop			@ (mov r8, r8)
 8001dbc:	2000001c 	.word	0x2000001c
 8001dc0:	20000014 	.word	0x20000014
 8001dc4:	20000018 	.word	0x20000018

08001dc8 <HAL_IncTick>:
 8001dc8:	b580      	push	{r7, lr}
 8001dca:	af00      	add	r7, sp, #0
 8001dcc:	4b05      	ldr	r3, [pc, #20]	@ (8001de4 <HAL_IncTick+0x1c>)
 8001dce:	781b      	ldrb	r3, [r3, #0]
 8001dd0:	001a      	movs	r2, r3
 8001dd2:	4b05      	ldr	r3, [pc, #20]	@ (8001de8 <HAL_IncTick+0x20>)
 8001dd4:	681b      	ldr	r3, [r3, #0]
 8001dd6:	18d2      	adds	r2, r2, r3
 8001dd8:	4b03      	ldr	r3, [pc, #12]	@ (8001de8 <HAL_IncTick+0x20>)
 8001dda:	601a      	str	r2, [r3, #0]
 8001ddc:	46c0      	nop			@ (mov r8, r8)
 8001dde:	46bd      	mov	sp, r7
 8001de0:	bd80      	pop	{r7, pc}
 8001de2:	46c0      	nop			@ (mov r8, r8)
 8001de4:	2000001c 	.word	0x2000001c
 8001de8:	2000060c 	.word	0x2000060c

08001dec <HAL_GetTick>:
 8001dec:	b580      	push	{r7, lr}
 8001dee:	af00      	add	r7, sp, #0
 8001df0:	4b02      	ldr	r3, [pc, #8]	@ (8001dfc <HAL_GetTick+0x10>)
 8001df2:	681b      	ldr	r3, [r3, #0]
 8001df4:	0018      	movs	r0, r3
 8001df6:	46bd      	mov	sp, r7
 8001df8:	bd80      	pop	{r7, pc}
 8001dfa:	46c0      	nop			@ (mov r8, r8)
 8001dfc:	2000060c 	.word	0x2000060c

08001e00 <HAL_Delay>:
 8001e00:	b580      	push	{r7, lr}
 8001e02:	b084      	sub	sp, #16
 8001e04:	af00      	add	r7, sp, #0
 8001e06:	6078      	str	r0, [r7, #4]
 8001e08:	f7ff fff0 	bl	8001dec <HAL_GetTick>
 8001e0c:	0003      	movs	r3, r0
 8001e0e:	60bb      	str	r3, [r7, #8]
 8001e10:	687b      	ldr	r3, [r7, #4]
 8001e12:	60fb      	str	r3, [r7, #12]
 8001e14:	68fb      	ldr	r3, [r7, #12]
 8001e16:	3301      	adds	r3, #1
 8001e18:	d005      	beq.n	8001e26 <HAL_Delay+0x26>
 8001e1a:	4b0a      	ldr	r3, [pc, #40]	@ (8001e44 <HAL_Delay+0x44>)
 8001e1c:	781b      	ldrb	r3, [r3, #0]
 8001e1e:	001a      	movs	r2, r3
 8001e20:	68fb      	ldr	r3, [r7, #12]
 8001e22:	189b      	adds	r3, r3, r2
 8001e24:	60fb      	str	r3, [r7, #12]
 8001e26:	46c0      	nop			@ (mov r8, r8)
 8001e28:	f7ff ffe0 	bl	8001dec <HAL_GetTick>
 8001e2c:	0002      	movs	r2, r0
 8001e2e:	68bb      	ldr	r3, [r7, #8]
 8001e30:	1ad3      	subs	r3, r2, r3
 8001e32:	68fa      	ldr	r2, [r7, #12]
 8001e34:	429a      	cmp	r2, r3
 8001e36:	d8f7      	bhi.n	8001e28 <HAL_Delay+0x28>
 8001e38:	46c0      	nop			@ (mov r8, r8)
 8001e3a:	46c0      	nop			@ (mov r8, r8)
 8001e3c:	46bd      	mov	sp, r7
 8001e3e:	b004      	add	sp, #16
 8001e40:	bd80      	pop	{r7, pc}
 8001e42:	46c0      	nop			@ (mov r8, r8)
 8001e44:	2000001c 	.word	0x2000001c

08001e48 <__NVIC_EnableIRQ>:
 8001e48:	b580      	push	{r7, lr}
 8001e4a:	b082      	sub	sp, #8
 8001e4c:	af00      	add	r7, sp, #0
 8001e4e:	0002      	movs	r2, r0
 8001e50:	1dfb      	adds	r3, r7, #7
 8001e52:	701a      	strb	r2, [r3, #0]
 8001e54:	1dfb      	adds	r3, r7, #7
 8001e56:	781b      	ldrb	r3, [r3, #0]
 8001e58:	2b7f      	cmp	r3, #127	@ 0x7f
 8001e5a:	d809      	bhi.n	8001e70 <__NVIC_EnableIRQ+0x28>
 8001e5c:	1dfb      	adds	r3, r7, #7
 8001e5e:	781b      	ldrb	r3, [r3, #0]
 8001e60:	001a      	movs	r2, r3
 8001e62:	231f      	movs	r3, #31
 8001e64:	401a      	ands	r2, r3
 8001e66:	4b04      	ldr	r3, [pc, #16]	@ (8001e78 <__NVIC_EnableIRQ+0x30>)
 8001e68:	2101      	movs	r1, #1
 8001e6a:	4091      	lsls	r1, r2
 8001e6c:	000a      	movs	r2, r1
 8001e6e:	601a      	str	r2, [r3, #0]
 8001e70:	46c0      	nop			@ (mov r8, r8)
 8001e72:	46bd      	mov	sp, r7
 8001e74:	b002      	add	sp, #8
 8001e76:	bd80      	pop	{r7, pc}
 8001e78:	e000e100 	.word	0xe000e100

08001e7c <__NVIC_SetPriority>:
 8001e7c:	b590      	push	{r4, r7, lr}
 8001e7e:	b083      	sub	sp, #12
 8001e80:	af00      	add	r7, sp, #0
 8001e82:	0002      	movs	r2, r0
 8001e84:	6039      	str	r1, [r7, #0]
 8001e86:	1dfb      	adds	r3, r7, #7
 8001e88:	701a      	strb	r2, [r3, #0]
 8001e8a:	1dfb      	adds	r3, r7, #7
 8001e8c:	781b      	ldrb	r3, [r3, #0]
 8001e8e:	2b7f      	cmp	r3, #127	@ 0x7f
 8001e90:	d828      	bhi.n	8001ee4 <__NVIC_SetPriority+0x68>
 8001e92:	4a2f      	ldr	r2, [pc, #188]	@ (8001f50 <__NVIC_SetPriority+0xd4>)
 8001e94:	1dfb      	adds	r3, r7, #7
 8001e96:	781b      	ldrb	r3, [r3, #0]
 8001e98:	b25b      	sxtb	r3, r3
 8001e9a:	089b      	lsrs	r3, r3, #2
 8001e9c:	33c0      	adds	r3, #192	@ 0xc0
 8001e9e:	009b      	lsls	r3, r3, #2
 8001ea0:	589b      	ldr	r3, [r3, r2]
 8001ea2:	1dfa      	adds	r2, r7, #7
 8001ea4:	7812      	ldrb	r2, [r2, #0]
 8001ea6:	0011      	movs	r1, r2
 8001ea8:	2203      	movs	r2, #3
 8001eaa:	400a      	ands	r2, r1
 8001eac:	00d2      	lsls	r2, r2, #3
 8001eae:	21ff      	movs	r1, #255	@ 0xff
 8001eb0:	4091      	lsls	r1, r2
 8001eb2:	000a      	movs	r2, r1
 8001eb4:	43d2      	mvns	r2, r2
 8001eb6:	401a      	ands	r2, r3
 8001eb8:	0011      	movs	r1, r2
 8001eba:	683b      	ldr	r3, [r7, #0]
 8001ebc:	019b      	lsls	r3, r3, #6
 8001ebe:	22ff      	movs	r2, #255	@ 0xff
 8001ec0:	401a      	ands	r2, r3
 8001ec2:	1dfb      	adds	r3, r7, #7
 8001ec4:	781b      	ldrb	r3, [r3, #0]
 8001ec6:	0018      	movs	r0, r3
 8001ec8:	2303      	movs	r3, #3
 8001eca:	4003      	ands	r3, r0
 8001ecc:	00db      	lsls	r3, r3, #3
 8001ece:	409a      	lsls	r2, r3
 8001ed0:	481f      	ldr	r0, [pc, #124]	@ (8001f50 <__NVIC_SetPriority+0xd4>)
 8001ed2:	1dfb      	adds	r3, r7, #7
 8001ed4:	781b      	ldrb	r3, [r3, #0]
 8001ed6:	b25b      	sxtb	r3, r3
 8001ed8:	089b      	lsrs	r3, r3, #2
 8001eda:	430a      	orrs	r2, r1
 8001edc:	33c0      	adds	r3, #192	@ 0xc0
 8001ede:	009b      	lsls	r3, r3, #2
 8001ee0:	501a      	str	r2, [r3, r0]
 8001ee2:	e031      	b.n	8001f48 <__NVIC_SetPriority+0xcc>
 8001ee4:	4a1b      	ldr	r2, [pc, #108]	@ (8001f54 <__NVIC_SetPriority+0xd8>)
 8001ee6:	1dfb      	adds	r3, r7, #7
 8001ee8:	781b      	ldrb	r3, [r3, #0]
 8001eea:	0019      	movs	r1, r3
 8001eec:	230f      	movs	r3, #15
 8001eee:	400b      	ands	r3, r1
 8001ef0:	3b08      	subs	r3, #8
 8001ef2:	089b      	lsrs	r3, r3, #2
 8001ef4:	3306      	adds	r3, #6
 8001ef6:	009b      	lsls	r3, r3, #2
 8001ef8:	18d3      	adds	r3, r2, r3
 8001efa:	3304      	adds	r3, #4
 8001efc:	681b      	ldr	r3, [r3, #0]
 8001efe:	1dfa      	adds	r2, r7, #7
 8001f00:	7812      	ldrb	r2, [r2, #0]
 8001f02:	0011      	movs	r1, r2
 8001f04:	2203      	movs	r2, #3
 8001f06:	400a      	ands	r2, r1
 8001f08:	00d2      	lsls	r2, r2, #3
 8001f0a:	21ff      	movs	r1, #255	@ 0xff
 8001f0c:	4091      	lsls	r1, r2
 8001f0e:	000a      	movs	r2, r1
 8001f10:	43d2      	mvns	r2, r2
 8001f12:	401a      	ands	r2, r3
 8001f14:	0011      	movs	r1, r2
 8001f16:	683b      	ldr	r3, [r7, #0]
 8001f18:	019b      	lsls	r3, r3, #6
 8001f1a:	22ff      	movs	r2, #255	@ 0xff
 8001f1c:	401a      	ands	r2, r3
 8001f1e:	1dfb      	adds	r3, r7, #7
 8001f20:	781b      	ldrb	r3, [r3, #0]
 8001f22:	0018      	movs	r0, r3
 8001f24:	2303      	movs	r3, #3
 8001f26:	4003      	ands	r3, r0
 8001f28:	00db      	lsls	r3, r3, #3
 8001f2a:	409a      	lsls	r2, r3
 8001f2c:	4809      	ldr	r0, [pc, #36]	@ (8001f54 <__NVIC_SetPriority+0xd8>)
 8001f2e:	1dfb      	adds	r3, r7, #7
 8001f30:	781b      	ldrb	r3, [r3, #0]
 8001f32:	001c      	movs	r4, r3
 8001f34:	230f      	movs	r3, #15
 8001f36:	4023      	ands	r3, r4
 8001f38:	3b08      	subs	r3, #8
 8001f3a:	089b      	lsrs	r3, r3, #2
 8001f3c:	430a      	orrs	r2, r1
 8001f3e:	3306      	adds	r3, #6
 8001f40:	009b      	lsls	r3, r3, #2
 8001f42:	18c3      	adds	r3, r0, r3
 8001f44:	3304      	adds	r3, #4
 8001f46:	601a      	str	r2, [r3, #0]
 8001f48:	46c0      	nop			@ (mov r8, r8)
 8001f4a:	46bd      	mov	sp, r7
 8001f4c:	b003      	add	sp, #12
 8001f4e:	bd90      	pop	{r4, r7, pc}
 8001f50:	e000e100 	.word	0xe000e100
 8001f54:	e000ed00 	.word	0xe000ed00

08001f58 <SysTick_Config>:
 8001f58:	b580      	push	{r7, lr}
 8001f5a:	b082      	sub	sp, #8
 8001f5c:	af00      	add	r7, sp, #0
 8001f5e:	6078      	str	r0, [r7, #4]
 8001f60:	687b      	ldr	r3, [r7, #4]
 8001f62:	1e5a      	subs	r2, r3, #1
 8001f64:	2380      	movs	r3, #128	@ 0x80
 8001f66:	045b      	lsls	r3, r3, #17
 8001f68:	429a      	cmp	r2, r3
 8001f6a:	d301      	bcc.n	8001f70 <SysTick_Config+0x18>
 8001f6c:	2301      	movs	r3, #1
 8001f6e:	e010      	b.n	8001f92 <SysTick_Config+0x3a>
 8001f70:	4b0a      	ldr	r3, [pc, #40]	@ (8001f9c <SysTick_Config+0x44>)
 8001f72:	687a      	ldr	r2, [r7, #4]
 8001f74:	3a01      	subs	r2, #1
 8001f76:	605a      	str	r2, [r3, #4]
 8001f78:	2301      	movs	r3, #1
 8001f7a:	425b      	negs	r3, r3
 8001f7c:	2103      	movs	r1, #3
 8001f7e:	0018      	movs	r0, r3
 8001f80:	f7ff ff7c 	bl	8001e7c <__NVIC_SetPriority>
 8001f84:	4b05      	ldr	r3, [pc, #20]	@ (8001f9c <SysTick_Config+0x44>)
 8001f86:	2200      	movs	r2, #0
 8001f88:	609a      	str	r2, [r3, #8]
 8001f8a:	4b04      	ldr	r3, [pc, #16]	@ (8001f9c <SysTick_Config+0x44>)
 8001f8c:	2207      	movs	r2, #7
 8001f8e:	601a      	str	r2, [r3, #0]
 8001f90:	2300      	movs	r3, #0
 8001f92:	0018      	movs	r0, r3
 8001f94:	46bd      	mov	sp, r7
 8001f96:	b002      	add	sp, #8
 8001f98:	bd80      	pop	{r7, pc}
 8001f9a:	46c0      	nop			@ (mov r8, r8)
 8001f9c:	e000e010 	.word	0xe000e010

08001fa0 <HAL_NVIC_SetPriority>:
 8001fa0:	b580      	push	{r7, lr}
 8001fa2:	b084      	sub	sp, #16
 8001fa4:	af00      	add	r7, sp, #0
 8001fa6:	60b9      	str	r1, [r7, #8]
 8001fa8:	607a      	str	r2, [r7, #4]
 8001faa:	210f      	movs	r1, #15
 8001fac:	187b      	adds	r3, r7, r1
 8001fae:	1c02      	adds	r2, r0, #0
 8001fb0:	701a      	strb	r2, [r3, #0]
 8001fb2:	68ba      	ldr	r2, [r7, #8]
 8001fb4:	187b      	adds	r3, r7, r1
 8001fb6:	781b      	ldrb	r3, [r3, #0]
 8001fb8:	b25b      	sxtb	r3, r3
 8001fba:	0011      	movs	r1, r2
 8001fbc:	0018      	movs	r0, r3
 8001fbe:	f7ff ff5d 	bl	8001e7c <__NVIC_SetPriority>
 8001fc2:	46c0      	nop			@ (mov r8, r8)
 8001fc4:	46bd      	mov	sp, r7
 8001fc6:	b004      	add	sp, #16
 8001fc8:	bd80      	pop	{r7, pc}

08001fca <HAL_NVIC_EnableIRQ>:
 8001fca:	b580      	push	{r7, lr}
 8001fcc:	b082      	sub	sp, #8
 8001fce:	af00      	add	r7, sp, #0
 8001fd0:	0002      	movs	r2, r0
 8001fd2:	1dfb      	adds	r3, r7, #7
 8001fd4:	701a      	strb	r2, [r3, #0]
 8001fd6:	1dfb      	adds	r3, r7, #7
 8001fd8:	781b      	ldrb	r3, [r3, #0]
 8001fda:	b25b      	sxtb	r3, r3
 8001fdc:	0018      	movs	r0, r3
 8001fde:	f7ff ff33 	bl	8001e48 <__NVIC_EnableIRQ>
 8001fe2:	46c0      	nop			@ (mov r8, r8)
 8001fe4:	46bd      	mov	sp, r7
 8001fe6:	b002      	add	sp, #8
 8001fe8:	bd80      	pop	{r7, pc}

08001fea <HAL_SYSTICK_Config>:
 8001fea:	b580      	push	{r7, lr}
 8001fec:	b082      	sub	sp, #8
 8001fee:	af00      	add	r7, sp, #0
 8001ff0:	6078      	str	r0, [r7, #4]
 8001ff2:	687b      	ldr	r3, [r7, #4]
 8001ff4:	0018      	movs	r0, r3
 8001ff6:	f7ff ffaf 	bl	8001f58 <SysTick_Config>
 8001ffa:	0003      	movs	r3, r0
 8001ffc:	0018      	movs	r0, r3
 8001ffe:	46bd      	mov	sp, r7
 8002000:	b002      	add	sp, #8
 8002002:	bd80      	pop	{r7, pc}

08002004 <HAL_FLASH_Program>:
 8002004:	b5b0      	push	{r4, r5, r7, lr}
 8002006:	b086      	sub	sp, #24
 8002008:	af00      	add	r7, sp, #0
 800200a:	60f8      	str	r0, [r7, #12]
 800200c:	60b9      	str	r1, [r7, #8]
 800200e:	603a      	str	r2, [r7, #0]
 8002010:	607b      	str	r3, [r7, #4]
 8002012:	4b21      	ldr	r3, [pc, #132]	@ (8002098 <HAL_FLASH_Program+0x94>)
 8002014:	781b      	ldrb	r3, [r3, #0]
 8002016:	2b01      	cmp	r3, #1
 8002018:	d101      	bne.n	800201e <HAL_FLASH_Program+0x1a>
 800201a:	2302      	movs	r3, #2
 800201c:	e038      	b.n	8002090 <HAL_FLASH_Program+0x8c>
 800201e:	4b1e      	ldr	r3, [pc, #120]	@ (8002098 <HAL_FLASH_Program+0x94>)
 8002020:	2201      	movs	r2, #1
 8002022:	701a      	strb	r2, [r3, #0]
 8002024:	4b1c      	ldr	r3, [pc, #112]	@ (8002098 <HAL_FLASH_Program+0x94>)
 8002026:	2200      	movs	r2, #0
 8002028:	605a      	str	r2, [r3, #4]
 800202a:	2517      	movs	r5, #23
 800202c:	197c      	adds	r4, r7, r5
 800202e:	23fa      	movs	r3, #250	@ 0xfa
 8002030:	009b      	lsls	r3, r3, #2
 8002032:	0018      	movs	r0, r3
 8002034:	f000 f87a 	bl	800212c <FLASH_WaitForLastOperation>
 8002038:	0003      	movs	r3, r0
 800203a:	7023      	strb	r3, [r4, #0]
 800203c:	197b      	adds	r3, r7, r5
 800203e:	781b      	ldrb	r3, [r3, #0]
 8002040:	2b00      	cmp	r3, #0
 8002042:	d11f      	bne.n	8002084 <HAL_FLASH_Program+0x80>
 8002044:	68fb      	ldr	r3, [r7, #12]
 8002046:	2b01      	cmp	r3, #1
 8002048:	d106      	bne.n	8002058 <HAL_FLASH_Program+0x54>
 800204a:	683a      	ldr	r2, [r7, #0]
 800204c:	687b      	ldr	r3, [r7, #4]
 800204e:	68b9      	ldr	r1, [r7, #8]
 8002050:	0008      	movs	r0, r1
 8002052:	f000 f8b9 	bl	80021c8 <FLASH_Program_DoubleWord>
 8002056:	e005      	b.n	8002064 <HAL_FLASH_Program+0x60>
 8002058:	683a      	ldr	r2, [r7, #0]
 800205a:	68bb      	ldr	r3, [r7, #8]
 800205c:	0011      	movs	r1, r2
 800205e:	0018      	movs	r0, r3
 8002060:	f002 fd26 	bl	8004ab0 <__FLASH_Program_Fast_veneer>
 8002064:	2317      	movs	r3, #23
 8002066:	18fc      	adds	r4, r7, r3
 8002068:	23fa      	movs	r3, #250	@ 0xfa
 800206a:	009b      	lsls	r3, r3, #2
 800206c:	0018      	movs	r0, r3
 800206e:	f000 f85d 	bl	800212c <FLASH_WaitForLastOperation>
 8002072:	0003      	movs	r3, r0
 8002074:	7023      	strb	r3, [r4, #0]
 8002076:	4b09      	ldr	r3, [pc, #36]	@ (800209c <HAL_FLASH_Program+0x98>)
 8002078:	695a      	ldr	r2, [r3, #20]
 800207a:	68fb      	ldr	r3, [r7, #12]
 800207c:	43d9      	mvns	r1, r3
 800207e:	4b07      	ldr	r3, [pc, #28]	@ (800209c <HAL_FLASH_Program+0x98>)
 8002080:	400a      	ands	r2, r1
 8002082:	615a      	str	r2, [r3, #20]
 8002084:	4b04      	ldr	r3, [pc, #16]	@ (8002098 <HAL_FLASH_Program+0x94>)
 8002086:	2200      	movs	r2, #0
 8002088:	701a      	strb	r2, [r3, #0]
 800208a:	2317      	movs	r3, #23
 800208c:	18fb      	adds	r3, r7, r3
 800208e:	781b      	ldrb	r3, [r3, #0]
 8002090:	0018      	movs	r0, r3
 8002092:	46bd      	mov	sp, r7
 8002094:	b006      	add	sp, #24
 8002096:	bdb0      	pop	{r4, r5, r7, pc}
 8002098:	20000610 	.word	0x20000610
 800209c:	40022000 	.word	0x40022000

080020a0 <HAL_FLASH_Unlock>:
 80020a0:	b580      	push	{r7, lr}
 80020a2:	b082      	sub	sp, #8
 80020a4:	af00      	add	r7, sp, #0
 80020a6:	1dfb      	adds	r3, r7, #7
 80020a8:	2200      	movs	r2, #0
 80020aa:	701a      	strb	r2, [r3, #0]
 80020ac:	4b0b      	ldr	r3, [pc, #44]	@ (80020dc <HAL_FLASH_Unlock+0x3c>)
 80020ae:	695b      	ldr	r3, [r3, #20]
 80020b0:	2b00      	cmp	r3, #0
 80020b2:	da0c      	bge.n	80020ce <HAL_FLASH_Unlock+0x2e>
 80020b4:	4b09      	ldr	r3, [pc, #36]	@ (80020dc <HAL_FLASH_Unlock+0x3c>)
 80020b6:	4a0a      	ldr	r2, [pc, #40]	@ (80020e0 <HAL_FLASH_Unlock+0x40>)
 80020b8:	609a      	str	r2, [r3, #8]
 80020ba:	4b08      	ldr	r3, [pc, #32]	@ (80020dc <HAL_FLASH_Unlock+0x3c>)
 80020bc:	4a09      	ldr	r2, [pc, #36]	@ (80020e4 <HAL_FLASH_Unlock+0x44>)
 80020be:	609a      	str	r2, [r3, #8]
 80020c0:	4b06      	ldr	r3, [pc, #24]	@ (80020dc <HAL_FLASH_Unlock+0x3c>)
 80020c2:	695b      	ldr	r3, [r3, #20]
 80020c4:	2b00      	cmp	r3, #0
 80020c6:	da02      	bge.n	80020ce <HAL_FLASH_Unlock+0x2e>
 80020c8:	1dfb      	adds	r3, r7, #7
 80020ca:	2201      	movs	r2, #1
 80020cc:	701a      	strb	r2, [r3, #0]
 80020ce:	1dfb      	adds	r3, r7, #7
 80020d0:	781b      	ldrb	r3, [r3, #0]
 80020d2:	0018      	movs	r0, r3
 80020d4:	46bd      	mov	sp, r7
 80020d6:	b002      	add	sp, #8
 80020d8:	bd80      	pop	{r7, pc}
 80020da:	46c0      	nop			@ (mov r8, r8)
 80020dc:	40022000 	.word	0x40022000
 80020e0:	45670123 	.word	0x45670123
 80020e4:	cdef89ab 	.word	0xcdef89ab

080020e8 <HAL_FLASH_Lock>:
 80020e8:	b580      	push	{r7, lr}
 80020ea:	b082      	sub	sp, #8
 80020ec:	af00      	add	r7, sp, #0
 80020ee:	1dfb      	adds	r3, r7, #7
 80020f0:	2201      	movs	r2, #1
 80020f2:	701a      	strb	r2, [r3, #0]
 80020f4:	23fa      	movs	r3, #250	@ 0xfa
 80020f6:	009b      	lsls	r3, r3, #2
 80020f8:	0018      	movs	r0, r3
 80020fa:	f000 f817 	bl	800212c <FLASH_WaitForLastOperation>
 80020fe:	4b0a      	ldr	r3, [pc, #40]	@ (8002128 <HAL_FLASH_Lock+0x40>)
 8002100:	695a      	ldr	r2, [r3, #20]
 8002102:	4b09      	ldr	r3, [pc, #36]	@ (8002128 <HAL_FLASH_Lock+0x40>)
 8002104:	2180      	movs	r1, #128	@ 0x80
 8002106:	0609      	lsls	r1, r1, #24
 8002108:	430a      	orrs	r2, r1
 800210a:	615a      	str	r2, [r3, #20]
 800210c:	4b06      	ldr	r3, [pc, #24]	@ (8002128 <HAL_FLASH_Lock+0x40>)
 800210e:	695b      	ldr	r3, [r3, #20]
 8002110:	2b00      	cmp	r3, #0
 8002112:	da02      	bge.n	800211a <HAL_FLASH_Lock+0x32>
 8002114:	1dfb      	adds	r3, r7, #7
 8002116:	2200      	movs	r2, #0
 8002118:	701a      	strb	r2, [r3, #0]
 800211a:	1dfb      	adds	r3, r7, #7
 800211c:	781b      	ldrb	r3, [r3, #0]
 800211e:	0018      	movs	r0, r3
 8002120:	46bd      	mov	sp, r7
 8002122:	b002      	add	sp, #8
 8002124:	bd80      	pop	{r7, pc}
 8002126:	46c0      	nop			@ (mov r8, r8)
 8002128:	40022000 	.word	0x40022000

0800212c <FLASH_WaitForLastOperation>:
 800212c:	b580      	push	{r7, lr}
 800212e:	b084      	sub	sp, #16
 8002130:	af00      	add	r7, sp, #0
 8002132:	6078      	str	r0, [r7, #4]
 8002134:	f7ff fe5a 	bl	8001dec <HAL_GetTick>
 8002138:	0003      	movs	r3, r0
 800213a:	60fb      	str	r3, [r7, #12]
 800213c:	2380      	movs	r3, #128	@ 0x80
 800213e:	025b      	lsls	r3, r3, #9
 8002140:	60bb      	str	r3, [r7, #8]
 8002142:	e00c      	b.n	800215e <FLASH_WaitForLastOperation+0x32>
 8002144:	687b      	ldr	r3, [r7, #4]
 8002146:	3301      	adds	r3, #1
 8002148:	d009      	beq.n	800215e <FLASH_WaitForLastOperation+0x32>
 800214a:	f7ff fe4f 	bl	8001dec <HAL_GetTick>
 800214e:	0002      	movs	r2, r0
 8002150:	68fb      	ldr	r3, [r7, #12]
 8002152:	1ad3      	subs	r3, r2, r3
 8002154:	687a      	ldr	r2, [r7, #4]
 8002156:	429a      	cmp	r2, r3
 8002158:	d801      	bhi.n	800215e <FLASH_WaitForLastOperation+0x32>
 800215a:	2303      	movs	r3, #3
 800215c:	e028      	b.n	80021b0 <FLASH_WaitForLastOperation+0x84>
 800215e:	4b16      	ldr	r3, [pc, #88]	@ (80021b8 <FLASH_WaitForLastOperation+0x8c>)
 8002160:	691b      	ldr	r3, [r3, #16]
 8002162:	68ba      	ldr	r2, [r7, #8]
 8002164:	4013      	ands	r3, r2
 8002166:	d1ed      	bne.n	8002144 <FLASH_WaitForLastOperation+0x18>
 8002168:	4b13      	ldr	r3, [pc, #76]	@ (80021b8 <FLASH_WaitForLastOperation+0x8c>)
 800216a:	691b      	ldr	r3, [r3, #16]
 800216c:	4a13      	ldr	r2, [pc, #76]	@ (80021bc <FLASH_WaitForLastOperation+0x90>)
 800216e:	4013      	ands	r3, r2
 8002170:	60bb      	str	r3, [r7, #8]
 8002172:	4b11      	ldr	r3, [pc, #68]	@ (80021b8 <FLASH_WaitForLastOperation+0x8c>)
 8002174:	4a12      	ldr	r2, [pc, #72]	@ (80021c0 <FLASH_WaitForLastOperation+0x94>)
 8002176:	611a      	str	r2, [r3, #16]
 8002178:	68bb      	ldr	r3, [r7, #8]
 800217a:	2b00      	cmp	r3, #0
 800217c:	d011      	beq.n	80021a2 <FLASH_WaitForLastOperation+0x76>
 800217e:	4b11      	ldr	r3, [pc, #68]	@ (80021c4 <FLASH_WaitForLastOperation+0x98>)
 8002180:	68ba      	ldr	r2, [r7, #8]
 8002182:	605a      	str	r2, [r3, #4]
 8002184:	2301      	movs	r3, #1
 8002186:	e013      	b.n	80021b0 <FLASH_WaitForLastOperation+0x84>
 8002188:	687b      	ldr	r3, [r7, #4]
 800218a:	3301      	adds	r3, #1
 800218c:	d009      	beq.n	80021a2 <FLASH_WaitForLastOperation+0x76>
 800218e:	f7ff fe2d 	bl	8001dec <HAL_GetTick>
 8002192:	0002      	movs	r2, r0
 8002194:	68fb      	ldr	r3, [r7, #12]
 8002196:	1ad3      	subs	r3, r2, r3
 8002198:	687a      	ldr	r2, [r7, #4]
 800219a:	429a      	cmp	r2, r3
 800219c:	d801      	bhi.n	80021a2 <FLASH_WaitForLastOperation+0x76>
 800219e:	2303      	movs	r3, #3
 80021a0:	e006      	b.n	80021b0 <FLASH_WaitForLastOperation+0x84>
 80021a2:	4b05      	ldr	r3, [pc, #20]	@ (80021b8 <FLASH_WaitForLastOperation+0x8c>)
 80021a4:	691a      	ldr	r2, [r3, #16]
 80021a6:	2380      	movs	r3, #128	@ 0x80
 80021a8:	02db      	lsls	r3, r3, #11
 80021aa:	4013      	ands	r3, r2
 80021ac:	d1ec      	bne.n	8002188 <FLASH_WaitForLastOperation+0x5c>
 80021ae:	2300      	movs	r3, #0
 80021b0:	0018      	movs	r0, r3
 80021b2:	46bd      	mov	sp, r7
 80021b4:	b004      	add	sp, #16
 80021b6:	bd80      	pop	{r7, pc}
 80021b8:	40022000 	.word	0x40022000
 80021bc:	000083fa 	.word	0x000083fa
 80021c0:	000083fb 	.word	0x000083fb
 80021c4:	20000610 	.word	0x20000610

080021c8 <FLASH_Program_DoubleWord>:
 80021c8:	b5b0      	push	{r4, r5, r7, lr}
 80021ca:	b084      	sub	sp, #16
 80021cc:	af00      	add	r7, sp, #0
 80021ce:	60f8      	str	r0, [r7, #12]
 80021d0:	603a      	str	r2, [r7, #0]
 80021d2:	607b      	str	r3, [r7, #4]
 80021d4:	4b0b      	ldr	r3, [pc, #44]	@ (8002204 <FLASH_Program_DoubleWord+0x3c>)
 80021d6:	695a      	ldr	r2, [r3, #20]
 80021d8:	4b0a      	ldr	r3, [pc, #40]	@ (8002204 <FLASH_Program_DoubleWord+0x3c>)
 80021da:	2101      	movs	r1, #1
 80021dc:	430a      	orrs	r2, r1
 80021de:	615a      	str	r2, [r3, #20]
 80021e0:	68fb      	ldr	r3, [r7, #12]
 80021e2:	683a      	ldr	r2, [r7, #0]
 80021e4:	601a      	str	r2, [r3, #0]
 80021e6:	f3bf 8f6f 	isb	sy
 80021ea:	46c0      	nop			@ (mov r8, r8)
 80021ec:	687b      	ldr	r3, [r7, #4]
 80021ee:	001c      	movs	r4, r3
 80021f0:	2300      	movs	r3, #0
 80021f2:	001d      	movs	r5, r3
 80021f4:	68fb      	ldr	r3, [r7, #12]
 80021f6:	3304      	adds	r3, #4
 80021f8:	0022      	movs	r2, r4
 80021fa:	601a      	str	r2, [r3, #0]
 80021fc:	46c0      	nop			@ (mov r8, r8)
 80021fe:	46bd      	mov	sp, r7
 8002200:	b004      	add	sp, #16
 8002202:	bdb0      	pop	{r4, r5, r7, pc}
 8002204:	40022000 	.word	0x40022000

08002208 <HAL_FLASHEx_Erase>:
 8002208:	b5b0      	push	{r4, r5, r7, lr}
 800220a:	b084      	sub	sp, #16
 800220c:	af00      	add	r7, sp, #0
 800220e:	6078      	str	r0, [r7, #4]
 8002210:	6039      	str	r1, [r7, #0]
 8002212:	4b35      	ldr	r3, [pc, #212]	@ (80022e8 <HAL_FLASHEx_Erase+0xe0>)
 8002214:	781b      	ldrb	r3, [r3, #0]
 8002216:	2b01      	cmp	r3, #1
 8002218:	d101      	bne.n	800221e <HAL_FLASHEx_Erase+0x16>
 800221a:	2302      	movs	r3, #2
 800221c:	e05f      	b.n	80022de <HAL_FLASHEx_Erase+0xd6>
 800221e:	4b32      	ldr	r3, [pc, #200]	@ (80022e8 <HAL_FLASHEx_Erase+0xe0>)
 8002220:	2201      	movs	r2, #1
 8002222:	701a      	strb	r2, [r3, #0]
 8002224:	4b30      	ldr	r3, [pc, #192]	@ (80022e8 <HAL_FLASHEx_Erase+0xe0>)
 8002226:	2200      	movs	r2, #0
 8002228:	605a      	str	r2, [r3, #4]
 800222a:	250f      	movs	r5, #15
 800222c:	197c      	adds	r4, r7, r5
 800222e:	23fa      	movs	r3, #250	@ 0xfa
 8002230:	009b      	lsls	r3, r3, #2
 8002232:	0018      	movs	r0, r3
 8002234:	f7ff ff7a 	bl	800212c <FLASH_WaitForLastOperation>
 8002238:	0003      	movs	r3, r0
 800223a:	7023      	strb	r3, [r4, #0]
 800223c:	002c      	movs	r4, r5
 800223e:	193b      	adds	r3, r7, r4
 8002240:	781b      	ldrb	r3, [r3, #0]
 8002242:	2b00      	cmp	r3, #0
 8002244:	d145      	bne.n	80022d2 <HAL_FLASHEx_Erase+0xca>
 8002246:	687b      	ldr	r3, [r7, #4]
 8002248:	2204      	movs	r2, #4
 800224a:	605a      	str	r2, [r3, #4]
 800224c:	687b      	ldr	r3, [r7, #4]
 800224e:	681b      	ldr	r3, [r3, #0]
 8002250:	2b04      	cmp	r3, #4
 8002252:	d10d      	bne.n	8002270 <HAL_FLASHEx_Erase+0x68>
 8002254:	687b      	ldr	r3, [r7, #4]
 8002256:	685b      	ldr	r3, [r3, #4]
 8002258:	0018      	movs	r0, r3
 800225a:	f000 f849 	bl	80022f0 <FLASH_MassErase>
 800225e:	193c      	adds	r4, r7, r4
 8002260:	23fa      	movs	r3, #250	@ 0xfa
 8002262:	009b      	lsls	r3, r3, #2
 8002264:	0018      	movs	r0, r3
 8002266:	f7ff ff61 	bl	800212c <FLASH_WaitForLastOperation>
 800226a:	0003      	movs	r3, r0
 800226c:	7023      	strb	r3, [r4, #0]
 800226e:	e030      	b.n	80022d2 <HAL_FLASHEx_Erase+0xca>
 8002270:	683b      	ldr	r3, [r7, #0]
 8002272:	2201      	movs	r2, #1
 8002274:	4252      	negs	r2, r2
 8002276:	601a      	str	r2, [r3, #0]
 8002278:	687b      	ldr	r3, [r7, #4]
 800227a:	689b      	ldr	r3, [r3, #8]
 800227c:	60bb      	str	r3, [r7, #8]
 800227e:	e01a      	b.n	80022b6 <HAL_FLASHEx_Erase+0xae>
 8002280:	687b      	ldr	r3, [r7, #4]
 8002282:	685b      	ldr	r3, [r3, #4]
 8002284:	68ba      	ldr	r2, [r7, #8]
 8002286:	0011      	movs	r1, r2
 8002288:	0018      	movs	r0, r3
 800228a:	f000 f845 	bl	8002318 <FLASH_PageErase>
 800228e:	250f      	movs	r5, #15
 8002290:	197c      	adds	r4, r7, r5
 8002292:	23fa      	movs	r3, #250	@ 0xfa
 8002294:	009b      	lsls	r3, r3, #2
 8002296:	0018      	movs	r0, r3
 8002298:	f7ff ff48 	bl	800212c <FLASH_WaitForLastOperation>
 800229c:	0003      	movs	r3, r0
 800229e:	7023      	strb	r3, [r4, #0]
 80022a0:	197b      	adds	r3, r7, r5
 80022a2:	781b      	ldrb	r3, [r3, #0]
 80022a4:	2b00      	cmp	r3, #0
 80022a6:	d003      	beq.n	80022b0 <HAL_FLASHEx_Erase+0xa8>
 80022a8:	683b      	ldr	r3, [r7, #0]
 80022aa:	68ba      	ldr	r2, [r7, #8]
 80022ac:	601a      	str	r2, [r3, #0]
 80022ae:	e00a      	b.n	80022c6 <HAL_FLASHEx_Erase+0xbe>
 80022b0:	68bb      	ldr	r3, [r7, #8]
 80022b2:	3301      	adds	r3, #1
 80022b4:	60bb      	str	r3, [r7, #8]
 80022b6:	687b      	ldr	r3, [r7, #4]
 80022b8:	689a      	ldr	r2, [r3, #8]
 80022ba:	687b      	ldr	r3, [r7, #4]
 80022bc:	68db      	ldr	r3, [r3, #12]
 80022be:	18d3      	adds	r3, r2, r3
 80022c0:	68ba      	ldr	r2, [r7, #8]
 80022c2:	429a      	cmp	r2, r3
 80022c4:	d3dc      	bcc.n	8002280 <HAL_FLASHEx_Erase+0x78>
 80022c6:	4b09      	ldr	r3, [pc, #36]	@ (80022ec <HAL_FLASHEx_Erase+0xe4>)
 80022c8:	695a      	ldr	r2, [r3, #20]
 80022ca:	4b08      	ldr	r3, [pc, #32]	@ (80022ec <HAL_FLASHEx_Erase+0xe4>)
 80022cc:	2102      	movs	r1, #2
 80022ce:	438a      	bics	r2, r1
 80022d0:	615a      	str	r2, [r3, #20]
 80022d2:	4b05      	ldr	r3, [pc, #20]	@ (80022e8 <HAL_FLASHEx_Erase+0xe0>)
 80022d4:	2200      	movs	r2, #0
 80022d6:	701a      	strb	r2, [r3, #0]
 80022d8:	230f      	movs	r3, #15
 80022da:	18fb      	adds	r3, r7, r3
 80022dc:	781b      	ldrb	r3, [r3, #0]
 80022de:	0018      	movs	r0, r3
 80022e0:	46bd      	mov	sp, r7
 80022e2:	b004      	add	sp, #16
 80022e4:	bdb0      	pop	{r4, r5, r7, pc}
 80022e6:	46c0      	nop			@ (mov r8, r8)
 80022e8:	20000610 	.word	0x20000610
 80022ec:	40022000 	.word	0x40022000

080022f0 <FLASH_MassErase>:
 80022f0:	b580      	push	{r7, lr}
 80022f2:	b082      	sub	sp, #8
 80022f4:	af00      	add	r7, sp, #0
 80022f6:	6078      	str	r0, [r7, #4]
 80022f8:	4b06      	ldr	r3, [pc, #24]	@ (8002314 <FLASH_MassErase+0x24>)
 80022fa:	695a      	ldr	r2, [r3, #20]
 80022fc:	687b      	ldr	r3, [r7, #4]
 80022fe:	431a      	orrs	r2, r3
 8002300:	4b04      	ldr	r3, [pc, #16]	@ (8002314 <FLASH_MassErase+0x24>)
 8002302:	2180      	movs	r1, #128	@ 0x80
 8002304:	0249      	lsls	r1, r1, #9
 8002306:	430a      	orrs	r2, r1
 8002308:	615a      	str	r2, [r3, #20]
 800230a:	46c0      	nop			@ (mov r8, r8)
 800230c:	46bd      	mov	sp, r7
 800230e:	b002      	add	sp, #8
 8002310:	bd80      	pop	{r7, pc}
 8002312:	46c0      	nop			@ (mov r8, r8)
 8002314:	40022000 	.word	0x40022000

08002318 <FLASH_PageErase>:
 8002318:	b580      	push	{r7, lr}
 800231a:	b084      	sub	sp, #16
 800231c:	af00      	add	r7, sp, #0
 800231e:	6078      	str	r0, [r7, #4]
 8002320:	6039      	str	r1, [r7, #0]
 8002322:	4b08      	ldr	r3, [pc, #32]	@ (8002344 <FLASH_PageErase+0x2c>)
 8002324:	695b      	ldr	r3, [r3, #20]
 8002326:	4a08      	ldr	r2, [pc, #32]	@ (8002348 <FLASH_PageErase+0x30>)
 8002328:	4013      	ands	r3, r2
 800232a:	60fb      	str	r3, [r7, #12]
 800232c:	683b      	ldr	r3, [r7, #0]
 800232e:	00da      	lsls	r2, r3, #3
 8002330:	68fb      	ldr	r3, [r7, #12]
 8002332:	431a      	orrs	r2, r3
 8002334:	4b03      	ldr	r3, [pc, #12]	@ (8002344 <FLASH_PageErase+0x2c>)
 8002336:	4905      	ldr	r1, [pc, #20]	@ (800234c <FLASH_PageErase+0x34>)
 8002338:	430a      	orrs	r2, r1
 800233a:	615a      	str	r2, [r3, #20]
 800233c:	46c0      	nop			@ (mov r8, r8)
 800233e:	46bd      	mov	sp, r7
 8002340:	b004      	add	sp, #16
 8002342:	bd80      	pop	{r7, pc}
 8002344:	40022000 	.word	0x40022000
 8002348:	ffffe007 	.word	0xffffe007
 800234c:	00010002 	.word	0x00010002

08002350 <HAL_GPIO_Init>:
 8002350:	b580      	push	{r7, lr}
 8002352:	b086      	sub	sp, #24
 8002354:	af00      	add	r7, sp, #0
 8002356:	6078      	str	r0, [r7, #4]
 8002358:	6039      	str	r1, [r7, #0]
 800235a:	2300      	movs	r3, #0
 800235c:	617b      	str	r3, [r7, #20]
 800235e:	e147      	b.n	80025f0 <HAL_GPIO_Init+0x2a0>
 8002360:	683b      	ldr	r3, [r7, #0]
 8002362:	681b      	ldr	r3, [r3, #0]
 8002364:	2101      	movs	r1, #1
 8002366:	697a      	ldr	r2, [r7, #20]
 8002368:	4091      	lsls	r1, r2
 800236a:	000a      	movs	r2, r1
 800236c:	4013      	ands	r3, r2
 800236e:	60fb      	str	r3, [r7, #12]
 8002370:	68fb      	ldr	r3, [r7, #12]
 8002372:	2b00      	cmp	r3, #0
 8002374:	d100      	bne.n	8002378 <HAL_GPIO_Init+0x28>
 8002376:	e138      	b.n	80025ea <HAL_GPIO_Init+0x29a>
 8002378:	683b      	ldr	r3, [r7, #0]
 800237a:	685b      	ldr	r3, [r3, #4]
 800237c:	2203      	movs	r2, #3
 800237e:	4013      	ands	r3, r2
 8002380:	2b01      	cmp	r3, #1
 8002382:	d005      	beq.n	8002390 <HAL_GPIO_Init+0x40>
 8002384:	683b      	ldr	r3, [r7, #0]
 8002386:	685b      	ldr	r3, [r3, #4]
 8002388:	2203      	movs	r2, #3
 800238a:	4013      	ands	r3, r2
 800238c:	2b02      	cmp	r3, #2
 800238e:	d130      	bne.n	80023f2 <HAL_GPIO_Init+0xa2>
 8002390:	687b      	ldr	r3, [r7, #4]
 8002392:	689b      	ldr	r3, [r3, #8]
 8002394:	613b      	str	r3, [r7, #16]
 8002396:	697b      	ldr	r3, [r7, #20]
 8002398:	005b      	lsls	r3, r3, #1
 800239a:	2203      	movs	r2, #3
 800239c:	409a      	lsls	r2, r3
 800239e:	0013      	movs	r3, r2
 80023a0:	43da      	mvns	r2, r3
 80023a2:	693b      	ldr	r3, [r7, #16]
 80023a4:	4013      	ands	r3, r2
 80023a6:	613b      	str	r3, [r7, #16]
 80023a8:	683b      	ldr	r3, [r7, #0]
 80023aa:	68da      	ldr	r2, [r3, #12]
 80023ac:	697b      	ldr	r3, [r7, #20]
 80023ae:	005b      	lsls	r3, r3, #1
 80023b0:	409a      	lsls	r2, r3
 80023b2:	0013      	movs	r3, r2
 80023b4:	693a      	ldr	r2, [r7, #16]
 80023b6:	4313      	orrs	r3, r2
 80023b8:	613b      	str	r3, [r7, #16]
 80023ba:	687b      	ldr	r3, [r7, #4]
 80023bc:	693a      	ldr	r2, [r7, #16]
 80023be:	609a      	str	r2, [r3, #8]
 80023c0:	687b      	ldr	r3, [r7, #4]
 80023c2:	685b      	ldr	r3, [r3, #4]
 80023c4:	613b      	str	r3, [r7, #16]
 80023c6:	2201      	movs	r2, #1
 80023c8:	697b      	ldr	r3, [r7, #20]
 80023ca:	409a      	lsls	r2, r3
 80023cc:	0013      	movs	r3, r2
 80023ce:	43da      	mvns	r2, r3
 80023d0:	693b      	ldr	r3, [r7, #16]
 80023d2:	4013      	ands	r3, r2
 80023d4:	613b      	str	r3, [r7, #16]
 80023d6:	683b      	ldr	r3, [r7, #0]
 80023d8:	685b      	ldr	r3, [r3, #4]
 80023da:	091b      	lsrs	r3, r3, #4
 80023dc:	2201      	movs	r2, #1
 80023de:	401a      	ands	r2, r3
 80023e0:	697b      	ldr	r3, [r7, #20]
 80023e2:	409a      	lsls	r2, r3
 80023e4:	0013      	movs	r3, r2
 80023e6:	693a      	ldr	r2, [r7, #16]
 80023e8:	4313      	orrs	r3, r2
 80023ea:	613b      	str	r3, [r7, #16]
 80023ec:	687b      	ldr	r3, [r7, #4]
 80023ee:	693a      	ldr	r2, [r7, #16]
 80023f0:	605a      	str	r2, [r3, #4]
 80023f2:	683b      	ldr	r3, [r7, #0]
 80023f4:	685b      	ldr	r3, [r3, #4]
 80023f6:	2203      	movs	r2, #3
 80023f8:	4013      	ands	r3, r2
 80023fa:	2b03      	cmp	r3, #3
 80023fc:	d017      	beq.n	800242e <HAL_GPIO_Init+0xde>
 80023fe:	687b      	ldr	r3, [r7, #4]
 8002400:	68db      	ldr	r3, [r3, #12]
 8002402:	613b      	str	r3, [r7, #16]
 8002404:	697b      	ldr	r3, [r7, #20]
 8002406:	005b      	lsls	r3, r3, #1
 8002408:	2203      	movs	r2, #3
 800240a:	409a      	lsls	r2, r3
 800240c:	0013      	movs	r3, r2
 800240e:	43da      	mvns	r2, r3
 8002410:	693b      	ldr	r3, [r7, #16]
 8002412:	4013      	ands	r3, r2
 8002414:	613b      	str	r3, [r7, #16]
 8002416:	683b      	ldr	r3, [r7, #0]
 8002418:	689a      	ldr	r2, [r3, #8]
 800241a:	697b      	ldr	r3, [r7, #20]
 800241c:	005b      	lsls	r3, r3, #1
 800241e:	409a      	lsls	r2, r3
 8002420:	0013      	movs	r3, r2
 8002422:	693a      	ldr	r2, [r7, #16]
 8002424:	4313      	orrs	r3, r2
 8002426:	613b      	str	r3, [r7, #16]
 8002428:	687b      	ldr	r3, [r7, #4]
 800242a:	693a      	ldr	r2, [r7, #16]
 800242c:	60da      	str	r2, [r3, #12]
 800242e:	683b      	ldr	r3, [r7, #0]
 8002430:	685b      	ldr	r3, [r3, #4]
 8002432:	2203      	movs	r2, #3
 8002434:	4013      	ands	r3, r2
 8002436:	2b02      	cmp	r3, #2
 8002438:	d123      	bne.n	8002482 <HAL_GPIO_Init+0x132>
 800243a:	697b      	ldr	r3, [r7, #20]
 800243c:	08da      	lsrs	r2, r3, #3
 800243e:	687b      	ldr	r3, [r7, #4]
 8002440:	3208      	adds	r2, #8
 8002442:	0092      	lsls	r2, r2, #2
 8002444:	58d3      	ldr	r3, [r2, r3]
 8002446:	613b      	str	r3, [r7, #16]
 8002448:	697b      	ldr	r3, [r7, #20]
 800244a:	2207      	movs	r2, #7
 800244c:	4013      	ands	r3, r2
 800244e:	009b      	lsls	r3, r3, #2
 8002450:	220f      	movs	r2, #15
 8002452:	409a      	lsls	r2, r3
 8002454:	0013      	movs	r3, r2
 8002456:	43da      	mvns	r2, r3
 8002458:	693b      	ldr	r3, [r7, #16]
 800245a:	4013      	ands	r3, r2
 800245c:	613b      	str	r3, [r7, #16]
 800245e:	683b      	ldr	r3, [r7, #0]
 8002460:	691a      	ldr	r2, [r3, #16]
 8002462:	697b      	ldr	r3, [r7, #20]
 8002464:	2107      	movs	r1, #7
 8002466:	400b      	ands	r3, r1
 8002468:	009b      	lsls	r3, r3, #2
 800246a:	409a      	lsls	r2, r3
 800246c:	0013      	movs	r3, r2
 800246e:	693a      	ldr	r2, [r7, #16]
 8002470:	4313      	orrs	r3, r2
 8002472:	613b      	str	r3, [r7, #16]
 8002474:	697b      	ldr	r3, [r7, #20]
 8002476:	08da      	lsrs	r2, r3, #3
 8002478:	687b      	ldr	r3, [r7, #4]
 800247a:	3208      	adds	r2, #8
 800247c:	0092      	lsls	r2, r2, #2
 800247e:	6939      	ldr	r1, [r7, #16]
 8002480:	50d1      	str	r1, [r2, r3]
 8002482:	687b      	ldr	r3, [r7, #4]
 8002484:	681b      	ldr	r3, [r3, #0]
 8002486:	613b      	str	r3, [r7, #16]
 8002488:	697b      	ldr	r3, [r7, #20]
 800248a:	005b      	lsls	r3, r3, #1
 800248c:	2203      	movs	r2, #3
 800248e:	409a      	lsls	r2, r3
 8002490:	0013      	movs	r3, r2
 8002492:	43da      	mvns	r2, r3
 8002494:	693b      	ldr	r3, [r7, #16]
 8002496:	4013      	ands	r3, r2
 8002498:	613b      	str	r3, [r7, #16]
 800249a:	683b      	ldr	r3, [r7, #0]
 800249c:	685b      	ldr	r3, [r3, #4]
 800249e:	2203      	movs	r2, #3
 80024a0:	401a      	ands	r2, r3
 80024a2:	697b      	ldr	r3, [r7, #20]
 80024a4:	005b      	lsls	r3, r3, #1
 80024a6:	409a      	lsls	r2, r3
 80024a8:	0013      	movs	r3, r2
 80024aa:	693a      	ldr	r2, [r7, #16]
 80024ac:	4313      	orrs	r3, r2
 80024ae:	613b      	str	r3, [r7, #16]
 80024b0:	687b      	ldr	r3, [r7, #4]
 80024b2:	693a      	ldr	r2, [r7, #16]
 80024b4:	601a      	str	r2, [r3, #0]
 80024b6:	683b      	ldr	r3, [r7, #0]
 80024b8:	685a      	ldr	r2, [r3, #4]
 80024ba:	23c0      	movs	r3, #192	@ 0xc0
 80024bc:	029b      	lsls	r3, r3, #10
 80024be:	4013      	ands	r3, r2
 80024c0:	d100      	bne.n	80024c4 <HAL_GPIO_Init+0x174>
 80024c2:	e092      	b.n	80025ea <HAL_GPIO_Init+0x29a>
 80024c4:	4a50      	ldr	r2, [pc, #320]	@ (8002608 <HAL_GPIO_Init+0x2b8>)
 80024c6:	697b      	ldr	r3, [r7, #20]
 80024c8:	089b      	lsrs	r3, r3, #2
 80024ca:	3318      	adds	r3, #24
 80024cc:	009b      	lsls	r3, r3, #2
 80024ce:	589b      	ldr	r3, [r3, r2]
 80024d0:	613b      	str	r3, [r7, #16]
 80024d2:	697b      	ldr	r3, [r7, #20]
 80024d4:	2203      	movs	r2, #3
 80024d6:	4013      	ands	r3, r2
 80024d8:	00db      	lsls	r3, r3, #3
 80024da:	220f      	movs	r2, #15
 80024dc:	409a      	lsls	r2, r3
 80024de:	0013      	movs	r3, r2
 80024e0:	43da      	mvns	r2, r3
 80024e2:	693b      	ldr	r3, [r7, #16]
 80024e4:	4013      	ands	r3, r2
 80024e6:	613b      	str	r3, [r7, #16]
 80024e8:	687a      	ldr	r2, [r7, #4]
 80024ea:	23a0      	movs	r3, #160	@ 0xa0
 80024ec:	05db      	lsls	r3, r3, #23
 80024ee:	429a      	cmp	r2, r3
 80024f0:	d013      	beq.n	800251a <HAL_GPIO_Init+0x1ca>
 80024f2:	687b      	ldr	r3, [r7, #4]
 80024f4:	4a45      	ldr	r2, [pc, #276]	@ (800260c <HAL_GPIO_Init+0x2bc>)
 80024f6:	4293      	cmp	r3, r2
 80024f8:	d00d      	beq.n	8002516 <HAL_GPIO_Init+0x1c6>
 80024fa:	687b      	ldr	r3, [r7, #4]
 80024fc:	4a44      	ldr	r2, [pc, #272]	@ (8002610 <HAL_GPIO_Init+0x2c0>)
 80024fe:	4293      	cmp	r3, r2
 8002500:	d007      	beq.n	8002512 <HAL_GPIO_Init+0x1c2>
 8002502:	687b      	ldr	r3, [r7, #4]
 8002504:	4a43      	ldr	r2, [pc, #268]	@ (8002614 <HAL_GPIO_Init+0x2c4>)
 8002506:	4293      	cmp	r3, r2
 8002508:	d101      	bne.n	800250e <HAL_GPIO_Init+0x1be>
 800250a:	2303      	movs	r3, #3
 800250c:	e006      	b.n	800251c <HAL_GPIO_Init+0x1cc>
 800250e:	2305      	movs	r3, #5
 8002510:	e004      	b.n	800251c <HAL_GPIO_Init+0x1cc>
 8002512:	2302      	movs	r3, #2
 8002514:	e002      	b.n	800251c <HAL_GPIO_Init+0x1cc>
 8002516:	2301      	movs	r3, #1
 8002518:	e000      	b.n	800251c <HAL_GPIO_Init+0x1cc>
 800251a:	2300      	movs	r3, #0
 800251c:	697a      	ldr	r2, [r7, #20]
 800251e:	2103      	movs	r1, #3
 8002520:	400a      	ands	r2, r1
 8002522:	00d2      	lsls	r2, r2, #3
 8002524:	4093      	lsls	r3, r2
 8002526:	693a      	ldr	r2, [r7, #16]
 8002528:	4313      	orrs	r3, r2
 800252a:	613b      	str	r3, [r7, #16]
 800252c:	4936      	ldr	r1, [pc, #216]	@ (8002608 <HAL_GPIO_Init+0x2b8>)
 800252e:	697b      	ldr	r3, [r7, #20]
 8002530:	089b      	lsrs	r3, r3, #2
 8002532:	3318      	adds	r3, #24
 8002534:	009b      	lsls	r3, r3, #2
 8002536:	693a      	ldr	r2, [r7, #16]
 8002538:	505a      	str	r2, [r3, r1]
 800253a:	4b33      	ldr	r3, [pc, #204]	@ (8002608 <HAL_GPIO_Init+0x2b8>)
 800253c:	681b      	ldr	r3, [r3, #0]
 800253e:	613b      	str	r3, [r7, #16]
 8002540:	68fb      	ldr	r3, [r7, #12]
 8002542:	43da      	mvns	r2, r3
 8002544:	693b      	ldr	r3, [r7, #16]
 8002546:	4013      	ands	r3, r2
 8002548:	613b      	str	r3, [r7, #16]
 800254a:	683b      	ldr	r3, [r7, #0]
 800254c:	685a      	ldr	r2, [r3, #4]
 800254e:	2380      	movs	r3, #128	@ 0x80
 8002550:	035b      	lsls	r3, r3, #13
 8002552:	4013      	ands	r3, r2
 8002554:	d003      	beq.n	800255e <HAL_GPIO_Init+0x20e>
 8002556:	693a      	ldr	r2, [r7, #16]
 8002558:	68fb      	ldr	r3, [r7, #12]
 800255a:	4313      	orrs	r3, r2
 800255c:	613b      	str	r3, [r7, #16]
 800255e:	4b2a      	ldr	r3, [pc, #168]	@ (8002608 <HAL_GPIO_Init+0x2b8>)
 8002560:	693a      	ldr	r2, [r7, #16]
 8002562:	601a      	str	r2, [r3, #0]
 8002564:	4b28      	ldr	r3, [pc, #160]	@ (8002608 <HAL_GPIO_Init+0x2b8>)
 8002566:	685b      	ldr	r3, [r3, #4]
 8002568:	613b      	str	r3, [r7, #16]
 800256a:	68fb      	ldr	r3, [r7, #12]
 800256c:	43da      	mvns	r2, r3
 800256e:	693b      	ldr	r3, [r7, #16]
 8002570:	4013      	ands	r3, r2
 8002572:	613b      	str	r3, [r7, #16]
 8002574:	683b      	ldr	r3, [r7, #0]
 8002576:	685a      	ldr	r2, [r3, #4]
 8002578:	2380      	movs	r3, #128	@ 0x80
 800257a:	039b      	lsls	r3, r3, #14
 800257c:	4013      	ands	r3, r2
 800257e:	d003      	beq.n	8002588 <HAL_GPIO_Init+0x238>
 8002580:	693a      	ldr	r2, [r7, #16]
 8002582:	68fb      	ldr	r3, [r7, #12]
 8002584:	4313      	orrs	r3, r2
 8002586:	613b      	str	r3, [r7, #16]
 8002588:	4b1f      	ldr	r3, [pc, #124]	@ (8002608 <HAL_GPIO_Init+0x2b8>)
 800258a:	693a      	ldr	r2, [r7, #16]
 800258c:	605a      	str	r2, [r3, #4]
 800258e:	4a1e      	ldr	r2, [pc, #120]	@ (8002608 <HAL_GPIO_Init+0x2b8>)
 8002590:	2384      	movs	r3, #132	@ 0x84
 8002592:	58d3      	ldr	r3, [r2, r3]
 8002594:	613b      	str	r3, [r7, #16]
 8002596:	68fb      	ldr	r3, [r7, #12]
 8002598:	43da      	mvns	r2, r3
 800259a:	693b      	ldr	r3, [r7, #16]
 800259c:	4013      	ands	r3, r2
 800259e:	613b      	str	r3, [r7, #16]
 80025a0:	683b      	ldr	r3, [r7, #0]
 80025a2:	685a      	ldr	r2, [r3, #4]
 80025a4:	2380      	movs	r3, #128	@ 0x80
 80025a6:	029b      	lsls	r3, r3, #10
 80025a8:	4013      	ands	r3, r2
 80025aa:	d003      	beq.n	80025b4 <HAL_GPIO_Init+0x264>
 80025ac:	693a      	ldr	r2, [r7, #16]
 80025ae:	68fb      	ldr	r3, [r7, #12]
 80025b0:	4313      	orrs	r3, r2
 80025b2:	613b      	str	r3, [r7, #16]
 80025b4:	4914      	ldr	r1, [pc, #80]	@ (8002608 <HAL_GPIO_Init+0x2b8>)
 80025b6:	2284      	movs	r2, #132	@ 0x84
 80025b8:	693b      	ldr	r3, [r7, #16]
 80025ba:	508b      	str	r3, [r1, r2]
 80025bc:	4a12      	ldr	r2, [pc, #72]	@ (8002608 <HAL_GPIO_Init+0x2b8>)
 80025be:	2380      	movs	r3, #128	@ 0x80
 80025c0:	58d3      	ldr	r3, [r2, r3]
 80025c2:	613b      	str	r3, [r7, #16]
 80025c4:	68fb      	ldr	r3, [r7, #12]
 80025c6:	43da      	mvns	r2, r3
 80025c8:	693b      	ldr	r3, [r7, #16]
 80025ca:	4013      	ands	r3, r2
 80025cc:	613b      	str	r3, [r7, #16]
 80025ce:	683b      	ldr	r3, [r7, #0]
 80025d0:	685a      	ldr	r2, [r3, #4]
 80025d2:	2380      	movs	r3, #128	@ 0x80
 80025d4:	025b      	lsls	r3, r3, #9
 80025d6:	4013      	ands	r3, r2
 80025d8:	d003      	beq.n	80025e2 <HAL_GPIO_Init+0x292>
 80025da:	693a      	ldr	r2, [r7, #16]
 80025dc:	68fb      	ldr	r3, [r7, #12]
 80025de:	4313      	orrs	r3, r2
 80025e0:	613b      	str	r3, [r7, #16]
 80025e2:	4909      	ldr	r1, [pc, #36]	@ (8002608 <HAL_GPIO_Init+0x2b8>)
 80025e4:	2280      	movs	r2, #128	@ 0x80
 80025e6:	693b      	ldr	r3, [r7, #16]
 80025e8:	508b      	str	r3, [r1, r2]
 80025ea:	697b      	ldr	r3, [r7, #20]
 80025ec:	3301      	adds	r3, #1
 80025ee:	617b      	str	r3, [r7, #20]
 80025f0:	683b      	ldr	r3, [r7, #0]
 80025f2:	681a      	ldr	r2, [r3, #0]
 80025f4:	697b      	ldr	r3, [r7, #20]
 80025f6:	40da      	lsrs	r2, r3
 80025f8:	1e13      	subs	r3, r2, #0
 80025fa:	d000      	beq.n	80025fe <HAL_GPIO_Init+0x2ae>
 80025fc:	e6b0      	b.n	8002360 <HAL_GPIO_Init+0x10>
 80025fe:	46c0      	nop			@ (mov r8, r8)
 8002600:	46c0      	nop			@ (mov r8, r8)
 8002602:	46bd      	mov	sp, r7
 8002604:	b006      	add	sp, #24
 8002606:	bd80      	pop	{r7, pc}
 8002608:	40021800 	.word	0x40021800
 800260c:	50000400 	.word	0x50000400
 8002610:	50000800 	.word	0x50000800
 8002614:	50000c00 	.word	0x50000c00

08002618 <HAL_GPIO_ReadPin>:
 8002618:	b580      	push	{r7, lr}
 800261a:	b084      	sub	sp, #16
 800261c:	af00      	add	r7, sp, #0
 800261e:	6078      	str	r0, [r7, #4]
 8002620:	000a      	movs	r2, r1
 8002622:	1cbb      	adds	r3, r7, #2
 8002624:	801a      	strh	r2, [r3, #0]
 8002626:	687b      	ldr	r3, [r7, #4]
 8002628:	691b      	ldr	r3, [r3, #16]
 800262a:	1cba      	adds	r2, r7, #2
 800262c:	8812      	ldrh	r2, [r2, #0]
 800262e:	4013      	ands	r3, r2
 8002630:	d004      	beq.n	800263c <HAL_GPIO_ReadPin+0x24>
 8002632:	230f      	movs	r3, #15
 8002634:	18fb      	adds	r3, r7, r3
 8002636:	2201      	movs	r2, #1
 8002638:	701a      	strb	r2, [r3, #0]
 800263a:	e003      	b.n	8002644 <HAL_GPIO_ReadPin+0x2c>
 800263c:	230f      	movs	r3, #15
 800263e:	18fb      	adds	r3, r7, r3
 8002640:	2200      	movs	r2, #0
 8002642:	701a      	strb	r2, [r3, #0]
 8002644:	230f      	movs	r3, #15
 8002646:	18fb      	adds	r3, r7, r3
 8002648:	781b      	ldrb	r3, [r3, #0]
 800264a:	0018      	movs	r0, r3
 800264c:	46bd      	mov	sp, r7
 800264e:	b004      	add	sp, #16
 8002650:	bd80      	pop	{r7, pc}

08002652 <HAL_GPIO_WritePin>:
 8002652:	b580      	push	{r7, lr}
 8002654:	b082      	sub	sp, #8
 8002656:	af00      	add	r7, sp, #0
 8002658:	6078      	str	r0, [r7, #4]
 800265a:	0008      	movs	r0, r1
 800265c:	0011      	movs	r1, r2
 800265e:	1cbb      	adds	r3, r7, #2
 8002660:	1c02      	adds	r2, r0, #0
 8002662:	801a      	strh	r2, [r3, #0]
 8002664:	1c7b      	adds	r3, r7, #1
 8002666:	1c0a      	adds	r2, r1, #0
 8002668:	701a      	strb	r2, [r3, #0]
 800266a:	1c7b      	adds	r3, r7, #1
 800266c:	781b      	ldrb	r3, [r3, #0]
 800266e:	2b00      	cmp	r3, #0
 8002670:	d004      	beq.n	800267c <HAL_GPIO_WritePin+0x2a>
 8002672:	1cbb      	adds	r3, r7, #2
 8002674:	881a      	ldrh	r2, [r3, #0]
 8002676:	687b      	ldr	r3, [r7, #4]
 8002678:	619a      	str	r2, [r3, #24]
 800267a:	e003      	b.n	8002684 <HAL_GPIO_WritePin+0x32>
 800267c:	1cbb      	adds	r3, r7, #2
 800267e:	881a      	ldrh	r2, [r3, #0]
 8002680:	687b      	ldr	r3, [r7, #4]
 8002682:	629a      	str	r2, [r3, #40]	@ 0x28
 8002684:	46c0      	nop			@ (mov r8, r8)
 8002686:	46bd      	mov	sp, r7
 8002688:	b002      	add	sp, #8
 800268a:	bd80      	pop	{r7, pc}

0800268c <HAL_I2C_Init>:
 800268c:	b580      	push	{r7, lr}
 800268e:	b082      	sub	sp, #8
 8002690:	af00      	add	r7, sp, #0
 8002692:	6078      	str	r0, [r7, #4]
 8002694:	687b      	ldr	r3, [r7, #4]
 8002696:	2b00      	cmp	r3, #0
 8002698:	d101      	bne.n	800269e <HAL_I2C_Init+0x12>
 800269a:	2301      	movs	r3, #1
 800269c:	e08f      	b.n	80027be <HAL_I2C_Init+0x132>
 800269e:	687b      	ldr	r3, [r7, #4]
 80026a0:	2241      	movs	r2, #65	@ 0x41
 80026a2:	5c9b      	ldrb	r3, [r3, r2]
 80026a4:	b2db      	uxtb	r3, r3
 80026a6:	2b00      	cmp	r3, #0
 80026a8:	d107      	bne.n	80026ba <HAL_I2C_Init+0x2e>
 80026aa:	687b      	ldr	r3, [r7, #4]
 80026ac:	2240      	movs	r2, #64	@ 0x40
 80026ae:	2100      	movs	r1, #0
 80026b0:	5499      	strb	r1, [r3, r2]
 80026b2:	687b      	ldr	r3, [r7, #4]
 80026b4:	0018      	movs	r0, r3
 80026b6:	f7ff f9e5 	bl	8001a84 <HAL_I2C_MspInit>
 80026ba:	687b      	ldr	r3, [r7, #4]
 80026bc:	2241      	movs	r2, #65	@ 0x41
 80026be:	2124      	movs	r1, #36	@ 0x24
 80026c0:	5499      	strb	r1, [r3, r2]
 80026c2:	687b      	ldr	r3, [r7, #4]
 80026c4:	681b      	ldr	r3, [r3, #0]
 80026c6:	681a      	ldr	r2, [r3, #0]
 80026c8:	687b      	ldr	r3, [r7, #4]
 80026ca:	681b      	ldr	r3, [r3, #0]
 80026cc:	2101      	movs	r1, #1
 80026ce:	438a      	bics	r2, r1
 80026d0:	601a      	str	r2, [r3, #0]
 80026d2:	687b      	ldr	r3, [r7, #4]
 80026d4:	685a      	ldr	r2, [r3, #4]
 80026d6:	687b      	ldr	r3, [r7, #4]
 80026d8:	681b      	ldr	r3, [r3, #0]
 80026da:	493b      	ldr	r1, [pc, #236]	@ (80027c8 <HAL_I2C_Init+0x13c>)
 80026dc:	400a      	ands	r2, r1
 80026de:	611a      	str	r2, [r3, #16]
 80026e0:	687b      	ldr	r3, [r7, #4]
 80026e2:	681b      	ldr	r3, [r3, #0]
 80026e4:	689a      	ldr	r2, [r3, #8]
 80026e6:	687b      	ldr	r3, [r7, #4]
 80026e8:	681b      	ldr	r3, [r3, #0]
 80026ea:	4938      	ldr	r1, [pc, #224]	@ (80027cc <HAL_I2C_Init+0x140>)
 80026ec:	400a      	ands	r2, r1
 80026ee:	609a      	str	r2, [r3, #8]
 80026f0:	687b      	ldr	r3, [r7, #4]
 80026f2:	68db      	ldr	r3, [r3, #12]
 80026f4:	2b01      	cmp	r3, #1
 80026f6:	d108      	bne.n	800270a <HAL_I2C_Init+0x7e>
 80026f8:	687b      	ldr	r3, [r7, #4]
 80026fa:	689a      	ldr	r2, [r3, #8]
 80026fc:	687b      	ldr	r3, [r7, #4]
 80026fe:	681b      	ldr	r3, [r3, #0]
 8002700:	2180      	movs	r1, #128	@ 0x80
 8002702:	0209      	lsls	r1, r1, #8
 8002704:	430a      	orrs	r2, r1
 8002706:	609a      	str	r2, [r3, #8]
 8002708:	e007      	b.n	800271a <HAL_I2C_Init+0x8e>
 800270a:	687b      	ldr	r3, [r7, #4]
 800270c:	689a      	ldr	r2, [r3, #8]
 800270e:	687b      	ldr	r3, [r7, #4]
 8002710:	681b      	ldr	r3, [r3, #0]
 8002712:	2184      	movs	r1, #132	@ 0x84
 8002714:	0209      	lsls	r1, r1, #8
 8002716:	430a      	orrs	r2, r1
 8002718:	609a      	str	r2, [r3, #8]
 800271a:	687b      	ldr	r3, [r7, #4]
 800271c:	68db      	ldr	r3, [r3, #12]
 800271e:	2b02      	cmp	r3, #2
 8002720:	d109      	bne.n	8002736 <HAL_I2C_Init+0xaa>
 8002722:	687b      	ldr	r3, [r7, #4]
 8002724:	681b      	ldr	r3, [r3, #0]
 8002726:	685a      	ldr	r2, [r3, #4]
 8002728:	687b      	ldr	r3, [r7, #4]
 800272a:	681b      	ldr	r3, [r3, #0]
 800272c:	2180      	movs	r1, #128	@ 0x80
 800272e:	0109      	lsls	r1, r1, #4
 8002730:	430a      	orrs	r2, r1
 8002732:	605a      	str	r2, [r3, #4]
 8002734:	e007      	b.n	8002746 <HAL_I2C_Init+0xba>
 8002736:	687b      	ldr	r3, [r7, #4]
 8002738:	681b      	ldr	r3, [r3, #0]
 800273a:	685a      	ldr	r2, [r3, #4]
 800273c:	687b      	ldr	r3, [r7, #4]
 800273e:	681b      	ldr	r3, [r3, #0]
 8002740:	4923      	ldr	r1, [pc, #140]	@ (80027d0 <HAL_I2C_Init+0x144>)
 8002742:	400a      	ands	r2, r1
 8002744:	605a      	str	r2, [r3, #4]
 8002746:	687b      	ldr	r3, [r7, #4]
 8002748:	681b      	ldr	r3, [r3, #0]
 800274a:	685a      	ldr	r2, [r3, #4]
 800274c:	687b      	ldr	r3, [r7, #4]
 800274e:	681b      	ldr	r3, [r3, #0]
 8002750:	4920      	ldr	r1, [pc, #128]	@ (80027d4 <HAL_I2C_Init+0x148>)
 8002752:	430a      	orrs	r2, r1
 8002754:	605a      	str	r2, [r3, #4]
 8002756:	687b      	ldr	r3, [r7, #4]
 8002758:	681b      	ldr	r3, [r3, #0]
 800275a:	68da      	ldr	r2, [r3, #12]
 800275c:	687b      	ldr	r3, [r7, #4]
 800275e:	681b      	ldr	r3, [r3, #0]
 8002760:	491a      	ldr	r1, [pc, #104]	@ (80027cc <HAL_I2C_Init+0x140>)
 8002762:	400a      	ands	r2, r1
 8002764:	60da      	str	r2, [r3, #12]
 8002766:	687b      	ldr	r3, [r7, #4]
 8002768:	691a      	ldr	r2, [r3, #16]
 800276a:	687b      	ldr	r3, [r7, #4]
 800276c:	695b      	ldr	r3, [r3, #20]
 800276e:	431a      	orrs	r2, r3
 8002770:	0011      	movs	r1, r2
 8002772:	687b      	ldr	r3, [r7, #4]
 8002774:	699b      	ldr	r3, [r3, #24]
 8002776:	021a      	lsls	r2, r3, #8
 8002778:	687b      	ldr	r3, [r7, #4]
 800277a:	681b      	ldr	r3, [r3, #0]
 800277c:	430a      	orrs	r2, r1
 800277e:	60da      	str	r2, [r3, #12]
 8002780:	687b      	ldr	r3, [r7, #4]
 8002782:	69d9      	ldr	r1, [r3, #28]
 8002784:	687b      	ldr	r3, [r7, #4]
 8002786:	6a1a      	ldr	r2, [r3, #32]
 8002788:	687b      	ldr	r3, [r7, #4]
 800278a:	681b      	ldr	r3, [r3, #0]
 800278c:	430a      	orrs	r2, r1
 800278e:	601a      	str	r2, [r3, #0]
 8002790:	687b      	ldr	r3, [r7, #4]
 8002792:	681b      	ldr	r3, [r3, #0]
 8002794:	681a      	ldr	r2, [r3, #0]
 8002796:	687b      	ldr	r3, [r7, #4]
 8002798:	681b      	ldr	r3, [r3, #0]
 800279a:	2101      	movs	r1, #1
 800279c:	430a      	orrs	r2, r1
 800279e:	601a      	str	r2, [r3, #0]
 80027a0:	687b      	ldr	r3, [r7, #4]
 80027a2:	2200      	movs	r2, #0
 80027a4:	645a      	str	r2, [r3, #68]	@ 0x44
 80027a6:	687b      	ldr	r3, [r7, #4]
 80027a8:	2241      	movs	r2, #65	@ 0x41
 80027aa:	2120      	movs	r1, #32
 80027ac:	5499      	strb	r1, [r3, r2]
 80027ae:	687b      	ldr	r3, [r7, #4]
 80027b0:	2200      	movs	r2, #0
 80027b2:	631a      	str	r2, [r3, #48]	@ 0x30
 80027b4:	687b      	ldr	r3, [r7, #4]
 80027b6:	2242      	movs	r2, #66	@ 0x42
 80027b8:	2100      	movs	r1, #0
 80027ba:	5499      	strb	r1, [r3, r2]
 80027bc:	2300      	movs	r3, #0
 80027be:	0018      	movs	r0, r3
 80027c0:	46bd      	mov	sp, r7
 80027c2:	b002      	add	sp, #8
 80027c4:	bd80      	pop	{r7, pc}
 80027c6:	46c0      	nop			@ (mov r8, r8)
 80027c8:	f0ffffff 	.word	0xf0ffffff
 80027cc:	ffff7fff 	.word	0xffff7fff
 80027d0:	fffff7ff 	.word	0xfffff7ff
 80027d4:	02008000 	.word	0x02008000

080027d8 <HAL_I2C_Mem_Write>:
 80027d8:	b590      	push	{r4, r7, lr}
 80027da:	b089      	sub	sp, #36	@ 0x24
 80027dc:	af02      	add	r7, sp, #8
 80027de:	60f8      	str	r0, [r7, #12]
 80027e0:	000c      	movs	r4, r1
 80027e2:	0010      	movs	r0, r2
 80027e4:	0019      	movs	r1, r3
 80027e6:	230a      	movs	r3, #10
 80027e8:	18fb      	adds	r3, r7, r3
 80027ea:	1c22      	adds	r2, r4, #0
 80027ec:	801a      	strh	r2, [r3, #0]
 80027ee:	2308      	movs	r3, #8
 80027f0:	18fb      	adds	r3, r7, r3
 80027f2:	1c02      	adds	r2, r0, #0
 80027f4:	801a      	strh	r2, [r3, #0]
 80027f6:	1dbb      	adds	r3, r7, #6
 80027f8:	1c0a      	adds	r2, r1, #0
 80027fa:	801a      	strh	r2, [r3, #0]
 80027fc:	68fb      	ldr	r3, [r7, #12]
 80027fe:	2241      	movs	r2, #65	@ 0x41
 8002800:	5c9b      	ldrb	r3, [r3, r2]
 8002802:	b2db      	uxtb	r3, r3
 8002804:	2b20      	cmp	r3, #32
 8002806:	d000      	beq.n	800280a <HAL_I2C_Mem_Write+0x32>
 8002808:	e10c      	b.n	8002a24 <HAL_I2C_Mem_Write+0x24c>
 800280a:	6abb      	ldr	r3, [r7, #40]	@ 0x28
 800280c:	2b00      	cmp	r3, #0
 800280e:	d004      	beq.n	800281a <HAL_I2C_Mem_Write+0x42>
 8002810:	232c      	movs	r3, #44	@ 0x2c
 8002812:	18fb      	adds	r3, r7, r3
 8002814:	881b      	ldrh	r3, [r3, #0]
 8002816:	2b00      	cmp	r3, #0
 8002818:	d105      	bne.n	8002826 <HAL_I2C_Mem_Write+0x4e>
 800281a:	68fb      	ldr	r3, [r7, #12]
 800281c:	2280      	movs	r2, #128	@ 0x80
 800281e:	0092      	lsls	r2, r2, #2
 8002820:	645a      	str	r2, [r3, #68]	@ 0x44
 8002822:	2301      	movs	r3, #1
 8002824:	e0ff      	b.n	8002a26 <HAL_I2C_Mem_Write+0x24e>
 8002826:	68fb      	ldr	r3, [r7, #12]
 8002828:	2240      	movs	r2, #64	@ 0x40
 800282a:	5c9b      	ldrb	r3, [r3, r2]
 800282c:	2b01      	cmp	r3, #1
 800282e:	d101      	bne.n	8002834 <HAL_I2C_Mem_Write+0x5c>
 8002830:	2302      	movs	r3, #2
 8002832:	e0f8      	b.n	8002a26 <HAL_I2C_Mem_Write+0x24e>
 8002834:	68fb      	ldr	r3, [r7, #12]
 8002836:	2240      	movs	r2, #64	@ 0x40
 8002838:	2101      	movs	r1, #1
 800283a:	5499      	strb	r1, [r3, r2]
 800283c:	f7ff fad6 	bl	8001dec <HAL_GetTick>
 8002840:	0003      	movs	r3, r0
 8002842:	617b      	str	r3, [r7, #20]
 8002844:	2380      	movs	r3, #128	@ 0x80
 8002846:	0219      	lsls	r1, r3, #8
 8002848:	68f8      	ldr	r0, [r7, #12]
 800284a:	697b      	ldr	r3, [r7, #20]
 800284c:	9300      	str	r3, [sp, #0]
 800284e:	2319      	movs	r3, #25
 8002850:	2201      	movs	r2, #1
 8002852:	f000 f975 	bl	8002b40 <I2C_WaitOnFlagUntilTimeout>
 8002856:	1e03      	subs	r3, r0, #0
 8002858:	d001      	beq.n	800285e <HAL_I2C_Mem_Write+0x86>
 800285a:	2301      	movs	r3, #1
 800285c:	e0e3      	b.n	8002a26 <HAL_I2C_Mem_Write+0x24e>
 800285e:	68fb      	ldr	r3, [r7, #12]
 8002860:	2241      	movs	r2, #65	@ 0x41
 8002862:	2121      	movs	r1, #33	@ 0x21
 8002864:	5499      	strb	r1, [r3, r2]
 8002866:	68fb      	ldr	r3, [r7, #12]
 8002868:	2242      	movs	r2, #66	@ 0x42
 800286a:	2140      	movs	r1, #64	@ 0x40
 800286c:	5499      	strb	r1, [r3, r2]
 800286e:	68fb      	ldr	r3, [r7, #12]
 8002870:	2200      	movs	r2, #0
 8002872:	645a      	str	r2, [r3, #68]	@ 0x44
 8002874:	68fb      	ldr	r3, [r7, #12]
 8002876:	6aba      	ldr	r2, [r7, #40]	@ 0x28
 8002878:	625a      	str	r2, [r3, #36]	@ 0x24
 800287a:	68fb      	ldr	r3, [r7, #12]
 800287c:	222c      	movs	r2, #44	@ 0x2c
 800287e:	18ba      	adds	r2, r7, r2
 8002880:	8812      	ldrh	r2, [r2, #0]
 8002882:	855a      	strh	r2, [r3, #42]	@ 0x2a
 8002884:	68fb      	ldr	r3, [r7, #12]
 8002886:	2200      	movs	r2, #0
 8002888:	635a      	str	r2, [r3, #52]	@ 0x34
 800288a:	1dbb      	adds	r3, r7, #6
 800288c:	881c      	ldrh	r4, [r3, #0]
 800288e:	2308      	movs	r3, #8
 8002890:	18fb      	adds	r3, r7, r3
 8002892:	881a      	ldrh	r2, [r3, #0]
 8002894:	230a      	movs	r3, #10
 8002896:	18fb      	adds	r3, r7, r3
 8002898:	8819      	ldrh	r1, [r3, #0]
 800289a:	68f8      	ldr	r0, [r7, #12]
 800289c:	697b      	ldr	r3, [r7, #20]
 800289e:	9301      	str	r3, [sp, #4]
 80028a0:	6b3b      	ldr	r3, [r7, #48]	@ 0x30
 80028a2:	9300      	str	r3, [sp, #0]
 80028a4:	0023      	movs	r3, r4
 80028a6:	f000 f8c5 	bl	8002a34 <I2C_RequestMemoryWrite>
 80028aa:	1e03      	subs	r3, r0, #0
 80028ac:	d005      	beq.n	80028ba <HAL_I2C_Mem_Write+0xe2>
 80028ae:	68fb      	ldr	r3, [r7, #12]
 80028b0:	2240      	movs	r2, #64	@ 0x40
 80028b2:	2100      	movs	r1, #0
 80028b4:	5499      	strb	r1, [r3, r2]
 80028b6:	2301      	movs	r3, #1
 80028b8:	e0b5      	b.n	8002a26 <HAL_I2C_Mem_Write+0x24e>
 80028ba:	68fb      	ldr	r3, [r7, #12]
 80028bc:	8d5b      	ldrh	r3, [r3, #42]	@ 0x2a
 80028be:	b29b      	uxth	r3, r3
 80028c0:	2bff      	cmp	r3, #255	@ 0xff
 80028c2:	d911      	bls.n	80028e8 <HAL_I2C_Mem_Write+0x110>
 80028c4:	68fb      	ldr	r3, [r7, #12]
 80028c6:	22ff      	movs	r2, #255	@ 0xff
 80028c8:	851a      	strh	r2, [r3, #40]	@ 0x28
 80028ca:	68fb      	ldr	r3, [r7, #12]
 80028cc:	8d1b      	ldrh	r3, [r3, #40]	@ 0x28
 80028ce:	b2da      	uxtb	r2, r3
 80028d0:	2380      	movs	r3, #128	@ 0x80
 80028d2:	045c      	lsls	r4, r3, #17
 80028d4:	230a      	movs	r3, #10
 80028d6:	18fb      	adds	r3, r7, r3
 80028d8:	8819      	ldrh	r1, [r3, #0]
 80028da:	68f8      	ldr	r0, [r7, #12]
 80028dc:	2300      	movs	r3, #0
 80028de:	9300      	str	r3, [sp, #0]
 80028e0:	0023      	movs	r3, r4
 80028e2:	f000 fb07 	bl	8002ef4 <I2C_TransferConfig>
 80028e6:	e012      	b.n	800290e <HAL_I2C_Mem_Write+0x136>
 80028e8:	68fb      	ldr	r3, [r7, #12]
 80028ea:	8d5b      	ldrh	r3, [r3, #42]	@ 0x2a
 80028ec:	b29a      	uxth	r2, r3
 80028ee:	68fb      	ldr	r3, [r7, #12]
 80028f0:	851a      	strh	r2, [r3, #40]	@ 0x28
 80028f2:	68fb      	ldr	r3, [r7, #12]
 80028f4:	8d1b      	ldrh	r3, [r3, #40]	@ 0x28
 80028f6:	b2da      	uxtb	r2, r3
 80028f8:	2380      	movs	r3, #128	@ 0x80
 80028fa:	049c      	lsls	r4, r3, #18
 80028fc:	230a      	movs	r3, #10
 80028fe:	18fb      	adds	r3, r7, r3
 8002900:	8819      	ldrh	r1, [r3, #0]
 8002902:	68f8      	ldr	r0, [r7, #12]
 8002904:	2300      	movs	r3, #0
 8002906:	9300      	str	r3, [sp, #0]
 8002908:	0023      	movs	r3, r4
 800290a:	f000 faf3 	bl	8002ef4 <I2C_TransferConfig>
 800290e:	697a      	ldr	r2, [r7, #20]
 8002910:	6b39      	ldr	r1, [r7, #48]	@ 0x30
 8002912:	68fb      	ldr	r3, [r7, #12]
 8002914:	0018      	movs	r0, r3
 8002916:	f000 f96b 	bl	8002bf0 <I2C_WaitOnTXISFlagUntilTimeout>
 800291a:	1e03      	subs	r3, r0, #0
 800291c:	d001      	beq.n	8002922 <HAL_I2C_Mem_Write+0x14a>
 800291e:	2301      	movs	r3, #1
 8002920:	e081      	b.n	8002a26 <HAL_I2C_Mem_Write+0x24e>
 8002922:	68fb      	ldr	r3, [r7, #12]
 8002924:	6a5b      	ldr	r3, [r3, #36]	@ 0x24
 8002926:	781a      	ldrb	r2, [r3, #0]
 8002928:	68fb      	ldr	r3, [r7, #12]
 800292a:	681b      	ldr	r3, [r3, #0]
 800292c:	629a      	str	r2, [r3, #40]	@ 0x28
 800292e:	68fb      	ldr	r3, [r7, #12]
 8002930:	6a5b      	ldr	r3, [r3, #36]	@ 0x24
 8002932:	1c5a      	adds	r2, r3, #1
 8002934:	68fb      	ldr	r3, [r7, #12]
 8002936:	625a      	str	r2, [r3, #36]	@ 0x24
 8002938:	68fb      	ldr	r3, [r7, #12]
 800293a:	8d5b      	ldrh	r3, [r3, #42]	@ 0x2a
 800293c:	b29b      	uxth	r3, r3
 800293e:	3b01      	subs	r3, #1
 8002940:	b29a      	uxth	r2, r3
 8002942:	68fb      	ldr	r3, [r7, #12]
 8002944:	855a      	strh	r2, [r3, #42]	@ 0x2a
 8002946:	68fb      	ldr	r3, [r7, #12]
 8002948:	8d1b      	ldrh	r3, [r3, #40]	@ 0x28
 800294a:	3b01      	subs	r3, #1
 800294c:	b29a      	uxth	r2, r3
 800294e:	68fb      	ldr	r3, [r7, #12]
 8002950:	851a      	strh	r2, [r3, #40]	@ 0x28
 8002952:	68fb      	ldr	r3, [r7, #12]
 8002954:	8d5b      	ldrh	r3, [r3, #42]	@ 0x2a
 8002956:	b29b      	uxth	r3, r3
 8002958:	2b00      	cmp	r3, #0
 800295a:	d03a      	beq.n	80029d2 <HAL_I2C_Mem_Write+0x1fa>
 800295c:	68fb      	ldr	r3, [r7, #12]
 800295e:	8d1b      	ldrh	r3, [r3, #40]	@ 0x28
 8002960:	2b00      	cmp	r3, #0
 8002962:	d136      	bne.n	80029d2 <HAL_I2C_Mem_Write+0x1fa>
 8002964:	6b3a      	ldr	r2, [r7, #48]	@ 0x30
 8002966:	68f8      	ldr	r0, [r7, #12]
 8002968:	697b      	ldr	r3, [r7, #20]
 800296a:	9300      	str	r3, [sp, #0]
 800296c:	0013      	movs	r3, r2
 800296e:	2200      	movs	r2, #0
 8002970:	2180      	movs	r1, #128	@ 0x80
 8002972:	f000 f8e5 	bl	8002b40 <I2C_WaitOnFlagUntilTimeout>
 8002976:	1e03      	subs	r3, r0, #0
 8002978:	d001      	beq.n	800297e <HAL_I2C_Mem_Write+0x1a6>
 800297a:	2301      	movs	r3, #1
 800297c:	e053      	b.n	8002a26 <HAL_I2C_Mem_Write+0x24e>
 800297e:	68fb      	ldr	r3, [r7, #12]
 8002980:	8d5b      	ldrh	r3, [r3, #42]	@ 0x2a
 8002982:	b29b      	uxth	r3, r3
 8002984:	2bff      	cmp	r3, #255	@ 0xff
 8002986:	d911      	bls.n	80029ac <HAL_I2C_Mem_Write+0x1d4>
 8002988:	68fb      	ldr	r3, [r7, #12]
 800298a:	22ff      	movs	r2, #255	@ 0xff
 800298c:	851a      	strh	r2, [r3, #40]	@ 0x28
 800298e:	68fb      	ldr	r3, [r7, #12]
 8002990:	8d1b      	ldrh	r3, [r3, #40]	@ 0x28
 8002992:	b2da      	uxtb	r2, r3
 8002994:	2380      	movs	r3, #128	@ 0x80
 8002996:	045c      	lsls	r4, r3, #17
 8002998:	230a      	movs	r3, #10
 800299a:	18fb      	adds	r3, r7, r3
 800299c:	8819      	ldrh	r1, [r3, #0]
 800299e:	68f8      	ldr	r0, [r7, #12]
 80029a0:	2300      	movs	r3, #0
 80029a2:	9300      	str	r3, [sp, #0]
 80029a4:	0023      	movs	r3, r4
 80029a6:	f000 faa5 	bl	8002ef4 <I2C_TransferConfig>
 80029aa:	e012      	b.n	80029d2 <HAL_I2C_Mem_Write+0x1fa>
 80029ac:	68fb      	ldr	r3, [r7, #12]
 80029ae:	8d5b      	ldrh	r3, [r3, #42]	@ 0x2a
 80029b0:	b29a      	uxth	r2, r3
 80029b2:	68fb      	ldr	r3, [r7, #12]
 80029b4:	851a      	strh	r2, [r3, #40]	@ 0x28
 80029b6:	68fb      	ldr	r3, [r7, #12]
 80029b8:	8d1b      	ldrh	r3, [r3, #40]	@ 0x28
 80029ba:	b2da      	uxtb	r2, r3
 80029bc:	2380      	movs	r3, #128	@ 0x80
 80029be:	049c      	lsls	r4, r3, #18
 80029c0:	230a      	movs	r3, #10
 80029c2:	18fb      	adds	r3, r7, r3
 80029c4:	8819      	ldrh	r1, [r3, #0]
 80029c6:	68f8      	ldr	r0, [r7, #12]
 80029c8:	2300      	movs	r3, #0
 80029ca:	9300      	str	r3, [sp, #0]
 80029cc:	0023      	movs	r3, r4
 80029ce:	f000 fa91 	bl	8002ef4 <I2C_TransferConfig>
 80029d2:	68fb      	ldr	r3, [r7, #12]
 80029d4:	8d5b      	ldrh	r3, [r3, #42]	@ 0x2a
 80029d6:	b29b      	uxth	r3, r3
 80029d8:	2b00      	cmp	r3, #0
 80029da:	d198      	bne.n	800290e <HAL_I2C_Mem_Write+0x136>
 80029dc:	697a      	ldr	r2, [r7, #20]
 80029de:	6b39      	ldr	r1, [r7, #48]	@ 0x30
 80029e0:	68fb      	ldr	r3, [r7, #12]
 80029e2:	0018      	movs	r0, r3
 80029e4:	f000 f94a 	bl	8002c7c <I2C_WaitOnSTOPFlagUntilTimeout>
 80029e8:	1e03      	subs	r3, r0, #0
 80029ea:	d001      	beq.n	80029f0 <HAL_I2C_Mem_Write+0x218>
 80029ec:	2301      	movs	r3, #1
 80029ee:	e01a      	b.n	8002a26 <HAL_I2C_Mem_Write+0x24e>
 80029f0:	68fb      	ldr	r3, [r7, #12]
 80029f2:	681b      	ldr	r3, [r3, #0]
 80029f4:	2220      	movs	r2, #32
 80029f6:	61da      	str	r2, [r3, #28]
 80029f8:	68fb      	ldr	r3, [r7, #12]
 80029fa:	681b      	ldr	r3, [r3, #0]
 80029fc:	685a      	ldr	r2, [r3, #4]
 80029fe:	68fb      	ldr	r3, [r7, #12]
 8002a00:	681b      	ldr	r3, [r3, #0]
 8002a02:	490b      	ldr	r1, [pc, #44]	@ (8002a30 <HAL_I2C_Mem_Write+0x258>)
 8002a04:	400a      	ands	r2, r1
 8002a06:	605a      	str	r2, [r3, #4]
 8002a08:	68fb      	ldr	r3, [r7, #12]
 8002a0a:	2241      	movs	r2, #65	@ 0x41
 8002a0c:	2120      	movs	r1, #32
 8002a0e:	5499      	strb	r1, [r3, r2]
 8002a10:	68fb      	ldr	r3, [r7, #12]
 8002a12:	2242      	movs	r2, #66	@ 0x42
 8002a14:	2100      	movs	r1, #0
 8002a16:	5499      	strb	r1, [r3, r2]
 8002a18:	68fb      	ldr	r3, [r7, #12]
 8002a1a:	2240      	movs	r2, #64	@ 0x40
 8002a1c:	2100      	movs	r1, #0
 8002a1e:	5499      	strb	r1, [r3, r2]
 8002a20:	2300      	movs	r3, #0
 8002a22:	e000      	b.n	8002a26 <HAL_I2C_Mem_Write+0x24e>
 8002a24:	2302      	movs	r3, #2
 8002a26:	0018      	movs	r0, r3
 8002a28:	46bd      	mov	sp, r7
 8002a2a:	b007      	add	sp, #28
 8002a2c:	bd90      	pop	{r4, r7, pc}
 8002a2e:	46c0      	nop			@ (mov r8, r8)
 8002a30:	fe00e800 	.word	0xfe00e800

08002a34 <I2C_RequestMemoryWrite>:
 8002a34:	b5b0      	push	{r4, r5, r7, lr}
 8002a36:	b086      	sub	sp, #24
 8002a38:	af02      	add	r7, sp, #8
 8002a3a:	60f8      	str	r0, [r7, #12]
 8002a3c:	000c      	movs	r4, r1
 8002a3e:	0010      	movs	r0, r2
 8002a40:	0019      	movs	r1, r3
 8002a42:	250a      	movs	r5, #10
 8002a44:	197b      	adds	r3, r7, r5
 8002a46:	1c22      	adds	r2, r4, #0
 8002a48:	801a      	strh	r2, [r3, #0]
 8002a4a:	2308      	movs	r3, #8
 8002a4c:	18fb      	adds	r3, r7, r3
 8002a4e:	1c02      	adds	r2, r0, #0
 8002a50:	801a      	strh	r2, [r3, #0]
 8002a52:	1dbb      	adds	r3, r7, #6
 8002a54:	1c0a      	adds	r2, r1, #0
 8002a56:	801a      	strh	r2, [r3, #0]
 8002a58:	1dbb      	adds	r3, r7, #6
 8002a5a:	881b      	ldrh	r3, [r3, #0]
 8002a5c:	b2da      	uxtb	r2, r3
 8002a5e:	2380      	movs	r3, #128	@ 0x80
 8002a60:	045c      	lsls	r4, r3, #17
 8002a62:	197b      	adds	r3, r7, r5
 8002a64:	8819      	ldrh	r1, [r3, #0]
 8002a66:	68f8      	ldr	r0, [r7, #12]
 8002a68:	4b23      	ldr	r3, [pc, #140]	@ (8002af8 <I2C_RequestMemoryWrite+0xc4>)
 8002a6a:	9300      	str	r3, [sp, #0]
 8002a6c:	0023      	movs	r3, r4
 8002a6e:	f000 fa41 	bl	8002ef4 <I2C_TransferConfig>
 8002a72:	6a7a      	ldr	r2, [r7, #36]	@ 0x24
 8002a74:	6a39      	ldr	r1, [r7, #32]
 8002a76:	68fb      	ldr	r3, [r7, #12]
 8002a78:	0018      	movs	r0, r3
 8002a7a:	f000 f8b9 	bl	8002bf0 <I2C_WaitOnTXISFlagUntilTimeout>
 8002a7e:	1e03      	subs	r3, r0, #0
 8002a80:	d001      	beq.n	8002a86 <I2C_RequestMemoryWrite+0x52>
 8002a82:	2301      	movs	r3, #1
 8002a84:	e033      	b.n	8002aee <I2C_RequestMemoryWrite+0xba>
 8002a86:	1dbb      	adds	r3, r7, #6
 8002a88:	881b      	ldrh	r3, [r3, #0]
 8002a8a:	2b01      	cmp	r3, #1
 8002a8c:	d107      	bne.n	8002a9e <I2C_RequestMemoryWrite+0x6a>
 8002a8e:	2308      	movs	r3, #8
 8002a90:	18fb      	adds	r3, r7, r3
 8002a92:	881b      	ldrh	r3, [r3, #0]
 8002a94:	b2da      	uxtb	r2, r3
 8002a96:	68fb      	ldr	r3, [r7, #12]
 8002a98:	681b      	ldr	r3, [r3, #0]
 8002a9a:	629a      	str	r2, [r3, #40]	@ 0x28
 8002a9c:	e019      	b.n	8002ad2 <I2C_RequestMemoryWrite+0x9e>
 8002a9e:	2308      	movs	r3, #8
 8002aa0:	18fb      	adds	r3, r7, r3
 8002aa2:	881b      	ldrh	r3, [r3, #0]
 8002aa4:	0a1b      	lsrs	r3, r3, #8
 8002aa6:	b29b      	uxth	r3, r3
 8002aa8:	b2da      	uxtb	r2, r3
 8002aaa:	68fb      	ldr	r3, [r7, #12]
 8002aac:	681b      	ldr	r3, [r3, #0]
 8002aae:	629a      	str	r2, [r3, #40]	@ 0x28
 8002ab0:	6a7a      	ldr	r2, [r7, #36]	@ 0x24
 8002ab2:	6a39      	ldr	r1, [r7, #32]
 8002ab4:	68fb      	ldr	r3, [r7, #12]
 8002ab6:	0018      	movs	r0, r3
 8002ab8:	f000 f89a 	bl	8002bf0 <I2C_WaitOnTXISFlagUntilTimeout>
 8002abc:	1e03      	subs	r3, r0, #0
 8002abe:	d001      	beq.n	8002ac4 <I2C_RequestMemoryWrite+0x90>
 8002ac0:	2301      	movs	r3, #1
 8002ac2:	e014      	b.n	8002aee <I2C_RequestMemoryWrite+0xba>
 8002ac4:	2308      	movs	r3, #8
 8002ac6:	18fb      	adds	r3, r7, r3
 8002ac8:	881b      	ldrh	r3, [r3, #0]
 8002aca:	b2da      	uxtb	r2, r3
 8002acc:	68fb      	ldr	r3, [r7, #12]
 8002ace:	681b      	ldr	r3, [r3, #0]
 8002ad0:	629a      	str	r2, [r3, #40]	@ 0x28
 8002ad2:	6a3a      	ldr	r2, [r7, #32]
 8002ad4:	68f8      	ldr	r0, [r7, #12]
 8002ad6:	6a7b      	ldr	r3, [r7, #36]	@ 0x24
 8002ad8:	9300      	str	r3, [sp, #0]
 8002ada:	0013      	movs	r3, r2
 8002adc:	2200      	movs	r2, #0
 8002ade:	2180      	movs	r1, #128	@ 0x80
 8002ae0:	f000 f82e 	bl	8002b40 <I2C_WaitOnFlagUntilTimeout>
 8002ae4:	1e03      	subs	r3, r0, #0
 8002ae6:	d001      	beq.n	8002aec <I2C_RequestMemoryWrite+0xb8>
 8002ae8:	2301      	movs	r3, #1
 8002aea:	e000      	b.n	8002aee <I2C_RequestMemoryWrite+0xba>
 8002aec:	2300      	movs	r3, #0
 8002aee:	0018      	movs	r0, r3
 8002af0:	46bd      	mov	sp, r7
 8002af2:	b004      	add	sp, #16
 8002af4:	bdb0      	pop	{r4, r5, r7, pc}
 8002af6:	46c0      	nop			@ (mov r8, r8)
 8002af8:	80002000 	.word	0x80002000

08002afc <I2C_Flush_TXDR>:
 8002afc:	b580      	push	{r7, lr}
 8002afe:	b082      	sub	sp, #8
 8002b00:	af00      	add	r7, sp, #0
 8002b02:	6078      	str	r0, [r7, #4]
 8002b04:	687b      	ldr	r3, [r7, #4]
 8002b06:	681b      	ldr	r3, [r3, #0]
 8002b08:	699b      	ldr	r3, [r3, #24]
 8002b0a:	2202      	movs	r2, #2
 8002b0c:	4013      	ands	r3, r2
 8002b0e:	2b02      	cmp	r3, #2
 8002b10:	d103      	bne.n	8002b1a <I2C_Flush_TXDR+0x1e>
 8002b12:	687b      	ldr	r3, [r7, #4]
 8002b14:	681b      	ldr	r3, [r3, #0]
 8002b16:	2200      	movs	r2, #0
 8002b18:	629a      	str	r2, [r3, #40]	@ 0x28
 8002b1a:	687b      	ldr	r3, [r7, #4]
 8002b1c:	681b      	ldr	r3, [r3, #0]
 8002b1e:	699b      	ldr	r3, [r3, #24]
 8002b20:	2201      	movs	r2, #1
 8002b22:	4013      	ands	r3, r2
 8002b24:	2b01      	cmp	r3, #1
 8002b26:	d007      	beq.n	8002b38 <I2C_Flush_TXDR+0x3c>
 8002b28:	687b      	ldr	r3, [r7, #4]
 8002b2a:	681b      	ldr	r3, [r3, #0]
 8002b2c:	699a      	ldr	r2, [r3, #24]
 8002b2e:	687b      	ldr	r3, [r7, #4]
 8002b30:	681b      	ldr	r3, [r3, #0]
 8002b32:	2101      	movs	r1, #1
 8002b34:	430a      	orrs	r2, r1
 8002b36:	619a      	str	r2, [r3, #24]
 8002b38:	46c0      	nop			@ (mov r8, r8)
 8002b3a:	46bd      	mov	sp, r7
 8002b3c:	b002      	add	sp, #8
 8002b3e:	bd80      	pop	{r7, pc}

08002b40 <I2C_WaitOnFlagUntilTimeout>:
 8002b40:	b580      	push	{r7, lr}
 8002b42:	b084      	sub	sp, #16
 8002b44:	af00      	add	r7, sp, #0
 8002b46:	60f8      	str	r0, [r7, #12]
 8002b48:	60b9      	str	r1, [r7, #8]
 8002b4a:	603b      	str	r3, [r7, #0]
 8002b4c:	1dfb      	adds	r3, r7, #7
 8002b4e:	701a      	strb	r2, [r3, #0]
 8002b50:	e03a      	b.n	8002bc8 <I2C_WaitOnFlagUntilTimeout+0x88>
 8002b52:	69ba      	ldr	r2, [r7, #24]
 8002b54:	6839      	ldr	r1, [r7, #0]
 8002b56:	68fb      	ldr	r3, [r7, #12]
 8002b58:	0018      	movs	r0, r3
 8002b5a:	f000 f8d3 	bl	8002d04 <I2C_IsErrorOccurred>
 8002b5e:	1e03      	subs	r3, r0, #0
 8002b60:	d001      	beq.n	8002b66 <I2C_WaitOnFlagUntilTimeout+0x26>
 8002b62:	2301      	movs	r3, #1
 8002b64:	e040      	b.n	8002be8 <I2C_WaitOnFlagUntilTimeout+0xa8>
 8002b66:	683b      	ldr	r3, [r7, #0]
 8002b68:	3301      	adds	r3, #1
 8002b6a:	d02d      	beq.n	8002bc8 <I2C_WaitOnFlagUntilTimeout+0x88>
 8002b6c:	f7ff f93e 	bl	8001dec <HAL_GetTick>
 8002b70:	0002      	movs	r2, r0
 8002b72:	69bb      	ldr	r3, [r7, #24]
 8002b74:	1ad3      	subs	r3, r2, r3
 8002b76:	683a      	ldr	r2, [r7, #0]
 8002b78:	429a      	cmp	r2, r3
 8002b7a:	d302      	bcc.n	8002b82 <I2C_WaitOnFlagUntilTimeout+0x42>
 8002b7c:	683b      	ldr	r3, [r7, #0]
 8002b7e:	2b00      	cmp	r3, #0
 8002b80:	d122      	bne.n	8002bc8 <I2C_WaitOnFlagUntilTimeout+0x88>
 8002b82:	68fb      	ldr	r3, [r7, #12]
 8002b84:	681b      	ldr	r3, [r3, #0]
 8002b86:	699b      	ldr	r3, [r3, #24]
 8002b88:	68ba      	ldr	r2, [r7, #8]
 8002b8a:	4013      	ands	r3, r2
 8002b8c:	68ba      	ldr	r2, [r7, #8]
 8002b8e:	1ad3      	subs	r3, r2, r3
 8002b90:	425a      	negs	r2, r3
 8002b92:	4153      	adcs	r3, r2
 8002b94:	b2db      	uxtb	r3, r3
 8002b96:	001a      	movs	r2, r3
 8002b98:	1dfb      	adds	r3, r7, #7
 8002b9a:	781b      	ldrb	r3, [r3, #0]
 8002b9c:	429a      	cmp	r2, r3
 8002b9e:	d113      	bne.n	8002bc8 <I2C_WaitOnFlagUntilTimeout+0x88>
 8002ba0:	68fb      	ldr	r3, [r7, #12]
 8002ba2:	6c5b      	ldr	r3, [r3, #68]	@ 0x44
 8002ba4:	2220      	movs	r2, #32
 8002ba6:	431a      	orrs	r2, r3
 8002ba8:	68fb      	ldr	r3, [r7, #12]
 8002baa:	645a      	str	r2, [r3, #68]	@ 0x44
 8002bac:	68fb      	ldr	r3, [r7, #12]
 8002bae:	2241      	movs	r2, #65	@ 0x41
 8002bb0:	2120      	movs	r1, #32
 8002bb2:	5499      	strb	r1, [r3, r2]
 8002bb4:	68fb      	ldr	r3, [r7, #12]
 8002bb6:	2242      	movs	r2, #66	@ 0x42
 8002bb8:	2100      	movs	r1, #0
 8002bba:	5499      	strb	r1, [r3, r2]
 8002bbc:	68fb      	ldr	r3, [r7, #12]
 8002bbe:	2240      	movs	r2, #64	@ 0x40
 8002bc0:	2100      	movs	r1, #0
 8002bc2:	5499      	strb	r1, [r3, r2]
 8002bc4:	2301      	movs	r3, #1
 8002bc6:	e00f      	b.n	8002be8 <I2C_WaitOnFlagUntilTimeout+0xa8>
 8002bc8:	68fb      	ldr	r3, [r7, #12]
 8002bca:	681b      	ldr	r3, [r3, #0]
 8002bcc:	699b      	ldr	r3, [r3, #24]
 8002bce:	68ba      	ldr	r2, [r7, #8]
 8002bd0:	4013      	ands	r3, r2
 8002bd2:	68ba      	ldr	r2, [r7, #8]
 8002bd4:	1ad3      	subs	r3, r2, r3
 8002bd6:	425a      	negs	r2, r3
 8002bd8:	4153      	adcs	r3, r2
 8002bda:	b2db      	uxtb	r3, r3
 8002bdc:	001a      	movs	r2, r3
 8002bde:	1dfb      	adds	r3, r7, #7
 8002be0:	781b      	ldrb	r3, [r3, #0]
 8002be2:	429a      	cmp	r2, r3
 8002be4:	d0b5      	beq.n	8002b52 <I2C_WaitOnFlagUntilTimeout+0x12>
 8002be6:	2300      	movs	r3, #0
 8002be8:	0018      	movs	r0, r3
 8002bea:	46bd      	mov	sp, r7
 8002bec:	b004      	add	sp, #16
 8002bee:	bd80      	pop	{r7, pc}

08002bf0 <I2C_WaitOnTXISFlagUntilTimeout>:
 8002bf0:	b580      	push	{r7, lr}
 8002bf2:	b084      	sub	sp, #16
 8002bf4:	af00      	add	r7, sp, #0
 8002bf6:	60f8      	str	r0, [r7, #12]
 8002bf8:	60b9      	str	r1, [r7, #8]
 8002bfa:	607a      	str	r2, [r7, #4]
 8002bfc:	e032      	b.n	8002c64 <I2C_WaitOnTXISFlagUntilTimeout+0x74>
 8002bfe:	687a      	ldr	r2, [r7, #4]
 8002c00:	68b9      	ldr	r1, [r7, #8]
 8002c02:	68fb      	ldr	r3, [r7, #12]
 8002c04:	0018      	movs	r0, r3
 8002c06:	f000 f87d 	bl	8002d04 <I2C_IsErrorOccurred>
 8002c0a:	1e03      	subs	r3, r0, #0
 8002c0c:	d001      	beq.n	8002c12 <I2C_WaitOnTXISFlagUntilTimeout+0x22>
 8002c0e:	2301      	movs	r3, #1
 8002c10:	e030      	b.n	8002c74 <I2C_WaitOnTXISFlagUntilTimeout+0x84>
 8002c12:	68bb      	ldr	r3, [r7, #8]
 8002c14:	3301      	adds	r3, #1
 8002c16:	d025      	beq.n	8002c64 <I2C_WaitOnTXISFlagUntilTimeout+0x74>
 8002c18:	f7ff f8e8 	bl	8001dec <HAL_GetTick>
 8002c1c:	0002      	movs	r2, r0
 8002c1e:	687b      	ldr	r3, [r7, #4]
 8002c20:	1ad3      	subs	r3, r2, r3
 8002c22:	68ba      	ldr	r2, [r7, #8]
 8002c24:	429a      	cmp	r2, r3
 8002c26:	d302      	bcc.n	8002c2e <I2C_WaitOnTXISFlagUntilTimeout+0x3e>
 8002c28:	68bb      	ldr	r3, [r7, #8]
 8002c2a:	2b00      	cmp	r3, #0
 8002c2c:	d11a      	bne.n	8002c64 <I2C_WaitOnTXISFlagUntilTimeout+0x74>
 8002c2e:	68fb      	ldr	r3, [r7, #12]
 8002c30:	681b      	ldr	r3, [r3, #0]
 8002c32:	699b      	ldr	r3, [r3, #24]
 8002c34:	2202      	movs	r2, #2
 8002c36:	4013      	ands	r3, r2
 8002c38:	2b02      	cmp	r3, #2
 8002c3a:	d013      	beq.n	8002c64 <I2C_WaitOnTXISFlagUntilTimeout+0x74>
 8002c3c:	68fb      	ldr	r3, [r7, #12]
 8002c3e:	6c5b      	ldr	r3, [r3, #68]	@ 0x44
 8002c40:	2220      	movs	r2, #32
 8002c42:	431a      	orrs	r2, r3
 8002c44:	68fb      	ldr	r3, [r7, #12]
 8002c46:	645a      	str	r2, [r3, #68]	@ 0x44
 8002c48:	68fb      	ldr	r3, [r7, #12]
 8002c4a:	2241      	movs	r2, #65	@ 0x41
 8002c4c:	2120      	movs	r1, #32
 8002c4e:	5499      	strb	r1, [r3, r2]
 8002c50:	68fb      	ldr	r3, [r7, #12]
 8002c52:	2242      	movs	r2, #66	@ 0x42
 8002c54:	2100      	movs	r1, #0
 8002c56:	5499      	strb	r1, [r3, r2]
 8002c58:	68fb      	ldr	r3, [r7, #12]
 8002c5a:	2240      	movs	r2, #64	@ 0x40
 8002c5c:	2100      	movs	r1, #0
 8002c5e:	5499      	strb	r1, [r3, r2]
 8002c60:	2301      	movs	r3, #1
 8002c62:	e007      	b.n	8002c74 <I2C_WaitOnTXISFlagUntilTimeout+0x84>
 8002c64:	68fb      	ldr	r3, [r7, #12]
 8002c66:	681b      	ldr	r3, [r3, #0]
 8002c68:	699b      	ldr	r3, [r3, #24]
 8002c6a:	2202      	movs	r2, #2
 8002c6c:	4013      	ands	r3, r2
 8002c6e:	2b02      	cmp	r3, #2
 8002c70:	d1c5      	bne.n	8002bfe <I2C_WaitOnTXISFlagUntilTimeout+0xe>
 8002c72:	2300      	movs	r3, #0
 8002c74:	0018      	movs	r0, r3
 8002c76:	46bd      	mov	sp, r7
 8002c78:	b004      	add	sp, #16
 8002c7a:	bd80      	pop	{r7, pc}

08002c7c <I2C_WaitOnSTOPFlagUntilTimeout>:
 8002c7c:	b580      	push	{r7, lr}
 8002c7e:	b084      	sub	sp, #16
 8002c80:	af00      	add	r7, sp, #0
 8002c82:	60f8      	str	r0, [r7, #12]
 8002c84:	60b9      	str	r1, [r7, #8]
 8002c86:	607a      	str	r2, [r7, #4]
 8002c88:	e02f      	b.n	8002cea <I2C_WaitOnSTOPFlagUntilTimeout+0x6e>
 8002c8a:	687a      	ldr	r2, [r7, #4]
 8002c8c:	68b9      	ldr	r1, [r7, #8]
 8002c8e:	68fb      	ldr	r3, [r7, #12]
 8002c90:	0018      	movs	r0, r3
 8002c92:	f000 f837 	bl	8002d04 <I2C_IsErrorOccurred>
 8002c96:	1e03      	subs	r3, r0, #0
 8002c98:	d001      	beq.n	8002c9e <I2C_WaitOnSTOPFlagUntilTimeout+0x22>
 8002c9a:	2301      	movs	r3, #1
 8002c9c:	e02d      	b.n	8002cfa <I2C_WaitOnSTOPFlagUntilTimeout+0x7e>
 8002c9e:	f7ff f8a5 	bl	8001dec <HAL_GetTick>
 8002ca2:	0002      	movs	r2, r0
 8002ca4:	687b      	ldr	r3, [r7, #4]
 8002ca6:	1ad3      	subs	r3, r2, r3
 8002ca8:	68ba      	ldr	r2, [r7, #8]
 8002caa:	429a      	cmp	r2, r3
 8002cac:	d302      	bcc.n	8002cb4 <I2C_WaitOnSTOPFlagUntilTimeout+0x38>
 8002cae:	68bb      	ldr	r3, [r7, #8]
 8002cb0:	2b00      	cmp	r3, #0
 8002cb2:	d11a      	bne.n	8002cea <I2C_WaitOnSTOPFlagUntilTimeout+0x6e>
 8002cb4:	68fb      	ldr	r3, [r7, #12]
 8002cb6:	681b      	ldr	r3, [r3, #0]
 8002cb8:	699b      	ldr	r3, [r3, #24]
 8002cba:	2220      	movs	r2, #32
 8002cbc:	4013      	ands	r3, r2
 8002cbe:	2b20      	cmp	r3, #32
 8002cc0:	d013      	beq.n	8002cea <I2C_WaitOnSTOPFlagUntilTimeout+0x6e>
 8002cc2:	68fb      	ldr	r3, [r7, #12]
 8002cc4:	6c5b      	ldr	r3, [r3, #68]	@ 0x44
 8002cc6:	2220      	movs	r2, #32
 8002cc8:	431a      	orrs	r2, r3
 8002cca:	68fb      	ldr	r3, [r7, #12]
 8002ccc:	645a      	str	r2, [r3, #68]	@ 0x44
 8002cce:	68fb      	ldr	r3, [r7, #12]
 8002cd0:	2241      	movs	r2, #65	@ 0x41
 8002cd2:	2120      	movs	r1, #32
 8002cd4:	5499      	strb	r1, [r3, r2]
 8002cd6:	68fb      	ldr	r3, [r7, #12]
 8002cd8:	2242      	movs	r2, #66	@ 0x42
 8002cda:	2100      	movs	r1, #0
 8002cdc:	5499      	strb	r1, [r3, r2]
 8002cde:	68fb      	ldr	r3, [r7, #12]
 8002ce0:	2240      	movs	r2, #64	@ 0x40
 8002ce2:	2100      	movs	r1, #0
 8002ce4:	5499      	strb	r1, [r3, r2]
 8002ce6:	2301      	movs	r3, #1
 8002ce8:	e007      	b.n	8002cfa <I2C_WaitOnSTOPFlagUntilTimeout+0x7e>
 8002cea:	68fb      	ldr	r3, [r7, #12]
 8002cec:	681b      	ldr	r3, [r3, #0]
 8002cee:	699b      	ldr	r3, [r3, #24]
 8002cf0:	2220      	movs	r2, #32
 8002cf2:	4013      	ands	r3, r2
 8002cf4:	2b20      	cmp	r3, #32
 8002cf6:	d1c8      	bne.n	8002c8a <I2C_WaitOnSTOPFlagUntilTimeout+0xe>
 8002cf8:	2300      	movs	r3, #0
 8002cfa:	0018      	movs	r0, r3
 8002cfc:	46bd      	mov	sp, r7
 8002cfe:	b004      	add	sp, #16
 8002d00:	bd80      	pop	{r7, pc}
	...

08002d04 <I2C_IsErrorOccurred>:
 8002d04:	b580      	push	{r7, lr}
 8002d06:	b08a      	sub	sp, #40	@ 0x28
 8002d08:	af00      	add	r7, sp, #0
 8002d0a:	60f8      	str	r0, [r7, #12]
 8002d0c:	60b9      	str	r1, [r7, #8]
 8002d0e:	607a      	str	r2, [r7, #4]
 8002d10:	2327      	movs	r3, #39	@ 0x27
 8002d12:	18fb      	adds	r3, r7, r3
 8002d14:	2200      	movs	r2, #0
 8002d16:	701a      	strb	r2, [r3, #0]
 8002d18:	68fb      	ldr	r3, [r7, #12]
 8002d1a:	681b      	ldr	r3, [r3, #0]
 8002d1c:	699b      	ldr	r3, [r3, #24]
 8002d1e:	61bb      	str	r3, [r7, #24]
 8002d20:	2300      	movs	r3, #0
 8002d22:	623b      	str	r3, [r7, #32]
 8002d24:	687b      	ldr	r3, [r7, #4]
 8002d26:	61fb      	str	r3, [r7, #28]
 8002d28:	69bb      	ldr	r3, [r7, #24]
 8002d2a:	2210      	movs	r2, #16
 8002d2c:	4013      	ands	r3, r2
 8002d2e:	d100      	bne.n	8002d32 <I2C_IsErrorOccurred+0x2e>
 8002d30:	e079      	b.n	8002e26 <I2C_IsErrorOccurred+0x122>
 8002d32:	68fb      	ldr	r3, [r7, #12]
 8002d34:	681b      	ldr	r3, [r3, #0]
 8002d36:	2210      	movs	r2, #16
 8002d38:	61da      	str	r2, [r3, #28]
 8002d3a:	e057      	b.n	8002dec <I2C_IsErrorOccurred+0xe8>
 8002d3c:	2227      	movs	r2, #39	@ 0x27
 8002d3e:	18bb      	adds	r3, r7, r2
 8002d40:	18ba      	adds	r2, r7, r2
 8002d42:	7812      	ldrb	r2, [r2, #0]
 8002d44:	701a      	strb	r2, [r3, #0]
 8002d46:	68bb      	ldr	r3, [r7, #8]
 8002d48:	3301      	adds	r3, #1
 8002d4a:	d04f      	beq.n	8002dec <I2C_IsErrorOccurred+0xe8>
 8002d4c:	f7ff f84e 	bl	8001dec <HAL_GetTick>
 8002d50:	0002      	movs	r2, r0
 8002d52:	69fb      	ldr	r3, [r7, #28]
 8002d54:	1ad3      	subs	r3, r2, r3
 8002d56:	68ba      	ldr	r2, [r7, #8]
 8002d58:	429a      	cmp	r2, r3
 8002d5a:	d302      	bcc.n	8002d62 <I2C_IsErrorOccurred+0x5e>
 8002d5c:	68bb      	ldr	r3, [r7, #8]
 8002d5e:	2b00      	cmp	r3, #0
 8002d60:	d144      	bne.n	8002dec <I2C_IsErrorOccurred+0xe8>
 8002d62:	68fb      	ldr	r3, [r7, #12]
 8002d64:	681b      	ldr	r3, [r3, #0]
 8002d66:	685a      	ldr	r2, [r3, #4]
 8002d68:	2380      	movs	r3, #128	@ 0x80
 8002d6a:	01db      	lsls	r3, r3, #7
 8002d6c:	4013      	ands	r3, r2
 8002d6e:	617b      	str	r3, [r7, #20]
 8002d70:	2013      	movs	r0, #19
 8002d72:	183b      	adds	r3, r7, r0
 8002d74:	68fa      	ldr	r2, [r7, #12]
 8002d76:	2142      	movs	r1, #66	@ 0x42
 8002d78:	5c52      	ldrb	r2, [r2, r1]
 8002d7a:	701a      	strb	r2, [r3, #0]
 8002d7c:	68fb      	ldr	r3, [r7, #12]
 8002d7e:	681b      	ldr	r3, [r3, #0]
 8002d80:	699a      	ldr	r2, [r3, #24]
 8002d82:	2380      	movs	r3, #128	@ 0x80
 8002d84:	021b      	lsls	r3, r3, #8
 8002d86:	401a      	ands	r2, r3
 8002d88:	2380      	movs	r3, #128	@ 0x80
 8002d8a:	021b      	lsls	r3, r3, #8
 8002d8c:	429a      	cmp	r2, r3
 8002d8e:	d126      	bne.n	8002dde <I2C_IsErrorOccurred+0xda>
 8002d90:	697a      	ldr	r2, [r7, #20]
 8002d92:	2380      	movs	r3, #128	@ 0x80
 8002d94:	01db      	lsls	r3, r3, #7
 8002d96:	429a      	cmp	r2, r3
 8002d98:	d021      	beq.n	8002dde <I2C_IsErrorOccurred+0xda>
 8002d9a:	183b      	adds	r3, r7, r0
 8002d9c:	781b      	ldrb	r3, [r3, #0]
 8002d9e:	2b20      	cmp	r3, #32
 8002da0:	d01d      	beq.n	8002dde <I2C_IsErrorOccurred+0xda>
 8002da2:	68fb      	ldr	r3, [r7, #12]
 8002da4:	681b      	ldr	r3, [r3, #0]
 8002da6:	685a      	ldr	r2, [r3, #4]
 8002da8:	68fb      	ldr	r3, [r7, #12]
 8002daa:	681b      	ldr	r3, [r3, #0]
 8002dac:	2180      	movs	r1, #128	@ 0x80
 8002dae:	01c9      	lsls	r1, r1, #7
 8002db0:	430a      	orrs	r2, r1
 8002db2:	605a      	str	r2, [r3, #4]
 8002db4:	f7ff f81a 	bl	8001dec <HAL_GetTick>
 8002db8:	0003      	movs	r3, r0
 8002dba:	61fb      	str	r3, [r7, #28]
 8002dbc:	e00f      	b.n	8002dde <I2C_IsErrorOccurred+0xda>
 8002dbe:	f7ff f815 	bl	8001dec <HAL_GetTick>
 8002dc2:	0002      	movs	r2, r0
 8002dc4:	69fb      	ldr	r3, [r7, #28]
 8002dc6:	1ad3      	subs	r3, r2, r3
 8002dc8:	2b19      	cmp	r3, #25
 8002dca:	d908      	bls.n	8002dde <I2C_IsErrorOccurred+0xda>
 8002dcc:	6a3b      	ldr	r3, [r7, #32]
 8002dce:	2220      	movs	r2, #32
 8002dd0:	4313      	orrs	r3, r2
 8002dd2:	623b      	str	r3, [r7, #32]
 8002dd4:	2327      	movs	r3, #39	@ 0x27
 8002dd6:	18fb      	adds	r3, r7, r3
 8002dd8:	2201      	movs	r2, #1
 8002dda:	701a      	strb	r2, [r3, #0]
 8002ddc:	e006      	b.n	8002dec <I2C_IsErrorOccurred+0xe8>
 8002dde:	68fb      	ldr	r3, [r7, #12]
 8002de0:	681b      	ldr	r3, [r3, #0]
 8002de2:	699b      	ldr	r3, [r3, #24]
 8002de4:	2220      	movs	r2, #32
 8002de6:	4013      	ands	r3, r2
 8002de8:	2b20      	cmp	r3, #32
 8002dea:	d1e8      	bne.n	8002dbe <I2C_IsErrorOccurred+0xba>
 8002dec:	68fb      	ldr	r3, [r7, #12]
 8002dee:	681b      	ldr	r3, [r3, #0]
 8002df0:	699b      	ldr	r3, [r3, #24]
 8002df2:	2220      	movs	r2, #32
 8002df4:	4013      	ands	r3, r2
 8002df6:	2b20      	cmp	r3, #32
 8002df8:	d004      	beq.n	8002e04 <I2C_IsErrorOccurred+0x100>
 8002dfa:	2327      	movs	r3, #39	@ 0x27
 8002dfc:	18fb      	adds	r3, r7, r3
 8002dfe:	781b      	ldrb	r3, [r3, #0]
 8002e00:	2b00      	cmp	r3, #0
 8002e02:	d09b      	beq.n	8002d3c <I2C_IsErrorOccurred+0x38>
 8002e04:	2327      	movs	r3, #39	@ 0x27
 8002e06:	18fb      	adds	r3, r7, r3
 8002e08:	781b      	ldrb	r3, [r3, #0]
 8002e0a:	2b00      	cmp	r3, #0
 8002e0c:	d103      	bne.n	8002e16 <I2C_IsErrorOccurred+0x112>
 8002e0e:	68fb      	ldr	r3, [r7, #12]
 8002e10:	681b      	ldr	r3, [r3, #0]
 8002e12:	2220      	movs	r2, #32
 8002e14:	61da      	str	r2, [r3, #28]
 8002e16:	6a3b      	ldr	r3, [r7, #32]
 8002e18:	2204      	movs	r2, #4
 8002e1a:	4313      	orrs	r3, r2
 8002e1c:	623b      	str	r3, [r7, #32]
 8002e1e:	2327      	movs	r3, #39	@ 0x27
 8002e20:	18fb      	adds	r3, r7, r3
 8002e22:	2201      	movs	r2, #1
 8002e24:	701a      	strb	r2, [r3, #0]
 8002e26:	68fb      	ldr	r3, [r7, #12]
 8002e28:	681b      	ldr	r3, [r3, #0]
 8002e2a:	699b      	ldr	r3, [r3, #24]
 8002e2c:	61bb      	str	r3, [r7, #24]
 8002e2e:	69ba      	ldr	r2, [r7, #24]
 8002e30:	2380      	movs	r3, #128	@ 0x80
 8002e32:	005b      	lsls	r3, r3, #1
 8002e34:	4013      	ands	r3, r2
 8002e36:	d00c      	beq.n	8002e52 <I2C_IsErrorOccurred+0x14e>
 8002e38:	6a3b      	ldr	r3, [r7, #32]
 8002e3a:	2201      	movs	r2, #1
 8002e3c:	4313      	orrs	r3, r2
 8002e3e:	623b      	str	r3, [r7, #32]
 8002e40:	68fb      	ldr	r3, [r7, #12]
 8002e42:	681b      	ldr	r3, [r3, #0]
 8002e44:	2280      	movs	r2, #128	@ 0x80
 8002e46:	0052      	lsls	r2, r2, #1
 8002e48:	61da      	str	r2, [r3, #28]
 8002e4a:	2327      	movs	r3, #39	@ 0x27
 8002e4c:	18fb      	adds	r3, r7, r3
 8002e4e:	2201      	movs	r2, #1
 8002e50:	701a      	strb	r2, [r3, #0]
 8002e52:	69ba      	ldr	r2, [r7, #24]
 8002e54:	2380      	movs	r3, #128	@ 0x80
 8002e56:	00db      	lsls	r3, r3, #3
 8002e58:	4013      	ands	r3, r2
 8002e5a:	d00c      	beq.n	8002e76 <I2C_IsErrorOccurred+0x172>
 8002e5c:	6a3b      	ldr	r3, [r7, #32]
 8002e5e:	2208      	movs	r2, #8
 8002e60:	4313      	orrs	r3, r2
 8002e62:	623b      	str	r3, [r7, #32]
 8002e64:	68fb      	ldr	r3, [r7, #12]
 8002e66:	681b      	ldr	r3, [r3, #0]
 8002e68:	2280      	movs	r2, #128	@ 0x80
 8002e6a:	00d2      	lsls	r2, r2, #3
 8002e6c:	61da      	str	r2, [r3, #28]
 8002e6e:	2327      	movs	r3, #39	@ 0x27
 8002e70:	18fb      	adds	r3, r7, r3
 8002e72:	2201      	movs	r2, #1
 8002e74:	701a      	strb	r2, [r3, #0]
 8002e76:	69ba      	ldr	r2, [r7, #24]
 8002e78:	2380      	movs	r3, #128	@ 0x80
 8002e7a:	009b      	lsls	r3, r3, #2
 8002e7c:	4013      	ands	r3, r2
 8002e7e:	d00c      	beq.n	8002e9a <I2C_IsErrorOccurred+0x196>
 8002e80:	6a3b      	ldr	r3, [r7, #32]
 8002e82:	2202      	movs	r2, #2
 8002e84:	4313      	orrs	r3, r2
 8002e86:	623b      	str	r3, [r7, #32]
 8002e88:	68fb      	ldr	r3, [r7, #12]
 8002e8a:	681b      	ldr	r3, [r3, #0]
 8002e8c:	2280      	movs	r2, #128	@ 0x80
 8002e8e:	0092      	lsls	r2, r2, #2
 8002e90:	61da      	str	r2, [r3, #28]
 8002e92:	2327      	movs	r3, #39	@ 0x27
 8002e94:	18fb      	adds	r3, r7, r3
 8002e96:	2201      	movs	r2, #1
 8002e98:	701a      	strb	r2, [r3, #0]
 8002e9a:	2327      	movs	r3, #39	@ 0x27
 8002e9c:	18fb      	adds	r3, r7, r3
 8002e9e:	781b      	ldrb	r3, [r3, #0]
 8002ea0:	2b00      	cmp	r3, #0
 8002ea2:	d01d      	beq.n	8002ee0 <I2C_IsErrorOccurred+0x1dc>
 8002ea4:	68fb      	ldr	r3, [r7, #12]
 8002ea6:	0018      	movs	r0, r3
 8002ea8:	f7ff fe28 	bl	8002afc <I2C_Flush_TXDR>
 8002eac:	68fb      	ldr	r3, [r7, #12]
 8002eae:	681b      	ldr	r3, [r3, #0]
 8002eb0:	685a      	ldr	r2, [r3, #4]
 8002eb2:	68fb      	ldr	r3, [r7, #12]
 8002eb4:	681b      	ldr	r3, [r3, #0]
 8002eb6:	490e      	ldr	r1, [pc, #56]	@ (8002ef0 <I2C_IsErrorOccurred+0x1ec>)
 8002eb8:	400a      	ands	r2, r1
 8002eba:	605a      	str	r2, [r3, #4]
 8002ebc:	68fb      	ldr	r3, [r7, #12]
 8002ebe:	6c5a      	ldr	r2, [r3, #68]	@ 0x44
 8002ec0:	6a3b      	ldr	r3, [r7, #32]
 8002ec2:	431a      	orrs	r2, r3
 8002ec4:	68fb      	ldr	r3, [r7, #12]
 8002ec6:	645a      	str	r2, [r3, #68]	@ 0x44
 8002ec8:	68fb      	ldr	r3, [r7, #12]
 8002eca:	2241      	movs	r2, #65	@ 0x41
 8002ecc:	2120      	movs	r1, #32
 8002ece:	5499      	strb	r1, [r3, r2]
 8002ed0:	68fb      	ldr	r3, [r7, #12]
 8002ed2:	2242      	movs	r2, #66	@ 0x42
 8002ed4:	2100      	movs	r1, #0
 8002ed6:	5499      	strb	r1, [r3, r2]
 8002ed8:	68fb      	ldr	r3, [r7, #12]
 8002eda:	2240      	movs	r2, #64	@ 0x40
 8002edc:	2100      	movs	r1, #0
 8002ede:	5499      	strb	r1, [r3, r2]
 8002ee0:	2327      	movs	r3, #39	@ 0x27
 8002ee2:	18fb      	adds	r3, r7, r3
 8002ee4:	781b      	ldrb	r3, [r3, #0]
 8002ee6:	0018      	movs	r0, r3
 8002ee8:	46bd      	mov	sp, r7
 8002eea:	b00a      	add	sp, #40	@ 0x28
 8002eec:	bd80      	pop	{r7, pc}
 8002eee:	46c0      	nop			@ (mov r8, r8)
 8002ef0:	fe00e800 	.word	0xfe00e800

08002ef4 <I2C_TransferConfig>:
 8002ef4:	b590      	push	{r4, r7, lr}
 8002ef6:	b087      	sub	sp, #28
 8002ef8:	af00      	add	r7, sp, #0
 8002efa:	60f8      	str	r0, [r7, #12]
 8002efc:	0008      	movs	r0, r1
 8002efe:	0011      	movs	r1, r2
 8002f00:	607b      	str	r3, [r7, #4]
 8002f02:	240a      	movs	r4, #10
 8002f04:	193b      	adds	r3, r7, r4
 8002f06:	1c02      	adds	r2, r0, #0
 8002f08:	801a      	strh	r2, [r3, #0]
 8002f0a:	2009      	movs	r0, #9
 8002f0c:	183b      	adds	r3, r7, r0
 8002f0e:	1c0a      	adds	r2, r1, #0
 8002f10:	701a      	strb	r2, [r3, #0]
 8002f12:	193b      	adds	r3, r7, r4
 8002f14:	881b      	ldrh	r3, [r3, #0]
 8002f16:	059b      	lsls	r3, r3, #22
 8002f18:	0d9a      	lsrs	r2, r3, #22
 8002f1a:	183b      	adds	r3, r7, r0
 8002f1c:	781b      	ldrb	r3, [r3, #0]
 8002f1e:	0419      	lsls	r1, r3, #16
 8002f20:	23ff      	movs	r3, #255	@ 0xff
 8002f22:	041b      	lsls	r3, r3, #16
 8002f24:	400b      	ands	r3, r1
 8002f26:	431a      	orrs	r2, r3
 8002f28:	687b      	ldr	r3, [r7, #4]
 8002f2a:	431a      	orrs	r2, r3
 8002f2c:	6abb      	ldr	r3, [r7, #40]	@ 0x28
 8002f2e:	4313      	orrs	r3, r2
 8002f30:	005b      	lsls	r3, r3, #1
 8002f32:	085b      	lsrs	r3, r3, #1
 8002f34:	617b      	str	r3, [r7, #20]
 8002f36:	68fb      	ldr	r3, [r7, #12]
 8002f38:	681b      	ldr	r3, [r3, #0]
 8002f3a:	685b      	ldr	r3, [r3, #4]
 8002f3c:	6aba      	ldr	r2, [r7, #40]	@ 0x28
 8002f3e:	0d51      	lsrs	r1, r2, #21
 8002f40:	2280      	movs	r2, #128	@ 0x80
 8002f42:	00d2      	lsls	r2, r2, #3
 8002f44:	400a      	ands	r2, r1
 8002f46:	4907      	ldr	r1, [pc, #28]	@ (8002f64 <I2C_TransferConfig+0x70>)
 8002f48:	430a      	orrs	r2, r1
 8002f4a:	43d2      	mvns	r2, r2
 8002f4c:	401a      	ands	r2, r3
 8002f4e:	0011      	movs	r1, r2
 8002f50:	68fb      	ldr	r3, [r7, #12]
 8002f52:	681b      	ldr	r3, [r3, #0]
 8002f54:	697a      	ldr	r2, [r7, #20]
 8002f56:	430a      	orrs	r2, r1
 8002f58:	605a      	str	r2, [r3, #4]
 8002f5a:	46c0      	nop			@ (mov r8, r8)
 8002f5c:	46bd      	mov	sp, r7
 8002f5e:	b007      	add	sp, #28
 8002f60:	bd90      	pop	{r4, r7, pc}
 8002f62:	46c0      	nop			@ (mov r8, r8)
 8002f64:	03ff63ff 	.word	0x03ff63ff

08002f68 <HAL_I2CEx_ConfigAnalogFilter>:
 8002f68:	b580      	push	{r7, lr}
 8002f6a:	b082      	sub	sp, #8
 8002f6c:	af00      	add	r7, sp, #0
 8002f6e:	6078      	str	r0, [r7, #4]
 8002f70:	6039      	str	r1, [r7, #0]
 8002f72:	687b      	ldr	r3, [r7, #4]
 8002f74:	2241      	movs	r2, #65	@ 0x41
 8002f76:	5c9b      	ldrb	r3, [r3, r2]
 8002f78:	b2db      	uxtb	r3, r3
 8002f7a:	2b20      	cmp	r3, #32
 8002f7c:	d138      	bne.n	8002ff0 <HAL_I2CEx_ConfigAnalogFilter+0x88>
 8002f7e:	687b      	ldr	r3, [r7, #4]
 8002f80:	2240      	movs	r2, #64	@ 0x40
 8002f82:	5c9b      	ldrb	r3, [r3, r2]
 8002f84:	2b01      	cmp	r3, #1
 8002f86:	d101      	bne.n	8002f8c <HAL_I2CEx_ConfigAnalogFilter+0x24>
 8002f88:	2302      	movs	r3, #2
 8002f8a:	e032      	b.n	8002ff2 <HAL_I2CEx_ConfigAnalogFilter+0x8a>
 8002f8c:	687b      	ldr	r3, [r7, #4]
 8002f8e:	2240      	movs	r2, #64	@ 0x40
 8002f90:	2101      	movs	r1, #1
 8002f92:	5499      	strb	r1, [r3, r2]
 8002f94:	687b      	ldr	r3, [r7, #4]
 8002f96:	2241      	movs	r2, #65	@ 0x41
 8002f98:	2124      	movs	r1, #36	@ 0x24
 8002f9a:	5499      	strb	r1, [r3, r2]
 8002f9c:	687b      	ldr	r3, [r7, #4]
 8002f9e:	681b      	ldr	r3, [r3, #0]
 8002fa0:	681a      	ldr	r2, [r3, #0]
 8002fa2:	687b      	ldr	r3, [r7, #4]
 8002fa4:	681b      	ldr	r3, [r3, #0]
 8002fa6:	2101      	movs	r1, #1
 8002fa8:	438a      	bics	r2, r1
 8002faa:	601a      	str	r2, [r3, #0]
 8002fac:	687b      	ldr	r3, [r7, #4]
 8002fae:	681b      	ldr	r3, [r3, #0]
 8002fb0:	681a      	ldr	r2, [r3, #0]
 8002fb2:	687b      	ldr	r3, [r7, #4]
 8002fb4:	681b      	ldr	r3, [r3, #0]
 8002fb6:	4911      	ldr	r1, [pc, #68]	@ (8002ffc <HAL_I2CEx_ConfigAnalogFilter+0x94>)
 8002fb8:	400a      	ands	r2, r1
 8002fba:	601a      	str	r2, [r3, #0]
 8002fbc:	687b      	ldr	r3, [r7, #4]
 8002fbe:	681b      	ldr	r3, [r3, #0]
 8002fc0:	6819      	ldr	r1, [r3, #0]
 8002fc2:	687b      	ldr	r3, [r7, #4]
 8002fc4:	681b      	ldr	r3, [r3, #0]
 8002fc6:	683a      	ldr	r2, [r7, #0]
 8002fc8:	430a      	orrs	r2, r1
 8002fca:	601a      	str	r2, [r3, #0]
 8002fcc:	687b      	ldr	r3, [r7, #4]
 8002fce:	681b      	ldr	r3, [r3, #0]
 8002fd0:	681a      	ldr	r2, [r3, #0]
 8002fd2:	687b      	ldr	r3, [r7, #4]
 8002fd4:	681b      	ldr	r3, [r3, #0]
 8002fd6:	2101      	movs	r1, #1
 8002fd8:	430a      	orrs	r2, r1
 8002fda:	601a      	str	r2, [r3, #0]
 8002fdc:	687b      	ldr	r3, [r7, #4]
 8002fde:	2241      	movs	r2, #65	@ 0x41
 8002fe0:	2120      	movs	r1, #32
 8002fe2:	5499      	strb	r1, [r3, r2]
 8002fe4:	687b      	ldr	r3, [r7, #4]
 8002fe6:	2240      	movs	r2, #64	@ 0x40
 8002fe8:	2100      	movs	r1, #0
 8002fea:	5499      	strb	r1, [r3, r2]
 8002fec:	2300      	movs	r3, #0
 8002fee:	e000      	b.n	8002ff2 <HAL_I2CEx_ConfigAnalogFilter+0x8a>
 8002ff0:	2302      	movs	r3, #2
 8002ff2:	0018      	movs	r0, r3
 8002ff4:	46bd      	mov	sp, r7
 8002ff6:	b002      	add	sp, #8
 8002ff8:	bd80      	pop	{r7, pc}
 8002ffa:	46c0      	nop			@ (mov r8, r8)
 8002ffc:	ffffefff 	.word	0xffffefff

08003000 <HAL_I2CEx_ConfigDigitalFilter>:
 8003000:	b580      	push	{r7, lr}
 8003002:	b084      	sub	sp, #16
 8003004:	af00      	add	r7, sp, #0
 8003006:	6078      	str	r0, [r7, #4]
 8003008:	6039      	str	r1, [r7, #0]
 800300a:	687b      	ldr	r3, [r7, #4]
 800300c:	2241      	movs	r2, #65	@ 0x41
 800300e:	5c9b      	ldrb	r3, [r3, r2]
 8003010:	b2db      	uxtb	r3, r3
 8003012:	2b20      	cmp	r3, #32
 8003014:	d139      	bne.n	800308a <HAL_I2CEx_ConfigDigitalFilter+0x8a>
 8003016:	687b      	ldr	r3, [r7, #4]
 8003018:	2240      	movs	r2, #64	@ 0x40
 800301a:	5c9b      	ldrb	r3, [r3, r2]
 800301c:	2b01      	cmp	r3, #1
 800301e:	d101      	bne.n	8003024 <HAL_I2CEx_ConfigDigitalFilter+0x24>
 8003020:	2302      	movs	r3, #2
 8003022:	e033      	b.n	800308c <HAL_I2CEx_ConfigDigitalFilter+0x8c>
 8003024:	687b      	ldr	r3, [r7, #4]
 8003026:	2240      	movs	r2, #64	@ 0x40
 8003028:	2101      	movs	r1, #1
 800302a:	5499      	strb	r1, [r3, r2]
 800302c:	687b      	ldr	r3, [r7, #4]
 800302e:	2241      	movs	r2, #65	@ 0x41
 8003030:	2124      	movs	r1, #36	@ 0x24
 8003032:	5499      	strb	r1, [r3, r2]
 8003034:	687b      	ldr	r3, [r7, #4]
 8003036:	681b      	ldr	r3, [r3, #0]
 8003038:	681a      	ldr	r2, [r3, #0]
 800303a:	687b      	ldr	r3, [r7, #4]
 800303c:	681b      	ldr	r3, [r3, #0]
 800303e:	2101      	movs	r1, #1
 8003040:	438a      	bics	r2, r1
 8003042:	601a      	str	r2, [r3, #0]
 8003044:	687b      	ldr	r3, [r7, #4]
 8003046:	681b      	ldr	r3, [r3, #0]
 8003048:	681b      	ldr	r3, [r3, #0]
 800304a:	60fb      	str	r3, [r7, #12]
 800304c:	68fb      	ldr	r3, [r7, #12]
 800304e:	4a11      	ldr	r2, [pc, #68]	@ (8003094 <HAL_I2CEx_ConfigDigitalFilter+0x94>)
 8003050:	4013      	ands	r3, r2
 8003052:	60fb      	str	r3, [r7, #12]
 8003054:	683b      	ldr	r3, [r7, #0]
 8003056:	021b      	lsls	r3, r3, #8
 8003058:	68fa      	ldr	r2, [r7, #12]
 800305a:	4313      	orrs	r3, r2
 800305c:	60fb      	str	r3, [r7, #12]
 800305e:	687b      	ldr	r3, [r7, #4]
 8003060:	681b      	ldr	r3, [r3, #0]
 8003062:	68fa      	ldr	r2, [r7, #12]
 8003064:	601a      	str	r2, [r3, #0]
 8003066:	687b      	ldr	r3, [r7, #4]
 8003068:	681b      	ldr	r3, [r3, #0]
 800306a:	681a      	ldr	r2, [r3, #0]
 800306c:	687b      	ldr	r3, [r7, #4]
 800306e:	681b      	ldr	r3, [r3, #0]
 8003070:	2101      	movs	r1, #1
 8003072:	430a      	orrs	r2, r1
 8003074:	601a      	str	r2, [r3, #0]
 8003076:	687b      	ldr	r3, [r7, #4]
 8003078:	2241      	movs	r2, #65	@ 0x41
 800307a:	2120      	movs	r1, #32
 800307c:	5499      	strb	r1, [r3, r2]
 800307e:	687b      	ldr	r3, [r7, #4]
 8003080:	2240      	movs	r2, #64	@ 0x40
 8003082:	2100      	movs	r1, #0
 8003084:	5499      	strb	r1, [r3, r2]
 8003086:	2300      	movs	r3, #0
 8003088:	e000      	b.n	800308c <HAL_I2CEx_ConfigDigitalFilter+0x8c>
 800308a:	2302      	movs	r3, #2
 800308c:	0018      	movs	r0, r3
 800308e:	46bd      	mov	sp, r7
 8003090:	b004      	add	sp, #16
 8003092:	bd80      	pop	{r7, pc}
 8003094:	fffff0ff 	.word	0xfffff0ff

08003098 <HAL_PWREx_ControlVoltageScaling>:
 8003098:	b580      	push	{r7, lr}
 800309a:	b084      	sub	sp, #16
 800309c:	af00      	add	r7, sp, #0
 800309e:	6078      	str	r0, [r7, #4]
 80030a0:	4b19      	ldr	r3, [pc, #100]	@ (8003108 <HAL_PWREx_ControlVoltageScaling+0x70>)
 80030a2:	681b      	ldr	r3, [r3, #0]
 80030a4:	4a19      	ldr	r2, [pc, #100]	@ (800310c <HAL_PWREx_ControlVoltageScaling+0x74>)
 80030a6:	4013      	ands	r3, r2
 80030a8:	0019      	movs	r1, r3
 80030aa:	4b17      	ldr	r3, [pc, #92]	@ (8003108 <HAL_PWREx_ControlVoltageScaling+0x70>)
 80030ac:	687a      	ldr	r2, [r7, #4]
 80030ae:	430a      	orrs	r2, r1
 80030b0:	601a      	str	r2, [r3, #0]
 80030b2:	687a      	ldr	r2, [r7, #4]
 80030b4:	2380      	movs	r3, #128	@ 0x80
 80030b6:	009b      	lsls	r3, r3, #2
 80030b8:	429a      	cmp	r2, r3
 80030ba:	d11f      	bne.n	80030fc <HAL_PWREx_ControlVoltageScaling+0x64>
 80030bc:	4b14      	ldr	r3, [pc, #80]	@ (8003110 <HAL_PWREx_ControlVoltageScaling+0x78>)
 80030be:	681a      	ldr	r2, [r3, #0]
 80030c0:	0013      	movs	r3, r2
 80030c2:	005b      	lsls	r3, r3, #1
 80030c4:	189b      	adds	r3, r3, r2
 80030c6:	005b      	lsls	r3, r3, #1
 80030c8:	4912      	ldr	r1, [pc, #72]	@ (8003114 <HAL_PWREx_ControlVoltageScaling+0x7c>)
 80030ca:	0018      	movs	r0, r3
 80030cc:	f7fd f822 	bl	8000114 <__udivsi3>
 80030d0:	0003      	movs	r3, r0
 80030d2:	3301      	adds	r3, #1
 80030d4:	60fb      	str	r3, [r7, #12]
 80030d6:	e008      	b.n	80030ea <HAL_PWREx_ControlVoltageScaling+0x52>
 80030d8:	68fb      	ldr	r3, [r7, #12]
 80030da:	2b00      	cmp	r3, #0
 80030dc:	d003      	beq.n	80030e6 <HAL_PWREx_ControlVoltageScaling+0x4e>
 80030de:	68fb      	ldr	r3, [r7, #12]
 80030e0:	3b01      	subs	r3, #1
 80030e2:	60fb      	str	r3, [r7, #12]
 80030e4:	e001      	b.n	80030ea <HAL_PWREx_ControlVoltageScaling+0x52>
 80030e6:	2303      	movs	r3, #3
 80030e8:	e009      	b.n	80030fe <HAL_PWREx_ControlVoltageScaling+0x66>
 80030ea:	4b07      	ldr	r3, [pc, #28]	@ (8003108 <HAL_PWREx_ControlVoltageScaling+0x70>)
 80030ec:	695a      	ldr	r2, [r3, #20]
 80030ee:	2380      	movs	r3, #128	@ 0x80
 80030f0:	00db      	lsls	r3, r3, #3
 80030f2:	401a      	ands	r2, r3
 80030f4:	2380      	movs	r3, #128	@ 0x80
 80030f6:	00db      	lsls	r3, r3, #3
 80030f8:	429a      	cmp	r2, r3
 80030fa:	d0ed      	beq.n	80030d8 <HAL_PWREx_ControlVoltageScaling+0x40>
 80030fc:	2300      	movs	r3, #0
 80030fe:	0018      	movs	r0, r3
 8003100:	46bd      	mov	sp, r7
 8003102:	b004      	add	sp, #16
 8003104:	bd80      	pop	{r7, pc}
 8003106:	46c0      	nop			@ (mov r8, r8)
 8003108:	40007000 	.word	0x40007000
 800310c:	fffff9ff 	.word	0xfffff9ff
 8003110:	20000014 	.word	0x20000014
 8003114:	000f4240 	.word	0x000f4240

08003118 <HAL_RCC_OscConfig>:
 8003118:	b580      	push	{r7, lr}
 800311a:	b088      	sub	sp, #32
 800311c:	af00      	add	r7, sp, #0
 800311e:	6078      	str	r0, [r7, #4]
 8003120:	687b      	ldr	r3, [r7, #4]
 8003122:	2b00      	cmp	r3, #0
 8003124:	d101      	bne.n	800312a <HAL_RCC_OscConfig+0x12>
 8003126:	2301      	movs	r3, #1
 8003128:	e2f3      	b.n	8003712 <HAL_RCC_OscConfig+0x5fa>
 800312a:	687b      	ldr	r3, [r7, #4]
 800312c:	681b      	ldr	r3, [r3, #0]
 800312e:	2201      	movs	r2, #1
 8003130:	4013      	ands	r3, r2
 8003132:	d100      	bne.n	8003136 <HAL_RCC_OscConfig+0x1e>
 8003134:	e07c      	b.n	8003230 <HAL_RCC_OscConfig+0x118>
 8003136:	4bc3      	ldr	r3, [pc, #780]	@ (8003444 <HAL_RCC_OscConfig+0x32c>)
 8003138:	689b      	ldr	r3, [r3, #8]
 800313a:	2238      	movs	r2, #56	@ 0x38
 800313c:	4013      	ands	r3, r2
 800313e:	61bb      	str	r3, [r7, #24]
 8003140:	4bc0      	ldr	r3, [pc, #768]	@ (8003444 <HAL_RCC_OscConfig+0x32c>)
 8003142:	68db      	ldr	r3, [r3, #12]
 8003144:	2203      	movs	r2, #3
 8003146:	4013      	ands	r3, r2
 8003148:	617b      	str	r3, [r7, #20]
 800314a:	69bb      	ldr	r3, [r7, #24]
 800314c:	2b10      	cmp	r3, #16
 800314e:	d102      	bne.n	8003156 <HAL_RCC_OscConfig+0x3e>
 8003150:	697b      	ldr	r3, [r7, #20]
 8003152:	2b03      	cmp	r3, #3
 8003154:	d002      	beq.n	800315c <HAL_RCC_OscConfig+0x44>
 8003156:	69bb      	ldr	r3, [r7, #24]
 8003158:	2b08      	cmp	r3, #8
 800315a:	d10b      	bne.n	8003174 <HAL_RCC_OscConfig+0x5c>
 800315c:	4bb9      	ldr	r3, [pc, #740]	@ (8003444 <HAL_RCC_OscConfig+0x32c>)
 800315e:	681a      	ldr	r2, [r3, #0]
 8003160:	2380      	movs	r3, #128	@ 0x80
 8003162:	029b      	lsls	r3, r3, #10
 8003164:	4013      	ands	r3, r2
 8003166:	d062      	beq.n	800322e <HAL_RCC_OscConfig+0x116>
 8003168:	687b      	ldr	r3, [r7, #4]
 800316a:	685b      	ldr	r3, [r3, #4]
 800316c:	2b00      	cmp	r3, #0
 800316e:	d15e      	bne.n	800322e <HAL_RCC_OscConfig+0x116>
 8003170:	2301      	movs	r3, #1
 8003172:	e2ce      	b.n	8003712 <HAL_RCC_OscConfig+0x5fa>
 8003174:	687b      	ldr	r3, [r7, #4]
 8003176:	685a      	ldr	r2, [r3, #4]
 8003178:	2380      	movs	r3, #128	@ 0x80
 800317a:	025b      	lsls	r3, r3, #9
 800317c:	429a      	cmp	r2, r3
 800317e:	d107      	bne.n	8003190 <HAL_RCC_OscConfig+0x78>
 8003180:	4bb0      	ldr	r3, [pc, #704]	@ (8003444 <HAL_RCC_OscConfig+0x32c>)
 8003182:	681a      	ldr	r2, [r3, #0]
 8003184:	4baf      	ldr	r3, [pc, #700]	@ (8003444 <HAL_RCC_OscConfig+0x32c>)
 8003186:	2180      	movs	r1, #128	@ 0x80
 8003188:	0249      	lsls	r1, r1, #9
 800318a:	430a      	orrs	r2, r1
 800318c:	601a      	str	r2, [r3, #0]
 800318e:	e020      	b.n	80031d2 <HAL_RCC_OscConfig+0xba>
 8003190:	687b      	ldr	r3, [r7, #4]
 8003192:	685a      	ldr	r2, [r3, #4]
 8003194:	23a0      	movs	r3, #160	@ 0xa0
 8003196:	02db      	lsls	r3, r3, #11
 8003198:	429a      	cmp	r2, r3
 800319a:	d10e      	bne.n	80031ba <HAL_RCC_OscConfig+0xa2>
 800319c:	4ba9      	ldr	r3, [pc, #676]	@ (8003444 <HAL_RCC_OscConfig+0x32c>)
 800319e:	681a      	ldr	r2, [r3, #0]
 80031a0:	4ba8      	ldr	r3, [pc, #672]	@ (8003444 <HAL_RCC_OscConfig+0x32c>)
 80031a2:	2180      	movs	r1, #128	@ 0x80
 80031a4:	02c9      	lsls	r1, r1, #11
 80031a6:	430a      	orrs	r2, r1
 80031a8:	601a      	str	r2, [r3, #0]
 80031aa:	4ba6      	ldr	r3, [pc, #664]	@ (8003444 <HAL_RCC_OscConfig+0x32c>)
 80031ac:	681a      	ldr	r2, [r3, #0]
 80031ae:	4ba5      	ldr	r3, [pc, #660]	@ (8003444 <HAL_RCC_OscConfig+0x32c>)
 80031b0:	2180      	movs	r1, #128	@ 0x80
 80031b2:	0249      	lsls	r1, r1, #9
 80031b4:	430a      	orrs	r2, r1
 80031b6:	601a      	str	r2, [r3, #0]
 80031b8:	e00b      	b.n	80031d2 <HAL_RCC_OscConfig+0xba>
 80031ba:	4ba2      	ldr	r3, [pc, #648]	@ (8003444 <HAL_RCC_OscConfig+0x32c>)
 80031bc:	681a      	ldr	r2, [r3, #0]
 80031be:	4ba1      	ldr	r3, [pc, #644]	@ (8003444 <HAL_RCC_OscConfig+0x32c>)
 80031c0:	49a1      	ldr	r1, [pc, #644]	@ (8003448 <HAL_RCC_OscConfig+0x330>)
 80031c2:	400a      	ands	r2, r1
 80031c4:	601a      	str	r2, [r3, #0]
 80031c6:	4b9f      	ldr	r3, [pc, #636]	@ (8003444 <HAL_RCC_OscConfig+0x32c>)
 80031c8:	681a      	ldr	r2, [r3, #0]
 80031ca:	4b9e      	ldr	r3, [pc, #632]	@ (8003444 <HAL_RCC_OscConfig+0x32c>)
 80031cc:	499f      	ldr	r1, [pc, #636]	@ (800344c <HAL_RCC_OscConfig+0x334>)
 80031ce:	400a      	ands	r2, r1
 80031d0:	601a      	str	r2, [r3, #0]
 80031d2:	687b      	ldr	r3, [r7, #4]
 80031d4:	685b      	ldr	r3, [r3, #4]
 80031d6:	2b00      	cmp	r3, #0
 80031d8:	d014      	beq.n	8003204 <HAL_RCC_OscConfig+0xec>
 80031da:	f7fe fe07 	bl	8001dec <HAL_GetTick>
 80031de:	0003      	movs	r3, r0
 80031e0:	613b      	str	r3, [r7, #16]
 80031e2:	e008      	b.n	80031f6 <HAL_RCC_OscConfig+0xde>
 80031e4:	f7fe fe02 	bl	8001dec <HAL_GetTick>
 80031e8:	0002      	movs	r2, r0
 80031ea:	693b      	ldr	r3, [r7, #16]
 80031ec:	1ad3      	subs	r3, r2, r3
 80031ee:	2b64      	cmp	r3, #100	@ 0x64
 80031f0:	d901      	bls.n	80031f6 <HAL_RCC_OscConfig+0xde>
 80031f2:	2303      	movs	r3, #3
 80031f4:	e28d      	b.n	8003712 <HAL_RCC_OscConfig+0x5fa>
 80031f6:	4b93      	ldr	r3, [pc, #588]	@ (8003444 <HAL_RCC_OscConfig+0x32c>)
 80031f8:	681a      	ldr	r2, [r3, #0]
 80031fa:	2380      	movs	r3, #128	@ 0x80
 80031fc:	029b      	lsls	r3, r3, #10
 80031fe:	4013      	ands	r3, r2
 8003200:	d0f0      	beq.n	80031e4 <HAL_RCC_OscConfig+0xcc>
 8003202:	e015      	b.n	8003230 <HAL_RCC_OscConfig+0x118>
 8003204:	f7fe fdf2 	bl	8001dec <HAL_GetTick>
 8003208:	0003      	movs	r3, r0
 800320a:	613b      	str	r3, [r7, #16]
 800320c:	e008      	b.n	8003220 <HAL_RCC_OscConfig+0x108>
 800320e:	f7fe fded 	bl	8001dec <HAL_GetTick>
 8003212:	0002      	movs	r2, r0
 8003214:	693b      	ldr	r3, [r7, #16]
 8003216:	1ad3      	subs	r3, r2, r3
 8003218:	2b64      	cmp	r3, #100	@ 0x64
 800321a:	d901      	bls.n	8003220 <HAL_RCC_OscConfig+0x108>
 800321c:	2303      	movs	r3, #3
 800321e:	e278      	b.n	8003712 <HAL_RCC_OscConfig+0x5fa>
 8003220:	4b88      	ldr	r3, [pc, #544]	@ (8003444 <HAL_RCC_OscConfig+0x32c>)
 8003222:	681a      	ldr	r2, [r3, #0]
 8003224:	2380      	movs	r3, #128	@ 0x80
 8003226:	029b      	lsls	r3, r3, #10
 8003228:	4013      	ands	r3, r2
 800322a:	d1f0      	bne.n	800320e <HAL_RCC_OscConfig+0xf6>
 800322c:	e000      	b.n	8003230 <HAL_RCC_OscConfig+0x118>
 800322e:	46c0      	nop			@ (mov r8, r8)
 8003230:	687b      	ldr	r3, [r7, #4]
 8003232:	681b      	ldr	r3, [r3, #0]
 8003234:	2202      	movs	r2, #2
 8003236:	4013      	ands	r3, r2
 8003238:	d100      	bne.n	800323c <HAL_RCC_OscConfig+0x124>
 800323a:	e099      	b.n	8003370 <HAL_RCC_OscConfig+0x258>
 800323c:	4b81      	ldr	r3, [pc, #516]	@ (8003444 <HAL_RCC_OscConfig+0x32c>)
 800323e:	689b      	ldr	r3, [r3, #8]
 8003240:	2238      	movs	r2, #56	@ 0x38
 8003242:	4013      	ands	r3, r2
 8003244:	61bb      	str	r3, [r7, #24]
 8003246:	4b7f      	ldr	r3, [pc, #508]	@ (8003444 <HAL_RCC_OscConfig+0x32c>)
 8003248:	68db      	ldr	r3, [r3, #12]
 800324a:	2203      	movs	r2, #3
 800324c:	4013      	ands	r3, r2
 800324e:	617b      	str	r3, [r7, #20]
 8003250:	69bb      	ldr	r3, [r7, #24]
 8003252:	2b10      	cmp	r3, #16
 8003254:	d102      	bne.n	800325c <HAL_RCC_OscConfig+0x144>
 8003256:	697b      	ldr	r3, [r7, #20]
 8003258:	2b02      	cmp	r3, #2
 800325a:	d002      	beq.n	8003262 <HAL_RCC_OscConfig+0x14a>
 800325c:	69bb      	ldr	r3, [r7, #24]
 800325e:	2b00      	cmp	r3, #0
 8003260:	d135      	bne.n	80032ce <HAL_RCC_OscConfig+0x1b6>
 8003262:	4b78      	ldr	r3, [pc, #480]	@ (8003444 <HAL_RCC_OscConfig+0x32c>)
 8003264:	681a      	ldr	r2, [r3, #0]
 8003266:	2380      	movs	r3, #128	@ 0x80
 8003268:	00db      	lsls	r3, r3, #3
 800326a:	4013      	ands	r3, r2
 800326c:	d005      	beq.n	800327a <HAL_RCC_OscConfig+0x162>
 800326e:	687b      	ldr	r3, [r7, #4]
 8003270:	68db      	ldr	r3, [r3, #12]
 8003272:	2b00      	cmp	r3, #0
 8003274:	d101      	bne.n	800327a <HAL_RCC_OscConfig+0x162>
 8003276:	2301      	movs	r3, #1
 8003278:	e24b      	b.n	8003712 <HAL_RCC_OscConfig+0x5fa>
 800327a:	4b72      	ldr	r3, [pc, #456]	@ (8003444 <HAL_RCC_OscConfig+0x32c>)
 800327c:	685b      	ldr	r3, [r3, #4]
 800327e:	4a74      	ldr	r2, [pc, #464]	@ (8003450 <HAL_RCC_OscConfig+0x338>)
 8003280:	4013      	ands	r3, r2
 8003282:	0019      	movs	r1, r3
 8003284:	687b      	ldr	r3, [r7, #4]
 8003286:	695b      	ldr	r3, [r3, #20]
 8003288:	021a      	lsls	r2, r3, #8
 800328a:	4b6e      	ldr	r3, [pc, #440]	@ (8003444 <HAL_RCC_OscConfig+0x32c>)
 800328c:	430a      	orrs	r2, r1
 800328e:	605a      	str	r2, [r3, #4]
 8003290:	69bb      	ldr	r3, [r7, #24]
 8003292:	2b00      	cmp	r3, #0
 8003294:	d112      	bne.n	80032bc <HAL_RCC_OscConfig+0x1a4>
 8003296:	4b6b      	ldr	r3, [pc, #428]	@ (8003444 <HAL_RCC_OscConfig+0x32c>)
 8003298:	681b      	ldr	r3, [r3, #0]
 800329a:	4a6e      	ldr	r2, [pc, #440]	@ (8003454 <HAL_RCC_OscConfig+0x33c>)
 800329c:	4013      	ands	r3, r2
 800329e:	0019      	movs	r1, r3
 80032a0:	687b      	ldr	r3, [r7, #4]
 80032a2:	691a      	ldr	r2, [r3, #16]
 80032a4:	4b67      	ldr	r3, [pc, #412]	@ (8003444 <HAL_RCC_OscConfig+0x32c>)
 80032a6:	430a      	orrs	r2, r1
 80032a8:	601a      	str	r2, [r3, #0]
 80032aa:	4b66      	ldr	r3, [pc, #408]	@ (8003444 <HAL_RCC_OscConfig+0x32c>)
 80032ac:	681b      	ldr	r3, [r3, #0]
 80032ae:	0adb      	lsrs	r3, r3, #11
 80032b0:	2207      	movs	r2, #7
 80032b2:	4013      	ands	r3, r2
 80032b4:	4a68      	ldr	r2, [pc, #416]	@ (8003458 <HAL_RCC_OscConfig+0x340>)
 80032b6:	40da      	lsrs	r2, r3
 80032b8:	4b68      	ldr	r3, [pc, #416]	@ (800345c <HAL_RCC_OscConfig+0x344>)
 80032ba:	601a      	str	r2, [r3, #0]
 80032bc:	4b68      	ldr	r3, [pc, #416]	@ (8003460 <HAL_RCC_OscConfig+0x348>)
 80032be:	681b      	ldr	r3, [r3, #0]
 80032c0:	0018      	movs	r0, r3
 80032c2:	f7fe fd37 	bl	8001d34 <HAL_InitTick>
 80032c6:	1e03      	subs	r3, r0, #0
 80032c8:	d051      	beq.n	800336e <HAL_RCC_OscConfig+0x256>
 80032ca:	2301      	movs	r3, #1
 80032cc:	e221      	b.n	8003712 <HAL_RCC_OscConfig+0x5fa>
 80032ce:	687b      	ldr	r3, [r7, #4]
 80032d0:	68db      	ldr	r3, [r3, #12]
 80032d2:	2b00      	cmp	r3, #0
 80032d4:	d030      	beq.n	8003338 <HAL_RCC_OscConfig+0x220>
 80032d6:	4b5b      	ldr	r3, [pc, #364]	@ (8003444 <HAL_RCC_OscConfig+0x32c>)
 80032d8:	681b      	ldr	r3, [r3, #0]
 80032da:	4a5e      	ldr	r2, [pc, #376]	@ (8003454 <HAL_RCC_OscConfig+0x33c>)
 80032dc:	4013      	ands	r3, r2
 80032de:	0019      	movs	r1, r3
 80032e0:	687b      	ldr	r3, [r7, #4]
 80032e2:	691a      	ldr	r2, [r3, #16]
 80032e4:	4b57      	ldr	r3, [pc, #348]	@ (8003444 <HAL_RCC_OscConfig+0x32c>)
 80032e6:	430a      	orrs	r2, r1
 80032e8:	601a      	str	r2, [r3, #0]
 80032ea:	4b56      	ldr	r3, [pc, #344]	@ (8003444 <HAL_RCC_OscConfig+0x32c>)
 80032ec:	681a      	ldr	r2, [r3, #0]
 80032ee:	4b55      	ldr	r3, [pc, #340]	@ (8003444 <HAL_RCC_OscConfig+0x32c>)
 80032f0:	2180      	movs	r1, #128	@ 0x80
 80032f2:	0049      	lsls	r1, r1, #1
 80032f4:	430a      	orrs	r2, r1
 80032f6:	601a      	str	r2, [r3, #0]
 80032f8:	f7fe fd78 	bl	8001dec <HAL_GetTick>
 80032fc:	0003      	movs	r3, r0
 80032fe:	613b      	str	r3, [r7, #16]
 8003300:	e008      	b.n	8003314 <HAL_RCC_OscConfig+0x1fc>
 8003302:	f7fe fd73 	bl	8001dec <HAL_GetTick>
 8003306:	0002      	movs	r2, r0
 8003308:	693b      	ldr	r3, [r7, #16]
 800330a:	1ad3      	subs	r3, r2, r3
 800330c:	2b02      	cmp	r3, #2
 800330e:	d901      	bls.n	8003314 <HAL_RCC_OscConfig+0x1fc>
 8003310:	2303      	movs	r3, #3
 8003312:	e1fe      	b.n	8003712 <HAL_RCC_OscConfig+0x5fa>
 8003314:	4b4b      	ldr	r3, [pc, #300]	@ (8003444 <HAL_RCC_OscConfig+0x32c>)
 8003316:	681a      	ldr	r2, [r3, #0]
 8003318:	2380      	movs	r3, #128	@ 0x80
 800331a:	00db      	lsls	r3, r3, #3
 800331c:	4013      	ands	r3, r2
 800331e:	d0f0      	beq.n	8003302 <HAL_RCC_OscConfig+0x1ea>
 8003320:	4b48      	ldr	r3, [pc, #288]	@ (8003444 <HAL_RCC_OscConfig+0x32c>)
 8003322:	685b      	ldr	r3, [r3, #4]
 8003324:	4a4a      	ldr	r2, [pc, #296]	@ (8003450 <HAL_RCC_OscConfig+0x338>)
 8003326:	4013      	ands	r3, r2
 8003328:	0019      	movs	r1, r3
 800332a:	687b      	ldr	r3, [r7, #4]
 800332c:	695b      	ldr	r3, [r3, #20]
 800332e:	021a      	lsls	r2, r3, #8
 8003330:	4b44      	ldr	r3, [pc, #272]	@ (8003444 <HAL_RCC_OscConfig+0x32c>)
 8003332:	430a      	orrs	r2, r1
 8003334:	605a      	str	r2, [r3, #4]
 8003336:	e01b      	b.n	8003370 <HAL_RCC_OscConfig+0x258>
 8003338:	4b42      	ldr	r3, [pc, #264]	@ (8003444 <HAL_RCC_OscConfig+0x32c>)
 800333a:	681a      	ldr	r2, [r3, #0]
 800333c:	4b41      	ldr	r3, [pc, #260]	@ (8003444 <HAL_RCC_OscConfig+0x32c>)
 800333e:	4949      	ldr	r1, [pc, #292]	@ (8003464 <HAL_RCC_OscConfig+0x34c>)
 8003340:	400a      	ands	r2, r1
 8003342:	601a      	str	r2, [r3, #0]
 8003344:	f7fe fd52 	bl	8001dec <HAL_GetTick>
 8003348:	0003      	movs	r3, r0
 800334a:	613b      	str	r3, [r7, #16]
 800334c:	e008      	b.n	8003360 <HAL_RCC_OscConfig+0x248>
 800334e:	f7fe fd4d 	bl	8001dec <HAL_GetTick>
 8003352:	0002      	movs	r2, r0
 8003354:	693b      	ldr	r3, [r7, #16]
 8003356:	1ad3      	subs	r3, r2, r3
 8003358:	2b02      	cmp	r3, #2
 800335a:	d901      	bls.n	8003360 <HAL_RCC_OscConfig+0x248>
 800335c:	2303      	movs	r3, #3
 800335e:	e1d8      	b.n	8003712 <HAL_RCC_OscConfig+0x5fa>
 8003360:	4b38      	ldr	r3, [pc, #224]	@ (8003444 <HAL_RCC_OscConfig+0x32c>)
 8003362:	681a      	ldr	r2, [r3, #0]
 8003364:	2380      	movs	r3, #128	@ 0x80
 8003366:	00db      	lsls	r3, r3, #3
 8003368:	4013      	ands	r3, r2
 800336a:	d1f0      	bne.n	800334e <HAL_RCC_OscConfig+0x236>
 800336c:	e000      	b.n	8003370 <HAL_RCC_OscConfig+0x258>
 800336e:	46c0      	nop			@ (mov r8, r8)
 8003370:	687b      	ldr	r3, [r7, #4]
 8003372:	681b      	ldr	r3, [r3, #0]
 8003374:	2208      	movs	r2, #8
 8003376:	4013      	ands	r3, r2
 8003378:	d047      	beq.n	800340a <HAL_RCC_OscConfig+0x2f2>
 800337a:	4b32      	ldr	r3, [pc, #200]	@ (8003444 <HAL_RCC_OscConfig+0x32c>)
 800337c:	689b      	ldr	r3, [r3, #8]
 800337e:	2238      	movs	r2, #56	@ 0x38
 8003380:	4013      	ands	r3, r2
 8003382:	2b18      	cmp	r3, #24
 8003384:	d10a      	bne.n	800339c <HAL_RCC_OscConfig+0x284>
 8003386:	4b2f      	ldr	r3, [pc, #188]	@ (8003444 <HAL_RCC_OscConfig+0x32c>)
 8003388:	6e1b      	ldr	r3, [r3, #96]	@ 0x60
 800338a:	2202      	movs	r2, #2
 800338c:	4013      	ands	r3, r2
 800338e:	d03c      	beq.n	800340a <HAL_RCC_OscConfig+0x2f2>
 8003390:	687b      	ldr	r3, [r7, #4]
 8003392:	699b      	ldr	r3, [r3, #24]
 8003394:	2b00      	cmp	r3, #0
 8003396:	d138      	bne.n	800340a <HAL_RCC_OscConfig+0x2f2>
 8003398:	2301      	movs	r3, #1
 800339a:	e1ba      	b.n	8003712 <HAL_RCC_OscConfig+0x5fa>
 800339c:	687b      	ldr	r3, [r7, #4]
 800339e:	699b      	ldr	r3, [r3, #24]
 80033a0:	2b00      	cmp	r3, #0
 80033a2:	d019      	beq.n	80033d8 <HAL_RCC_OscConfig+0x2c0>
 80033a4:	4b27      	ldr	r3, [pc, #156]	@ (8003444 <HAL_RCC_OscConfig+0x32c>)
 80033a6:	6e1a      	ldr	r2, [r3, #96]	@ 0x60
 80033a8:	4b26      	ldr	r3, [pc, #152]	@ (8003444 <HAL_RCC_OscConfig+0x32c>)
 80033aa:	2101      	movs	r1, #1
 80033ac:	430a      	orrs	r2, r1
 80033ae:	661a      	str	r2, [r3, #96]	@ 0x60
 80033b0:	f7fe fd1c 	bl	8001dec <HAL_GetTick>
 80033b4:	0003      	movs	r3, r0
 80033b6:	613b      	str	r3, [r7, #16]
 80033b8:	e008      	b.n	80033cc <HAL_RCC_OscConfig+0x2b4>
 80033ba:	f7fe fd17 	bl	8001dec <HAL_GetTick>
 80033be:	0002      	movs	r2, r0
 80033c0:	693b      	ldr	r3, [r7, #16]
 80033c2:	1ad3      	subs	r3, r2, r3
 80033c4:	2b02      	cmp	r3, #2
 80033c6:	d901      	bls.n	80033cc <HAL_RCC_OscConfig+0x2b4>
 80033c8:	2303      	movs	r3, #3
 80033ca:	e1a2      	b.n	8003712 <HAL_RCC_OscConfig+0x5fa>
 80033cc:	4b1d      	ldr	r3, [pc, #116]	@ (8003444 <HAL_RCC_OscConfig+0x32c>)
 80033ce:	6e1b      	ldr	r3, [r3, #96]	@ 0x60
 80033d0:	2202      	movs	r2, #2
 80033d2:	4013      	ands	r3, r2
 80033d4:	d0f1      	beq.n	80033ba <HAL_RCC_OscConfig+0x2a2>
 80033d6:	e018      	b.n	800340a <HAL_RCC_OscConfig+0x2f2>
 80033d8:	4b1a      	ldr	r3, [pc, #104]	@ (8003444 <HAL_RCC_OscConfig+0x32c>)
 80033da:	6e1a      	ldr	r2, [r3, #96]	@ 0x60
 80033dc:	4b19      	ldr	r3, [pc, #100]	@ (8003444 <HAL_RCC_OscConfig+0x32c>)
 80033de:	2101      	movs	r1, #1
 80033e0:	438a      	bics	r2, r1
 80033e2:	661a      	str	r2, [r3, #96]	@ 0x60
 80033e4:	f7fe fd02 	bl	8001dec <HAL_GetTick>
 80033e8:	0003      	movs	r3, r0
 80033ea:	613b      	str	r3, [r7, #16]
 80033ec:	e008      	b.n	8003400 <HAL_RCC_OscConfig+0x2e8>
 80033ee:	f7fe fcfd 	bl	8001dec <HAL_GetTick>
 80033f2:	0002      	movs	r2, r0
 80033f4:	693b      	ldr	r3, [r7, #16]
 80033f6:	1ad3      	subs	r3, r2, r3
 80033f8:	2b02      	cmp	r3, #2
 80033fa:	d901      	bls.n	8003400 <HAL_RCC_OscConfig+0x2e8>
 80033fc:	2303      	movs	r3, #3
 80033fe:	e188      	b.n	8003712 <HAL_RCC_OscConfig+0x5fa>
 8003400:	4b10      	ldr	r3, [pc, #64]	@ (8003444 <HAL_RCC_OscConfig+0x32c>)
 8003402:	6e1b      	ldr	r3, [r3, #96]	@ 0x60
 8003404:	2202      	movs	r2, #2
 8003406:	4013      	ands	r3, r2
 8003408:	d1f1      	bne.n	80033ee <HAL_RCC_OscConfig+0x2d6>
 800340a:	687b      	ldr	r3, [r7, #4]
 800340c:	681b      	ldr	r3, [r3, #0]
 800340e:	2204      	movs	r2, #4
 8003410:	4013      	ands	r3, r2
 8003412:	d100      	bne.n	8003416 <HAL_RCC_OscConfig+0x2fe>
 8003414:	e0c6      	b.n	80035a4 <HAL_RCC_OscConfig+0x48c>
 8003416:	231f      	movs	r3, #31
 8003418:	18fb      	adds	r3, r7, r3
 800341a:	2200      	movs	r2, #0
 800341c:	701a      	strb	r2, [r3, #0]
 800341e:	4b09      	ldr	r3, [pc, #36]	@ (8003444 <HAL_RCC_OscConfig+0x32c>)
 8003420:	689b      	ldr	r3, [r3, #8]
 8003422:	2238      	movs	r2, #56	@ 0x38
 8003424:	4013      	ands	r3, r2
 8003426:	2b20      	cmp	r3, #32
 8003428:	d11e      	bne.n	8003468 <HAL_RCC_OscConfig+0x350>
 800342a:	4b06      	ldr	r3, [pc, #24]	@ (8003444 <HAL_RCC_OscConfig+0x32c>)
 800342c:	6ddb      	ldr	r3, [r3, #92]	@ 0x5c
 800342e:	2202      	movs	r2, #2
 8003430:	4013      	ands	r3, r2
 8003432:	d100      	bne.n	8003436 <HAL_RCC_OscConfig+0x31e>
 8003434:	e0b6      	b.n	80035a4 <HAL_RCC_OscConfig+0x48c>
 8003436:	687b      	ldr	r3, [r7, #4]
 8003438:	689b      	ldr	r3, [r3, #8]
 800343a:	2b00      	cmp	r3, #0
 800343c:	d000      	beq.n	8003440 <HAL_RCC_OscConfig+0x328>
 800343e:	e0b1      	b.n	80035a4 <HAL_RCC_OscConfig+0x48c>
 8003440:	2301      	movs	r3, #1
 8003442:	e166      	b.n	8003712 <HAL_RCC_OscConfig+0x5fa>
 8003444:	40021000 	.word	0x40021000
 8003448:	fffeffff 	.word	0xfffeffff
 800344c:	fffbffff 	.word	0xfffbffff
 8003450:	ffff80ff 	.word	0xffff80ff
 8003454:	ffffc7ff 	.word	0xffffc7ff
 8003458:	00f42400 	.word	0x00f42400
 800345c:	20000014 	.word	0x20000014
 8003460:	20000018 	.word	0x20000018
 8003464:	fffffeff 	.word	0xfffffeff
 8003468:	4bac      	ldr	r3, [pc, #688]	@ (800371c <HAL_RCC_OscConfig+0x604>)
 800346a:	6bda      	ldr	r2, [r3, #60]	@ 0x3c
 800346c:	2380      	movs	r3, #128	@ 0x80
 800346e:	055b      	lsls	r3, r3, #21
 8003470:	4013      	ands	r3, r2
 8003472:	d101      	bne.n	8003478 <HAL_RCC_OscConfig+0x360>
 8003474:	2301      	movs	r3, #1
 8003476:	e000      	b.n	800347a <HAL_RCC_OscConfig+0x362>
 8003478:	2300      	movs	r3, #0
 800347a:	2b00      	cmp	r3, #0
 800347c:	d011      	beq.n	80034a2 <HAL_RCC_OscConfig+0x38a>
 800347e:	4ba7      	ldr	r3, [pc, #668]	@ (800371c <HAL_RCC_OscConfig+0x604>)
 8003480:	6bda      	ldr	r2, [r3, #60]	@ 0x3c
 8003482:	4ba6      	ldr	r3, [pc, #664]	@ (800371c <HAL_RCC_OscConfig+0x604>)
 8003484:	2180      	movs	r1, #128	@ 0x80
 8003486:	0549      	lsls	r1, r1, #21
 8003488:	430a      	orrs	r2, r1
 800348a:	63da      	str	r2, [r3, #60]	@ 0x3c
 800348c:	4ba3      	ldr	r3, [pc, #652]	@ (800371c <HAL_RCC_OscConfig+0x604>)
 800348e:	6bda      	ldr	r2, [r3, #60]	@ 0x3c
 8003490:	2380      	movs	r3, #128	@ 0x80
 8003492:	055b      	lsls	r3, r3, #21
 8003494:	4013      	ands	r3, r2
 8003496:	60fb      	str	r3, [r7, #12]
 8003498:	68fb      	ldr	r3, [r7, #12]
 800349a:	231f      	movs	r3, #31
 800349c:	18fb      	adds	r3, r7, r3
 800349e:	2201      	movs	r2, #1
 80034a0:	701a      	strb	r2, [r3, #0]
 80034a2:	4b9f      	ldr	r3, [pc, #636]	@ (8003720 <HAL_RCC_OscConfig+0x608>)
 80034a4:	681a      	ldr	r2, [r3, #0]
 80034a6:	2380      	movs	r3, #128	@ 0x80
 80034a8:	005b      	lsls	r3, r3, #1
 80034aa:	4013      	ands	r3, r2
 80034ac:	d11a      	bne.n	80034e4 <HAL_RCC_OscConfig+0x3cc>
 80034ae:	4b9c      	ldr	r3, [pc, #624]	@ (8003720 <HAL_RCC_OscConfig+0x608>)
 80034b0:	681a      	ldr	r2, [r3, #0]
 80034b2:	4b9b      	ldr	r3, [pc, #620]	@ (8003720 <HAL_RCC_OscConfig+0x608>)
 80034b4:	2180      	movs	r1, #128	@ 0x80
 80034b6:	0049      	lsls	r1, r1, #1
 80034b8:	430a      	orrs	r2, r1
 80034ba:	601a      	str	r2, [r3, #0]
 80034bc:	f7fe fc96 	bl	8001dec <HAL_GetTick>
 80034c0:	0003      	movs	r3, r0
 80034c2:	613b      	str	r3, [r7, #16]
 80034c4:	e008      	b.n	80034d8 <HAL_RCC_OscConfig+0x3c0>
 80034c6:	f7fe fc91 	bl	8001dec <HAL_GetTick>
 80034ca:	0002      	movs	r2, r0
 80034cc:	693b      	ldr	r3, [r7, #16]
 80034ce:	1ad3      	subs	r3, r2, r3
 80034d0:	2b02      	cmp	r3, #2
 80034d2:	d901      	bls.n	80034d8 <HAL_RCC_OscConfig+0x3c0>
 80034d4:	2303      	movs	r3, #3
 80034d6:	e11c      	b.n	8003712 <HAL_RCC_OscConfig+0x5fa>
 80034d8:	4b91      	ldr	r3, [pc, #580]	@ (8003720 <HAL_RCC_OscConfig+0x608>)
 80034da:	681a      	ldr	r2, [r3, #0]
 80034dc:	2380      	movs	r3, #128	@ 0x80
 80034de:	005b      	lsls	r3, r3, #1
 80034e0:	4013      	ands	r3, r2
 80034e2:	d0f0      	beq.n	80034c6 <HAL_RCC_OscConfig+0x3ae>
 80034e4:	687b      	ldr	r3, [r7, #4]
 80034e6:	689b      	ldr	r3, [r3, #8]
 80034e8:	2b01      	cmp	r3, #1
 80034ea:	d106      	bne.n	80034fa <HAL_RCC_OscConfig+0x3e2>
 80034ec:	4b8b      	ldr	r3, [pc, #556]	@ (800371c <HAL_RCC_OscConfig+0x604>)
 80034ee:	6dda      	ldr	r2, [r3, #92]	@ 0x5c
 80034f0:	4b8a      	ldr	r3, [pc, #552]	@ (800371c <HAL_RCC_OscConfig+0x604>)
 80034f2:	2101      	movs	r1, #1
 80034f4:	430a      	orrs	r2, r1
 80034f6:	65da      	str	r2, [r3, #92]	@ 0x5c
 80034f8:	e01c      	b.n	8003534 <HAL_RCC_OscConfig+0x41c>
 80034fa:	687b      	ldr	r3, [r7, #4]
 80034fc:	689b      	ldr	r3, [r3, #8]
 80034fe:	2b05      	cmp	r3, #5
 8003500:	d10c      	bne.n	800351c <HAL_RCC_OscConfig+0x404>
 8003502:	4b86      	ldr	r3, [pc, #536]	@ (800371c <HAL_RCC_OscConfig+0x604>)
 8003504:	6dda      	ldr	r2, [r3, #92]	@ 0x5c
 8003506:	4b85      	ldr	r3, [pc, #532]	@ (800371c <HAL_RCC_OscConfig+0x604>)
 8003508:	2104      	movs	r1, #4
 800350a:	430a      	orrs	r2, r1
 800350c:	65da      	str	r2, [r3, #92]	@ 0x5c
 800350e:	4b83      	ldr	r3, [pc, #524]	@ (800371c <HAL_RCC_OscConfig+0x604>)
 8003510:	6dda      	ldr	r2, [r3, #92]	@ 0x5c
 8003512:	4b82      	ldr	r3, [pc, #520]	@ (800371c <HAL_RCC_OscConfig+0x604>)
 8003514:	2101      	movs	r1, #1
 8003516:	430a      	orrs	r2, r1
 8003518:	65da      	str	r2, [r3, #92]	@ 0x5c
 800351a:	e00b      	b.n	8003534 <HAL_RCC_OscConfig+0x41c>
 800351c:	4b7f      	ldr	r3, [pc, #508]	@ (800371c <HAL_RCC_OscConfig+0x604>)
 800351e:	6dda      	ldr	r2, [r3, #92]	@ 0x5c
 8003520:	4b7e      	ldr	r3, [pc, #504]	@ (800371c <HAL_RCC_OscConfig+0x604>)
 8003522:	2101      	movs	r1, #1
 8003524:	438a      	bics	r2, r1
 8003526:	65da      	str	r2, [r3, #92]	@ 0x5c
 8003528:	4b7c      	ldr	r3, [pc, #496]	@ (800371c <HAL_RCC_OscConfig+0x604>)
 800352a:	6dda      	ldr	r2, [r3, #92]	@ 0x5c
 800352c:	4b7b      	ldr	r3, [pc, #492]	@ (800371c <HAL_RCC_OscConfig+0x604>)
 800352e:	2104      	movs	r1, #4
 8003530:	438a      	bics	r2, r1
 8003532:	65da      	str	r2, [r3, #92]	@ 0x5c
 8003534:	687b      	ldr	r3, [r7, #4]
 8003536:	689b      	ldr	r3, [r3, #8]
 8003538:	2b00      	cmp	r3, #0
 800353a:	d014      	beq.n	8003566 <HAL_RCC_OscConfig+0x44e>
 800353c:	f7fe fc56 	bl	8001dec <HAL_GetTick>
 8003540:	0003      	movs	r3, r0
 8003542:	613b      	str	r3, [r7, #16]
 8003544:	e009      	b.n	800355a <HAL_RCC_OscConfig+0x442>
 8003546:	f7fe fc51 	bl	8001dec <HAL_GetTick>
 800354a:	0002      	movs	r2, r0
 800354c:	693b      	ldr	r3, [r7, #16]
 800354e:	1ad3      	subs	r3, r2, r3
 8003550:	4a74      	ldr	r2, [pc, #464]	@ (8003724 <HAL_RCC_OscConfig+0x60c>)
 8003552:	4293      	cmp	r3, r2
 8003554:	d901      	bls.n	800355a <HAL_RCC_OscConfig+0x442>
 8003556:	2303      	movs	r3, #3
 8003558:	e0db      	b.n	8003712 <HAL_RCC_OscConfig+0x5fa>
 800355a:	4b70      	ldr	r3, [pc, #448]	@ (800371c <HAL_RCC_OscConfig+0x604>)
 800355c:	6ddb      	ldr	r3, [r3, #92]	@ 0x5c
 800355e:	2202      	movs	r2, #2
 8003560:	4013      	ands	r3, r2
 8003562:	d0f0      	beq.n	8003546 <HAL_RCC_OscConfig+0x42e>
 8003564:	e013      	b.n	800358e <HAL_RCC_OscConfig+0x476>
 8003566:	f7fe fc41 	bl	8001dec <HAL_GetTick>
 800356a:	0003      	movs	r3, r0
 800356c:	613b      	str	r3, [r7, #16]
 800356e:	e009      	b.n	8003584 <HAL_RCC_OscConfig+0x46c>
 8003570:	f7fe fc3c 	bl	8001dec <HAL_GetTick>
 8003574:	0002      	movs	r2, r0
 8003576:	693b      	ldr	r3, [r7, #16]
 8003578:	1ad3      	subs	r3, r2, r3
 800357a:	4a6a      	ldr	r2, [pc, #424]	@ (8003724 <HAL_RCC_OscConfig+0x60c>)
 800357c:	4293      	cmp	r3, r2
 800357e:	d901      	bls.n	8003584 <HAL_RCC_OscConfig+0x46c>
 8003580:	2303      	movs	r3, #3
 8003582:	e0c6      	b.n	8003712 <HAL_RCC_OscConfig+0x5fa>
 8003584:	4b65      	ldr	r3, [pc, #404]	@ (800371c <HAL_RCC_OscConfig+0x604>)
 8003586:	6ddb      	ldr	r3, [r3, #92]	@ 0x5c
 8003588:	2202      	movs	r2, #2
 800358a:	4013      	ands	r3, r2
 800358c:	d1f0      	bne.n	8003570 <HAL_RCC_OscConfig+0x458>
 800358e:	231f      	movs	r3, #31
 8003590:	18fb      	adds	r3, r7, r3
 8003592:	781b      	ldrb	r3, [r3, #0]
 8003594:	2b01      	cmp	r3, #1
 8003596:	d105      	bne.n	80035a4 <HAL_RCC_OscConfig+0x48c>
 8003598:	4b60      	ldr	r3, [pc, #384]	@ (800371c <HAL_RCC_OscConfig+0x604>)
 800359a:	6bda      	ldr	r2, [r3, #60]	@ 0x3c
 800359c:	4b5f      	ldr	r3, [pc, #380]	@ (800371c <HAL_RCC_OscConfig+0x604>)
 800359e:	4962      	ldr	r1, [pc, #392]	@ (8003728 <HAL_RCC_OscConfig+0x610>)
 80035a0:	400a      	ands	r2, r1
 80035a2:	63da      	str	r2, [r3, #60]	@ 0x3c
 80035a4:	687b      	ldr	r3, [r7, #4]
 80035a6:	69db      	ldr	r3, [r3, #28]
 80035a8:	2b00      	cmp	r3, #0
 80035aa:	d100      	bne.n	80035ae <HAL_RCC_OscConfig+0x496>
 80035ac:	e0b0      	b.n	8003710 <HAL_RCC_OscConfig+0x5f8>
 80035ae:	4b5b      	ldr	r3, [pc, #364]	@ (800371c <HAL_RCC_OscConfig+0x604>)
 80035b0:	689b      	ldr	r3, [r3, #8]
 80035b2:	2238      	movs	r2, #56	@ 0x38
 80035b4:	4013      	ands	r3, r2
 80035b6:	2b10      	cmp	r3, #16
 80035b8:	d100      	bne.n	80035bc <HAL_RCC_OscConfig+0x4a4>
 80035ba:	e078      	b.n	80036ae <HAL_RCC_OscConfig+0x596>
 80035bc:	687b      	ldr	r3, [r7, #4]
 80035be:	69db      	ldr	r3, [r3, #28]
 80035c0:	2b02      	cmp	r3, #2
 80035c2:	d153      	bne.n	800366c <HAL_RCC_OscConfig+0x554>
 80035c4:	4b55      	ldr	r3, [pc, #340]	@ (800371c <HAL_RCC_OscConfig+0x604>)
 80035c6:	681a      	ldr	r2, [r3, #0]
 80035c8:	4b54      	ldr	r3, [pc, #336]	@ (800371c <HAL_RCC_OscConfig+0x604>)
 80035ca:	4958      	ldr	r1, [pc, #352]	@ (800372c <HAL_RCC_OscConfig+0x614>)
 80035cc:	400a      	ands	r2, r1
 80035ce:	601a      	str	r2, [r3, #0]
 80035d0:	f7fe fc0c 	bl	8001dec <HAL_GetTick>
 80035d4:	0003      	movs	r3, r0
 80035d6:	613b      	str	r3, [r7, #16]
 80035d8:	e008      	b.n	80035ec <HAL_RCC_OscConfig+0x4d4>
 80035da:	f7fe fc07 	bl	8001dec <HAL_GetTick>
 80035de:	0002      	movs	r2, r0
 80035e0:	693b      	ldr	r3, [r7, #16]
 80035e2:	1ad3      	subs	r3, r2, r3
 80035e4:	2b02      	cmp	r3, #2
 80035e6:	d901      	bls.n	80035ec <HAL_RCC_OscConfig+0x4d4>
 80035e8:	2303      	movs	r3, #3
 80035ea:	e092      	b.n	8003712 <HAL_RCC_OscConfig+0x5fa>
 80035ec:	4b4b      	ldr	r3, [pc, #300]	@ (800371c <HAL_RCC_OscConfig+0x604>)
 80035ee:	681a      	ldr	r2, [r3, #0]
 80035f0:	2380      	movs	r3, #128	@ 0x80
 80035f2:	049b      	lsls	r3, r3, #18
 80035f4:	4013      	ands	r3, r2
 80035f6:	d1f0      	bne.n	80035da <HAL_RCC_OscConfig+0x4c2>
 80035f8:	4b48      	ldr	r3, [pc, #288]	@ (800371c <HAL_RCC_OscConfig+0x604>)
 80035fa:	68db      	ldr	r3, [r3, #12]
 80035fc:	4a4c      	ldr	r2, [pc, #304]	@ (8003730 <HAL_RCC_OscConfig+0x618>)
 80035fe:	4013      	ands	r3, r2
 8003600:	0019      	movs	r1, r3
 8003602:	687b      	ldr	r3, [r7, #4]
 8003604:	6a1a      	ldr	r2, [r3, #32]
 8003606:	687b      	ldr	r3, [r7, #4]
 8003608:	6a5b      	ldr	r3, [r3, #36]	@ 0x24
 800360a:	431a      	orrs	r2, r3
 800360c:	687b      	ldr	r3, [r7, #4]
 800360e:	6a9b      	ldr	r3, [r3, #40]	@ 0x28
 8003610:	021b      	lsls	r3, r3, #8
 8003612:	431a      	orrs	r2, r3
 8003614:	687b      	ldr	r3, [r7, #4]
 8003616:	6adb      	ldr	r3, [r3, #44]	@ 0x2c
 8003618:	431a      	orrs	r2, r3
 800361a:	687b      	ldr	r3, [r7, #4]
 800361c:	6b1b      	ldr	r3, [r3, #48]	@ 0x30
 800361e:	431a      	orrs	r2, r3
 8003620:	4b3e      	ldr	r3, [pc, #248]	@ (800371c <HAL_RCC_OscConfig+0x604>)
 8003622:	430a      	orrs	r2, r1
 8003624:	60da      	str	r2, [r3, #12]
 8003626:	4b3d      	ldr	r3, [pc, #244]	@ (800371c <HAL_RCC_OscConfig+0x604>)
 8003628:	681a      	ldr	r2, [r3, #0]
 800362a:	4b3c      	ldr	r3, [pc, #240]	@ (800371c <HAL_RCC_OscConfig+0x604>)
 800362c:	2180      	movs	r1, #128	@ 0x80
 800362e:	0449      	lsls	r1, r1, #17
 8003630:	430a      	orrs	r2, r1
 8003632:	601a      	str	r2, [r3, #0]
 8003634:	4b39      	ldr	r3, [pc, #228]	@ (800371c <HAL_RCC_OscConfig+0x604>)
 8003636:	68da      	ldr	r2, [r3, #12]
 8003638:	4b38      	ldr	r3, [pc, #224]	@ (800371c <HAL_RCC_OscConfig+0x604>)
 800363a:	2180      	movs	r1, #128	@ 0x80
 800363c:	0549      	lsls	r1, r1, #21
 800363e:	430a      	orrs	r2, r1
 8003640:	60da      	str	r2, [r3, #12]
 8003642:	f7fe fbd3 	bl	8001dec <HAL_GetTick>
 8003646:	0003      	movs	r3, r0
 8003648:	613b      	str	r3, [r7, #16]
 800364a:	e008      	b.n	800365e <HAL_RCC_OscConfig+0x546>
 800364c:	f7fe fbce 	bl	8001dec <HAL_GetTick>
 8003650:	0002      	movs	r2, r0
 8003652:	693b      	ldr	r3, [r7, #16]
 8003654:	1ad3      	subs	r3, r2, r3
 8003656:	2b02      	cmp	r3, #2
 8003658:	d901      	bls.n	800365e <HAL_RCC_OscConfig+0x546>
 800365a:	2303      	movs	r3, #3
 800365c:	e059      	b.n	8003712 <HAL_RCC_OscConfig+0x5fa>
 800365e:	4b2f      	ldr	r3, [pc, #188]	@ (800371c <HAL_RCC_OscConfig+0x604>)
 8003660:	681a      	ldr	r2, [r3, #0]
 8003662:	2380      	movs	r3, #128	@ 0x80
 8003664:	049b      	lsls	r3, r3, #18
 8003666:	4013      	ands	r3, r2
 8003668:	d0f0      	beq.n	800364c <HAL_RCC_OscConfig+0x534>
 800366a:	e051      	b.n	8003710 <HAL_RCC_OscConfig+0x5f8>
 800366c:	4b2b      	ldr	r3, [pc, #172]	@ (800371c <HAL_RCC_OscConfig+0x604>)
 800366e:	681a      	ldr	r2, [r3, #0]
 8003670:	4b2a      	ldr	r3, [pc, #168]	@ (800371c <HAL_RCC_OscConfig+0x604>)
 8003672:	492e      	ldr	r1, [pc, #184]	@ (800372c <HAL_RCC_OscConfig+0x614>)
 8003674:	400a      	ands	r2, r1
 8003676:	601a      	str	r2, [r3, #0]
 8003678:	f7fe fbb8 	bl	8001dec <HAL_GetTick>
 800367c:	0003      	movs	r3, r0
 800367e:	613b      	str	r3, [r7, #16]
 8003680:	e008      	b.n	8003694 <HAL_RCC_OscConfig+0x57c>
 8003682:	f7fe fbb3 	bl	8001dec <HAL_GetTick>
 8003686:	0002      	movs	r2, r0
 8003688:	693b      	ldr	r3, [r7, #16]
 800368a:	1ad3      	subs	r3, r2, r3
 800368c:	2b02      	cmp	r3, #2
 800368e:	d901      	bls.n	8003694 <HAL_RCC_OscConfig+0x57c>
 8003690:	2303      	movs	r3, #3
 8003692:	e03e      	b.n	8003712 <HAL_RCC_OscConfig+0x5fa>
 8003694:	4b21      	ldr	r3, [pc, #132]	@ (800371c <HAL_RCC_OscConfig+0x604>)
 8003696:	681a      	ldr	r2, [r3, #0]
 8003698:	2380      	movs	r3, #128	@ 0x80
 800369a:	049b      	lsls	r3, r3, #18
 800369c:	4013      	ands	r3, r2
 800369e:	d1f0      	bne.n	8003682 <HAL_RCC_OscConfig+0x56a>
 80036a0:	4b1e      	ldr	r3, [pc, #120]	@ (800371c <HAL_RCC_OscConfig+0x604>)
 80036a2:	68da      	ldr	r2, [r3, #12]
 80036a4:	4b1d      	ldr	r3, [pc, #116]	@ (800371c <HAL_RCC_OscConfig+0x604>)
 80036a6:	4923      	ldr	r1, [pc, #140]	@ (8003734 <HAL_RCC_OscConfig+0x61c>)
 80036a8:	400a      	ands	r2, r1
 80036aa:	60da      	str	r2, [r3, #12]
 80036ac:	e030      	b.n	8003710 <HAL_RCC_OscConfig+0x5f8>
 80036ae:	687b      	ldr	r3, [r7, #4]
 80036b0:	69db      	ldr	r3, [r3, #28]
 80036b2:	2b01      	cmp	r3, #1
 80036b4:	d101      	bne.n	80036ba <HAL_RCC_OscConfig+0x5a2>
 80036b6:	2301      	movs	r3, #1
 80036b8:	e02b      	b.n	8003712 <HAL_RCC_OscConfig+0x5fa>
 80036ba:	4b18      	ldr	r3, [pc, #96]	@ (800371c <HAL_RCC_OscConfig+0x604>)
 80036bc:	68db      	ldr	r3, [r3, #12]
 80036be:	617b      	str	r3, [r7, #20]
 80036c0:	697b      	ldr	r3, [r7, #20]
 80036c2:	2203      	movs	r2, #3
 80036c4:	401a      	ands	r2, r3
 80036c6:	687b      	ldr	r3, [r7, #4]
 80036c8:	6a1b      	ldr	r3, [r3, #32]
 80036ca:	429a      	cmp	r2, r3
 80036cc:	d11e      	bne.n	800370c <HAL_RCC_OscConfig+0x5f4>
 80036ce:	697b      	ldr	r3, [r7, #20]
 80036d0:	2270      	movs	r2, #112	@ 0x70
 80036d2:	401a      	ands	r2, r3
 80036d4:	687b      	ldr	r3, [r7, #4]
 80036d6:	6a5b      	ldr	r3, [r3, #36]	@ 0x24
 80036d8:	429a      	cmp	r2, r3
 80036da:	d117      	bne.n	800370c <HAL_RCC_OscConfig+0x5f4>
 80036dc:	697a      	ldr	r2, [r7, #20]
 80036de:	23fe      	movs	r3, #254	@ 0xfe
 80036e0:	01db      	lsls	r3, r3, #7
 80036e2:	401a      	ands	r2, r3
 80036e4:	687b      	ldr	r3, [r7, #4]
 80036e6:	6a9b      	ldr	r3, [r3, #40]	@ 0x28
 80036e8:	021b      	lsls	r3, r3, #8
 80036ea:	429a      	cmp	r2, r3
 80036ec:	d10e      	bne.n	800370c <HAL_RCC_OscConfig+0x5f4>
 80036ee:	697a      	ldr	r2, [r7, #20]
 80036f0:	23f8      	movs	r3, #248	@ 0xf8
 80036f2:	039b      	lsls	r3, r3, #14
 80036f4:	401a      	ands	r2, r3
 80036f6:	687b      	ldr	r3, [r7, #4]
 80036f8:	6adb      	ldr	r3, [r3, #44]	@ 0x2c
 80036fa:	429a      	cmp	r2, r3
 80036fc:	d106      	bne.n	800370c <HAL_RCC_OscConfig+0x5f4>
 80036fe:	697b      	ldr	r3, [r7, #20]
 8003700:	0f5b      	lsrs	r3, r3, #29
 8003702:	075a      	lsls	r2, r3, #29
 8003704:	687b      	ldr	r3, [r7, #4]
 8003706:	6b1b      	ldr	r3, [r3, #48]	@ 0x30
 8003708:	429a      	cmp	r2, r3
 800370a:	d001      	beq.n	8003710 <HAL_RCC_OscConfig+0x5f8>
 800370c:	2301      	movs	r3, #1
 800370e:	e000      	b.n	8003712 <HAL_RCC_OscConfig+0x5fa>
 8003710:	2300      	movs	r3, #0
 8003712:	0018      	movs	r0, r3
 8003714:	46bd      	mov	sp, r7
 8003716:	b008      	add	sp, #32
 8003718:	bd80      	pop	{r7, pc}
 800371a:	46c0      	nop			@ (mov r8, r8)
 800371c:	40021000 	.word	0x40021000
 8003720:	40007000 	.word	0x40007000
 8003724:	00001388 	.word	0x00001388
 8003728:	efffffff 	.word	0xefffffff
 800372c:	feffffff 	.word	0xfeffffff
 8003730:	1fc1808c 	.word	0x1fc1808c
 8003734:	effefffc 	.word	0xeffefffc

08003738 <HAL_RCC_ClockConfig>:
 8003738:	b580      	push	{r7, lr}
 800373a:	b084      	sub	sp, #16
 800373c:	af00      	add	r7, sp, #0
 800373e:	6078      	str	r0, [r7, #4]
 8003740:	6039      	str	r1, [r7, #0]
 8003742:	687b      	ldr	r3, [r7, #4]
 8003744:	2b00      	cmp	r3, #0
 8003746:	d101      	bne.n	800374c <HAL_RCC_ClockConfig+0x14>
 8003748:	2301      	movs	r3, #1
 800374a:	e0e9      	b.n	8003920 <HAL_RCC_ClockConfig+0x1e8>
 800374c:	4b76      	ldr	r3, [pc, #472]	@ (8003928 <HAL_RCC_ClockConfig+0x1f0>)
 800374e:	681b      	ldr	r3, [r3, #0]
 8003750:	2207      	movs	r2, #7
 8003752:	4013      	ands	r3, r2
 8003754:	683a      	ldr	r2, [r7, #0]
 8003756:	429a      	cmp	r2, r3
 8003758:	d91e      	bls.n	8003798 <HAL_RCC_ClockConfig+0x60>
 800375a:	4b73      	ldr	r3, [pc, #460]	@ (8003928 <HAL_RCC_ClockConfig+0x1f0>)
 800375c:	681b      	ldr	r3, [r3, #0]
 800375e:	2207      	movs	r2, #7
 8003760:	4393      	bics	r3, r2
 8003762:	0019      	movs	r1, r3
 8003764:	4b70      	ldr	r3, [pc, #448]	@ (8003928 <HAL_RCC_ClockConfig+0x1f0>)
 8003766:	683a      	ldr	r2, [r7, #0]
 8003768:	430a      	orrs	r2, r1
 800376a:	601a      	str	r2, [r3, #0]
 800376c:	f7fe fb3e 	bl	8001dec <HAL_GetTick>
 8003770:	0003      	movs	r3, r0
 8003772:	60fb      	str	r3, [r7, #12]
 8003774:	e009      	b.n	800378a <HAL_RCC_ClockConfig+0x52>
 8003776:	f7fe fb39 	bl	8001dec <HAL_GetTick>
 800377a:	0002      	movs	r2, r0
 800377c:	68fb      	ldr	r3, [r7, #12]
 800377e:	1ad3      	subs	r3, r2, r3
 8003780:	4a6a      	ldr	r2, [pc, #424]	@ (800392c <HAL_RCC_ClockConfig+0x1f4>)
 8003782:	4293      	cmp	r3, r2
 8003784:	d901      	bls.n	800378a <HAL_RCC_ClockConfig+0x52>
 8003786:	2303      	movs	r3, #3
 8003788:	e0ca      	b.n	8003920 <HAL_RCC_ClockConfig+0x1e8>
 800378a:	4b67      	ldr	r3, [pc, #412]	@ (8003928 <HAL_RCC_ClockConfig+0x1f0>)
 800378c:	681b      	ldr	r3, [r3, #0]
 800378e:	2207      	movs	r2, #7
 8003790:	4013      	ands	r3, r2
 8003792:	683a      	ldr	r2, [r7, #0]
 8003794:	429a      	cmp	r2, r3
 8003796:	d1ee      	bne.n	8003776 <HAL_RCC_ClockConfig+0x3e>
 8003798:	687b      	ldr	r3, [r7, #4]
 800379a:	681b      	ldr	r3, [r3, #0]
 800379c:	2202      	movs	r2, #2
 800379e:	4013      	ands	r3, r2
 80037a0:	d015      	beq.n	80037ce <HAL_RCC_ClockConfig+0x96>
 80037a2:	687b      	ldr	r3, [r7, #4]
 80037a4:	681b      	ldr	r3, [r3, #0]
 80037a6:	2204      	movs	r2, #4
 80037a8:	4013      	ands	r3, r2
 80037aa:	d006      	beq.n	80037ba <HAL_RCC_ClockConfig+0x82>
 80037ac:	4b60      	ldr	r3, [pc, #384]	@ (8003930 <HAL_RCC_ClockConfig+0x1f8>)
 80037ae:	689a      	ldr	r2, [r3, #8]
 80037b0:	4b5f      	ldr	r3, [pc, #380]	@ (8003930 <HAL_RCC_ClockConfig+0x1f8>)
 80037b2:	21e0      	movs	r1, #224	@ 0xe0
 80037b4:	01c9      	lsls	r1, r1, #7
 80037b6:	430a      	orrs	r2, r1
 80037b8:	609a      	str	r2, [r3, #8]
 80037ba:	4b5d      	ldr	r3, [pc, #372]	@ (8003930 <HAL_RCC_ClockConfig+0x1f8>)
 80037bc:	689b      	ldr	r3, [r3, #8]
 80037be:	4a5d      	ldr	r2, [pc, #372]	@ (8003934 <HAL_RCC_ClockConfig+0x1fc>)
 80037c0:	4013      	ands	r3, r2
 80037c2:	0019      	movs	r1, r3
 80037c4:	687b      	ldr	r3, [r7, #4]
 80037c6:	689a      	ldr	r2, [r3, #8]
 80037c8:	4b59      	ldr	r3, [pc, #356]	@ (8003930 <HAL_RCC_ClockConfig+0x1f8>)
 80037ca:	430a      	orrs	r2, r1
 80037cc:	609a      	str	r2, [r3, #8]
 80037ce:	687b      	ldr	r3, [r7, #4]
 80037d0:	681b      	ldr	r3, [r3, #0]
 80037d2:	2201      	movs	r2, #1
 80037d4:	4013      	ands	r3, r2
 80037d6:	d057      	beq.n	8003888 <HAL_RCC_ClockConfig+0x150>
 80037d8:	687b      	ldr	r3, [r7, #4]
 80037da:	685b      	ldr	r3, [r3, #4]
 80037dc:	2b01      	cmp	r3, #1
 80037de:	d107      	bne.n	80037f0 <HAL_RCC_ClockConfig+0xb8>
 80037e0:	4b53      	ldr	r3, [pc, #332]	@ (8003930 <HAL_RCC_ClockConfig+0x1f8>)
 80037e2:	681a      	ldr	r2, [r3, #0]
 80037e4:	2380      	movs	r3, #128	@ 0x80
 80037e6:	029b      	lsls	r3, r3, #10
 80037e8:	4013      	ands	r3, r2
 80037ea:	d12b      	bne.n	8003844 <HAL_RCC_ClockConfig+0x10c>
 80037ec:	2301      	movs	r3, #1
 80037ee:	e097      	b.n	8003920 <HAL_RCC_ClockConfig+0x1e8>
 80037f0:	687b      	ldr	r3, [r7, #4]
 80037f2:	685b      	ldr	r3, [r3, #4]
 80037f4:	2b02      	cmp	r3, #2
 80037f6:	d107      	bne.n	8003808 <HAL_RCC_ClockConfig+0xd0>
 80037f8:	4b4d      	ldr	r3, [pc, #308]	@ (8003930 <HAL_RCC_ClockConfig+0x1f8>)
 80037fa:	681a      	ldr	r2, [r3, #0]
 80037fc:	2380      	movs	r3, #128	@ 0x80
 80037fe:	049b      	lsls	r3, r3, #18
 8003800:	4013      	ands	r3, r2
 8003802:	d11f      	bne.n	8003844 <HAL_RCC_ClockConfig+0x10c>
 8003804:	2301      	movs	r3, #1
 8003806:	e08b      	b.n	8003920 <HAL_RCC_ClockConfig+0x1e8>
 8003808:	687b      	ldr	r3, [r7, #4]
 800380a:	685b      	ldr	r3, [r3, #4]
 800380c:	2b00      	cmp	r3, #0
 800380e:	d107      	bne.n	8003820 <HAL_RCC_ClockConfig+0xe8>
 8003810:	4b47      	ldr	r3, [pc, #284]	@ (8003930 <HAL_RCC_ClockConfig+0x1f8>)
 8003812:	681a      	ldr	r2, [r3, #0]
 8003814:	2380      	movs	r3, #128	@ 0x80
 8003816:	00db      	lsls	r3, r3, #3
 8003818:	4013      	ands	r3, r2
 800381a:	d113      	bne.n	8003844 <HAL_RCC_ClockConfig+0x10c>
 800381c:	2301      	movs	r3, #1
 800381e:	e07f      	b.n	8003920 <HAL_RCC_ClockConfig+0x1e8>
 8003820:	687b      	ldr	r3, [r7, #4]
 8003822:	685b      	ldr	r3, [r3, #4]
 8003824:	2b03      	cmp	r3, #3
 8003826:	d106      	bne.n	8003836 <HAL_RCC_ClockConfig+0xfe>
 8003828:	4b41      	ldr	r3, [pc, #260]	@ (8003930 <HAL_RCC_ClockConfig+0x1f8>)
 800382a:	6e1b      	ldr	r3, [r3, #96]	@ 0x60
 800382c:	2202      	movs	r2, #2
 800382e:	4013      	ands	r3, r2
 8003830:	d108      	bne.n	8003844 <HAL_RCC_ClockConfig+0x10c>
 8003832:	2301      	movs	r3, #1
 8003834:	e074      	b.n	8003920 <HAL_RCC_ClockConfig+0x1e8>
 8003836:	4b3e      	ldr	r3, [pc, #248]	@ (8003930 <HAL_RCC_ClockConfig+0x1f8>)
 8003838:	6ddb      	ldr	r3, [r3, #92]	@ 0x5c
 800383a:	2202      	movs	r2, #2
 800383c:	4013      	ands	r3, r2
 800383e:	d101      	bne.n	8003844 <HAL_RCC_ClockConfig+0x10c>
 8003840:	2301      	movs	r3, #1
 8003842:	e06d      	b.n	8003920 <HAL_RCC_ClockConfig+0x1e8>
 8003844:	4b3a      	ldr	r3, [pc, #232]	@ (8003930 <HAL_RCC_ClockConfig+0x1f8>)
 8003846:	689b      	ldr	r3, [r3, #8]
 8003848:	2207      	movs	r2, #7
 800384a:	4393      	bics	r3, r2
 800384c:	0019      	movs	r1, r3
 800384e:	687b      	ldr	r3, [r7, #4]
 8003850:	685a      	ldr	r2, [r3, #4]
 8003852:	4b37      	ldr	r3, [pc, #220]	@ (8003930 <HAL_RCC_ClockConfig+0x1f8>)
 8003854:	430a      	orrs	r2, r1
 8003856:	609a      	str	r2, [r3, #8]
 8003858:	f7fe fac8 	bl	8001dec <HAL_GetTick>
 800385c:	0003      	movs	r3, r0
 800385e:	60fb      	str	r3, [r7, #12]
 8003860:	e009      	b.n	8003876 <HAL_RCC_ClockConfig+0x13e>
 8003862:	f7fe fac3 	bl	8001dec <HAL_GetTick>
 8003866:	0002      	movs	r2, r0
 8003868:	68fb      	ldr	r3, [r7, #12]
 800386a:	1ad3      	subs	r3, r2, r3
 800386c:	4a2f      	ldr	r2, [pc, #188]	@ (800392c <HAL_RCC_ClockConfig+0x1f4>)
 800386e:	4293      	cmp	r3, r2
 8003870:	d901      	bls.n	8003876 <HAL_RCC_ClockConfig+0x13e>
 8003872:	2303      	movs	r3, #3
 8003874:	e054      	b.n	8003920 <HAL_RCC_ClockConfig+0x1e8>
 8003876:	4b2e      	ldr	r3, [pc, #184]	@ (8003930 <HAL_RCC_ClockConfig+0x1f8>)
 8003878:	689b      	ldr	r3, [r3, #8]
 800387a:	2238      	movs	r2, #56	@ 0x38
 800387c:	401a      	ands	r2, r3
 800387e:	687b      	ldr	r3, [r7, #4]
 8003880:	685b      	ldr	r3, [r3, #4]
 8003882:	00db      	lsls	r3, r3, #3
 8003884:	429a      	cmp	r2, r3
 8003886:	d1ec      	bne.n	8003862 <HAL_RCC_ClockConfig+0x12a>
 8003888:	4b27      	ldr	r3, [pc, #156]	@ (8003928 <HAL_RCC_ClockConfig+0x1f0>)
 800388a:	681b      	ldr	r3, [r3, #0]
 800388c:	2207      	movs	r2, #7
 800388e:	4013      	ands	r3, r2
 8003890:	683a      	ldr	r2, [r7, #0]
 8003892:	429a      	cmp	r2, r3
 8003894:	d21e      	bcs.n	80038d4 <HAL_RCC_ClockConfig+0x19c>
 8003896:	4b24      	ldr	r3, [pc, #144]	@ (8003928 <HAL_RCC_ClockConfig+0x1f0>)
 8003898:	681b      	ldr	r3, [r3, #0]
 800389a:	2207      	movs	r2, #7
 800389c:	4393      	bics	r3, r2
 800389e:	0019      	movs	r1, r3
 80038a0:	4b21      	ldr	r3, [pc, #132]	@ (8003928 <HAL_RCC_ClockConfig+0x1f0>)
 80038a2:	683a      	ldr	r2, [r7, #0]
 80038a4:	430a      	orrs	r2, r1
 80038a6:	601a      	str	r2, [r3, #0]
 80038a8:	f7fe faa0 	bl	8001dec <HAL_GetTick>
 80038ac:	0003      	movs	r3, r0
 80038ae:	60fb      	str	r3, [r7, #12]
 80038b0:	e009      	b.n	80038c6 <HAL_RCC_ClockConfig+0x18e>
 80038b2:	f7fe fa9b 	bl	8001dec <HAL_GetTick>
 80038b6:	0002      	movs	r2, r0
 80038b8:	68fb      	ldr	r3, [r7, #12]
 80038ba:	1ad3      	subs	r3, r2, r3
 80038bc:	4a1b      	ldr	r2, [pc, #108]	@ (800392c <HAL_RCC_ClockConfig+0x1f4>)
 80038be:	4293      	cmp	r3, r2
 80038c0:	d901      	bls.n	80038c6 <HAL_RCC_ClockConfig+0x18e>
 80038c2:	2303      	movs	r3, #3
 80038c4:	e02c      	b.n	8003920 <HAL_RCC_ClockConfig+0x1e8>
 80038c6:	4b18      	ldr	r3, [pc, #96]	@ (8003928 <HAL_RCC_ClockConfig+0x1f0>)
 80038c8:	681b      	ldr	r3, [r3, #0]
 80038ca:	2207      	movs	r2, #7
 80038cc:	4013      	ands	r3, r2
 80038ce:	683a      	ldr	r2, [r7, #0]
 80038d0:	429a      	cmp	r2, r3
 80038d2:	d1ee      	bne.n	80038b2 <HAL_RCC_ClockConfig+0x17a>
 80038d4:	687b      	ldr	r3, [r7, #4]
 80038d6:	681b      	ldr	r3, [r3, #0]
 80038d8:	2204      	movs	r2, #4
 80038da:	4013      	ands	r3, r2
 80038dc:	d009      	beq.n	80038f2 <HAL_RCC_ClockConfig+0x1ba>
 80038de:	4b14      	ldr	r3, [pc, #80]	@ (8003930 <HAL_RCC_ClockConfig+0x1f8>)
 80038e0:	689b      	ldr	r3, [r3, #8]
 80038e2:	4a15      	ldr	r2, [pc, #84]	@ (8003938 <HAL_RCC_ClockConfig+0x200>)
 80038e4:	4013      	ands	r3, r2
 80038e6:	0019      	movs	r1, r3
 80038e8:	687b      	ldr	r3, [r7, #4]
 80038ea:	68da      	ldr	r2, [r3, #12]
 80038ec:	4b10      	ldr	r3, [pc, #64]	@ (8003930 <HAL_RCC_ClockConfig+0x1f8>)
 80038ee:	430a      	orrs	r2, r1
 80038f0:	609a      	str	r2, [r3, #8]
 80038f2:	f000 f829 	bl	8003948 <HAL_RCC_GetSysClockFreq>
 80038f6:	0001      	movs	r1, r0
 80038f8:	4b0d      	ldr	r3, [pc, #52]	@ (8003930 <HAL_RCC_ClockConfig+0x1f8>)
 80038fa:	689b      	ldr	r3, [r3, #8]
 80038fc:	0a1b      	lsrs	r3, r3, #8
 80038fe:	220f      	movs	r2, #15
 8003900:	401a      	ands	r2, r3
 8003902:	4b0e      	ldr	r3, [pc, #56]	@ (800393c <HAL_RCC_ClockConfig+0x204>)
 8003904:	0092      	lsls	r2, r2, #2
 8003906:	58d3      	ldr	r3, [r2, r3]
 8003908:	221f      	movs	r2, #31
 800390a:	4013      	ands	r3, r2
 800390c:	000a      	movs	r2, r1
 800390e:	40da      	lsrs	r2, r3
 8003910:	4b0b      	ldr	r3, [pc, #44]	@ (8003940 <HAL_RCC_ClockConfig+0x208>)
 8003912:	601a      	str	r2, [r3, #0]
 8003914:	4b0b      	ldr	r3, [pc, #44]	@ (8003944 <HAL_RCC_ClockConfig+0x20c>)
 8003916:	681b      	ldr	r3, [r3, #0]
 8003918:	0018      	movs	r0, r3
 800391a:	f7fe fa0b 	bl	8001d34 <HAL_InitTick>
 800391e:	0003      	movs	r3, r0
 8003920:	0018      	movs	r0, r3
 8003922:	46bd      	mov	sp, r7
 8003924:	b004      	add	sp, #16
 8003926:	bd80      	pop	{r7, pc}
 8003928:	40022000 	.word	0x40022000
 800392c:	00001388 	.word	0x00001388
 8003930:	40021000 	.word	0x40021000
 8003934:	fffff0ff 	.word	0xfffff0ff
 8003938:	ffff8fff 	.word	0xffff8fff
 800393c:	0800809c 	.word	0x0800809c
 8003940:	20000014 	.word	0x20000014
 8003944:	20000018 	.word	0x20000018

08003948 <HAL_RCC_GetSysClockFreq>:
 8003948:	b580      	push	{r7, lr}
 800394a:	b086      	sub	sp, #24
 800394c:	af00      	add	r7, sp, #0
 800394e:	4b3c      	ldr	r3, [pc, #240]	@ (8003a40 <HAL_RCC_GetSysClockFreq+0xf8>)
 8003950:	689b      	ldr	r3, [r3, #8]
 8003952:	2238      	movs	r2, #56	@ 0x38
 8003954:	4013      	ands	r3, r2
 8003956:	d10f      	bne.n	8003978 <HAL_RCC_GetSysClockFreq+0x30>
 8003958:	4b39      	ldr	r3, [pc, #228]	@ (8003a40 <HAL_RCC_GetSysClockFreq+0xf8>)
 800395a:	681b      	ldr	r3, [r3, #0]
 800395c:	0adb      	lsrs	r3, r3, #11
 800395e:	2207      	movs	r2, #7
 8003960:	4013      	ands	r3, r2
 8003962:	2201      	movs	r2, #1
 8003964:	409a      	lsls	r2, r3
 8003966:	0013      	movs	r3, r2
 8003968:	603b      	str	r3, [r7, #0]
 800396a:	6839      	ldr	r1, [r7, #0]
 800396c:	4835      	ldr	r0, [pc, #212]	@ (8003a44 <HAL_RCC_GetSysClockFreq+0xfc>)
 800396e:	f7fc fbd1 	bl	8000114 <__udivsi3>
 8003972:	0003      	movs	r3, r0
 8003974:	613b      	str	r3, [r7, #16]
 8003976:	e05d      	b.n	8003a34 <HAL_RCC_GetSysClockFreq+0xec>
 8003978:	4b31      	ldr	r3, [pc, #196]	@ (8003a40 <HAL_RCC_GetSysClockFreq+0xf8>)
 800397a:	689b      	ldr	r3, [r3, #8]
 800397c:	2238      	movs	r2, #56	@ 0x38
 800397e:	4013      	ands	r3, r2
 8003980:	2b08      	cmp	r3, #8
 8003982:	d102      	bne.n	800398a <HAL_RCC_GetSysClockFreq+0x42>
 8003984:	4b30      	ldr	r3, [pc, #192]	@ (8003a48 <HAL_RCC_GetSysClockFreq+0x100>)
 8003986:	613b      	str	r3, [r7, #16]
 8003988:	e054      	b.n	8003a34 <HAL_RCC_GetSysClockFreq+0xec>
 800398a:	4b2d      	ldr	r3, [pc, #180]	@ (8003a40 <HAL_RCC_GetSysClockFreq+0xf8>)
 800398c:	689b      	ldr	r3, [r3, #8]
 800398e:	2238      	movs	r2, #56	@ 0x38
 8003990:	4013      	ands	r3, r2
 8003992:	2b10      	cmp	r3, #16
 8003994:	d138      	bne.n	8003a08 <HAL_RCC_GetSysClockFreq+0xc0>
 8003996:	4b2a      	ldr	r3, [pc, #168]	@ (8003a40 <HAL_RCC_GetSysClockFreq+0xf8>)
 8003998:	68db      	ldr	r3, [r3, #12]
 800399a:	2203      	movs	r2, #3
 800399c:	4013      	ands	r3, r2
 800399e:	60fb      	str	r3, [r7, #12]
 80039a0:	4b27      	ldr	r3, [pc, #156]	@ (8003a40 <HAL_RCC_GetSysClockFreq+0xf8>)
 80039a2:	68db      	ldr	r3, [r3, #12]
 80039a4:	091b      	lsrs	r3, r3, #4
 80039a6:	2207      	movs	r2, #7
 80039a8:	4013      	ands	r3, r2
 80039aa:	3301      	adds	r3, #1
 80039ac:	60bb      	str	r3, [r7, #8]
 80039ae:	68fb      	ldr	r3, [r7, #12]
 80039b0:	2b03      	cmp	r3, #3
 80039b2:	d10d      	bne.n	80039d0 <HAL_RCC_GetSysClockFreq+0x88>
 80039b4:	68b9      	ldr	r1, [r7, #8]
 80039b6:	4824      	ldr	r0, [pc, #144]	@ (8003a48 <HAL_RCC_GetSysClockFreq+0x100>)
 80039b8:	f7fc fbac 	bl	8000114 <__udivsi3>
 80039bc:	0003      	movs	r3, r0
 80039be:	0019      	movs	r1, r3
 80039c0:	4b1f      	ldr	r3, [pc, #124]	@ (8003a40 <HAL_RCC_GetSysClockFreq+0xf8>)
 80039c2:	68db      	ldr	r3, [r3, #12]
 80039c4:	0a1b      	lsrs	r3, r3, #8
 80039c6:	227f      	movs	r2, #127	@ 0x7f
 80039c8:	4013      	ands	r3, r2
 80039ca:	434b      	muls	r3, r1
 80039cc:	617b      	str	r3, [r7, #20]
 80039ce:	e00d      	b.n	80039ec <HAL_RCC_GetSysClockFreq+0xa4>
 80039d0:	68b9      	ldr	r1, [r7, #8]
 80039d2:	481c      	ldr	r0, [pc, #112]	@ (8003a44 <HAL_RCC_GetSysClockFreq+0xfc>)
 80039d4:	f7fc fb9e 	bl	8000114 <__udivsi3>
 80039d8:	0003      	movs	r3, r0
 80039da:	0019      	movs	r1, r3
 80039dc:	4b18      	ldr	r3, [pc, #96]	@ (8003a40 <HAL_RCC_GetSysClockFreq+0xf8>)
 80039de:	68db      	ldr	r3, [r3, #12]
 80039e0:	0a1b      	lsrs	r3, r3, #8
 80039e2:	227f      	movs	r2, #127	@ 0x7f
 80039e4:	4013      	ands	r3, r2
 80039e6:	434b      	muls	r3, r1
 80039e8:	617b      	str	r3, [r7, #20]
 80039ea:	46c0      	nop			@ (mov r8, r8)
 80039ec:	4b14      	ldr	r3, [pc, #80]	@ (8003a40 <HAL_RCC_GetSysClockFreq+0xf8>)
 80039ee:	68db      	ldr	r3, [r3, #12]
 80039f0:	0f5b      	lsrs	r3, r3, #29
 80039f2:	2207      	movs	r2, #7
 80039f4:	4013      	ands	r3, r2
 80039f6:	3301      	adds	r3, #1
 80039f8:	607b      	str	r3, [r7, #4]
 80039fa:	6879      	ldr	r1, [r7, #4]
 80039fc:	6978      	ldr	r0, [r7, #20]
 80039fe:	f7fc fb89 	bl	8000114 <__udivsi3>
 8003a02:	0003      	movs	r3, r0
 8003a04:	613b      	str	r3, [r7, #16]
 8003a06:	e015      	b.n	8003a34 <HAL_RCC_GetSysClockFreq+0xec>
 8003a08:	4b0d      	ldr	r3, [pc, #52]	@ (8003a40 <HAL_RCC_GetSysClockFreq+0xf8>)
 8003a0a:	689b      	ldr	r3, [r3, #8]
 8003a0c:	2238      	movs	r2, #56	@ 0x38
 8003a0e:	4013      	ands	r3, r2
 8003a10:	2b20      	cmp	r3, #32
 8003a12:	d103      	bne.n	8003a1c <HAL_RCC_GetSysClockFreq+0xd4>
 8003a14:	2380      	movs	r3, #128	@ 0x80
 8003a16:	021b      	lsls	r3, r3, #8
 8003a18:	613b      	str	r3, [r7, #16]
 8003a1a:	e00b      	b.n	8003a34 <HAL_RCC_GetSysClockFreq+0xec>
 8003a1c:	4b08      	ldr	r3, [pc, #32]	@ (8003a40 <HAL_RCC_GetSysClockFreq+0xf8>)
 8003a1e:	689b      	ldr	r3, [r3, #8]
 8003a20:	2238      	movs	r2, #56	@ 0x38
 8003a22:	4013      	ands	r3, r2
 8003a24:	2b18      	cmp	r3, #24
 8003a26:	d103      	bne.n	8003a30 <HAL_RCC_GetSysClockFreq+0xe8>
 8003a28:	23fa      	movs	r3, #250	@ 0xfa
 8003a2a:	01db      	lsls	r3, r3, #7
 8003a2c:	613b      	str	r3, [r7, #16]
 8003a2e:	e001      	b.n	8003a34 <HAL_RCC_GetSysClockFreq+0xec>
 8003a30:	2300      	movs	r3, #0
 8003a32:	613b      	str	r3, [r7, #16]
 8003a34:	693b      	ldr	r3, [r7, #16]
 8003a36:	0018      	movs	r0, r3
 8003a38:	46bd      	mov	sp, r7
 8003a3a:	b006      	add	sp, #24
 8003a3c:	bd80      	pop	{r7, pc}
 8003a3e:	46c0      	nop			@ (mov r8, r8)
 8003a40:	40021000 	.word	0x40021000
 8003a44:	00f42400 	.word	0x00f42400
 8003a48:	007a1200 	.word	0x007a1200

08003a4c <HAL_RCCEx_PeriphCLKConfig>:
 8003a4c:	b580      	push	{r7, lr}
 8003a4e:	b086      	sub	sp, #24
 8003a50:	af00      	add	r7, sp, #0
 8003a52:	6078      	str	r0, [r7, #4]
 8003a54:	2313      	movs	r3, #19
 8003a56:	18fb      	adds	r3, r7, r3
 8003a58:	2200      	movs	r2, #0
 8003a5a:	701a      	strb	r2, [r3, #0]
 8003a5c:	2312      	movs	r3, #18
 8003a5e:	18fb      	adds	r3, r7, r3
 8003a60:	2200      	movs	r2, #0
 8003a62:	701a      	strb	r2, [r3, #0]
 8003a64:	687b      	ldr	r3, [r7, #4]
 8003a66:	681a      	ldr	r2, [r3, #0]
 8003a68:	2380      	movs	r3, #128	@ 0x80
 8003a6a:	029b      	lsls	r3, r3, #10
 8003a6c:	4013      	ands	r3, r2
 8003a6e:	d100      	bne.n	8003a72 <HAL_RCCEx_PeriphCLKConfig+0x26>
 8003a70:	e0a3      	b.n	8003bba <HAL_RCCEx_PeriphCLKConfig+0x16e>
 8003a72:	2011      	movs	r0, #17
 8003a74:	183b      	adds	r3, r7, r0
 8003a76:	2200      	movs	r2, #0
 8003a78:	701a      	strb	r2, [r3, #0]
 8003a7a:	4b7f      	ldr	r3, [pc, #508]	@ (8003c78 <HAL_RCCEx_PeriphCLKConfig+0x22c>)
 8003a7c:	6bda      	ldr	r2, [r3, #60]	@ 0x3c
 8003a7e:	2380      	movs	r3, #128	@ 0x80
 8003a80:	055b      	lsls	r3, r3, #21
 8003a82:	4013      	ands	r3, r2
 8003a84:	d110      	bne.n	8003aa8 <HAL_RCCEx_PeriphCLKConfig+0x5c>
 8003a86:	4b7c      	ldr	r3, [pc, #496]	@ (8003c78 <HAL_RCCEx_PeriphCLKConfig+0x22c>)
 8003a88:	6bda      	ldr	r2, [r3, #60]	@ 0x3c
 8003a8a:	4b7b      	ldr	r3, [pc, #492]	@ (8003c78 <HAL_RCCEx_PeriphCLKConfig+0x22c>)
 8003a8c:	2180      	movs	r1, #128	@ 0x80
 8003a8e:	0549      	lsls	r1, r1, #21
 8003a90:	430a      	orrs	r2, r1
 8003a92:	63da      	str	r2, [r3, #60]	@ 0x3c
 8003a94:	4b78      	ldr	r3, [pc, #480]	@ (8003c78 <HAL_RCCEx_PeriphCLKConfig+0x22c>)
 8003a96:	6bda      	ldr	r2, [r3, #60]	@ 0x3c
 8003a98:	2380      	movs	r3, #128	@ 0x80
 8003a9a:	055b      	lsls	r3, r3, #21
 8003a9c:	4013      	ands	r3, r2
 8003a9e:	60bb      	str	r3, [r7, #8]
 8003aa0:	68bb      	ldr	r3, [r7, #8]
 8003aa2:	183b      	adds	r3, r7, r0
 8003aa4:	2201      	movs	r2, #1
 8003aa6:	701a      	strb	r2, [r3, #0]
 8003aa8:	4b74      	ldr	r3, [pc, #464]	@ (8003c7c <HAL_RCCEx_PeriphCLKConfig+0x230>)
 8003aaa:	681a      	ldr	r2, [r3, #0]
 8003aac:	4b73      	ldr	r3, [pc, #460]	@ (8003c7c <HAL_RCCEx_PeriphCLKConfig+0x230>)
 8003aae:	2180      	movs	r1, #128	@ 0x80
 8003ab0:	0049      	lsls	r1, r1, #1
 8003ab2:	430a      	orrs	r2, r1
 8003ab4:	601a      	str	r2, [r3, #0]
 8003ab6:	f7fe f999 	bl	8001dec <HAL_GetTick>
 8003aba:	0003      	movs	r3, r0
 8003abc:	60fb      	str	r3, [r7, #12]
 8003abe:	e00b      	b.n	8003ad8 <HAL_RCCEx_PeriphCLKConfig+0x8c>
 8003ac0:	f7fe f994 	bl	8001dec <HAL_GetTick>
 8003ac4:	0002      	movs	r2, r0
 8003ac6:	68fb      	ldr	r3, [r7, #12]
 8003ac8:	1ad3      	subs	r3, r2, r3
 8003aca:	2b02      	cmp	r3, #2
 8003acc:	d904      	bls.n	8003ad8 <HAL_RCCEx_PeriphCLKConfig+0x8c>
 8003ace:	2313      	movs	r3, #19
 8003ad0:	18fb      	adds	r3, r7, r3
 8003ad2:	2203      	movs	r2, #3
 8003ad4:	701a      	strb	r2, [r3, #0]
 8003ad6:	e005      	b.n	8003ae4 <HAL_RCCEx_PeriphCLKConfig+0x98>
 8003ad8:	4b68      	ldr	r3, [pc, #416]	@ (8003c7c <HAL_RCCEx_PeriphCLKConfig+0x230>)
 8003ada:	681a      	ldr	r2, [r3, #0]
 8003adc:	2380      	movs	r3, #128	@ 0x80
 8003ade:	005b      	lsls	r3, r3, #1
 8003ae0:	4013      	ands	r3, r2
 8003ae2:	d0ed      	beq.n	8003ac0 <HAL_RCCEx_PeriphCLKConfig+0x74>
 8003ae4:	2313      	movs	r3, #19
 8003ae6:	18fb      	adds	r3, r7, r3
 8003ae8:	781b      	ldrb	r3, [r3, #0]
 8003aea:	2b00      	cmp	r3, #0
 8003aec:	d154      	bne.n	8003b98 <HAL_RCCEx_PeriphCLKConfig+0x14c>
 8003aee:	4b62      	ldr	r3, [pc, #392]	@ (8003c78 <HAL_RCCEx_PeriphCLKConfig+0x22c>)
 8003af0:	6dda      	ldr	r2, [r3, #92]	@ 0x5c
 8003af2:	23c0      	movs	r3, #192	@ 0xc0
 8003af4:	009b      	lsls	r3, r3, #2
 8003af6:	4013      	ands	r3, r2
 8003af8:	617b      	str	r3, [r7, #20]
 8003afa:	697b      	ldr	r3, [r7, #20]
 8003afc:	2b00      	cmp	r3, #0
 8003afe:	d019      	beq.n	8003b34 <HAL_RCCEx_PeriphCLKConfig+0xe8>
 8003b00:	687b      	ldr	r3, [r7, #4]
 8003b02:	695b      	ldr	r3, [r3, #20]
 8003b04:	697a      	ldr	r2, [r7, #20]
 8003b06:	429a      	cmp	r2, r3
 8003b08:	d014      	beq.n	8003b34 <HAL_RCCEx_PeriphCLKConfig+0xe8>
 8003b0a:	4b5b      	ldr	r3, [pc, #364]	@ (8003c78 <HAL_RCCEx_PeriphCLKConfig+0x22c>)
 8003b0c:	6ddb      	ldr	r3, [r3, #92]	@ 0x5c
 8003b0e:	4a5c      	ldr	r2, [pc, #368]	@ (8003c80 <HAL_RCCEx_PeriphCLKConfig+0x234>)
 8003b10:	4013      	ands	r3, r2
 8003b12:	617b      	str	r3, [r7, #20]
 8003b14:	4b58      	ldr	r3, [pc, #352]	@ (8003c78 <HAL_RCCEx_PeriphCLKConfig+0x22c>)
 8003b16:	6dda      	ldr	r2, [r3, #92]	@ 0x5c
 8003b18:	4b57      	ldr	r3, [pc, #348]	@ (8003c78 <HAL_RCCEx_PeriphCLKConfig+0x22c>)
 8003b1a:	2180      	movs	r1, #128	@ 0x80
 8003b1c:	0249      	lsls	r1, r1, #9
 8003b1e:	430a      	orrs	r2, r1
 8003b20:	65da      	str	r2, [r3, #92]	@ 0x5c
 8003b22:	4b55      	ldr	r3, [pc, #340]	@ (8003c78 <HAL_RCCEx_PeriphCLKConfig+0x22c>)
 8003b24:	6dda      	ldr	r2, [r3, #92]	@ 0x5c
 8003b26:	4b54      	ldr	r3, [pc, #336]	@ (8003c78 <HAL_RCCEx_PeriphCLKConfig+0x22c>)
 8003b28:	4956      	ldr	r1, [pc, #344]	@ (8003c84 <HAL_RCCEx_PeriphCLKConfig+0x238>)
 8003b2a:	400a      	ands	r2, r1
 8003b2c:	65da      	str	r2, [r3, #92]	@ 0x5c
 8003b2e:	4b52      	ldr	r3, [pc, #328]	@ (8003c78 <HAL_RCCEx_PeriphCLKConfig+0x22c>)
 8003b30:	697a      	ldr	r2, [r7, #20]
 8003b32:	65da      	str	r2, [r3, #92]	@ 0x5c
 8003b34:	697b      	ldr	r3, [r7, #20]
 8003b36:	2201      	movs	r2, #1
 8003b38:	4013      	ands	r3, r2
 8003b3a:	d016      	beq.n	8003b6a <HAL_RCCEx_PeriphCLKConfig+0x11e>
 8003b3c:	f7fe f956 	bl	8001dec <HAL_GetTick>
 8003b40:	0003      	movs	r3, r0
 8003b42:	60fb      	str	r3, [r7, #12]
 8003b44:	e00c      	b.n	8003b60 <HAL_RCCEx_PeriphCLKConfig+0x114>
 8003b46:	f7fe f951 	bl	8001dec <HAL_GetTick>
 8003b4a:	0002      	movs	r2, r0
 8003b4c:	68fb      	ldr	r3, [r7, #12]
 8003b4e:	1ad3      	subs	r3, r2, r3
 8003b50:	4a4d      	ldr	r2, [pc, #308]	@ (8003c88 <HAL_RCCEx_PeriphCLKConfig+0x23c>)
 8003b52:	4293      	cmp	r3, r2
 8003b54:	d904      	bls.n	8003b60 <HAL_RCCEx_PeriphCLKConfig+0x114>
 8003b56:	2313      	movs	r3, #19
 8003b58:	18fb      	adds	r3, r7, r3
 8003b5a:	2203      	movs	r2, #3
 8003b5c:	701a      	strb	r2, [r3, #0]
 8003b5e:	e004      	b.n	8003b6a <HAL_RCCEx_PeriphCLKConfig+0x11e>
 8003b60:	4b45      	ldr	r3, [pc, #276]	@ (8003c78 <HAL_RCCEx_PeriphCLKConfig+0x22c>)
 8003b62:	6ddb      	ldr	r3, [r3, #92]	@ 0x5c
 8003b64:	2202      	movs	r2, #2
 8003b66:	4013      	ands	r3, r2
 8003b68:	d0ed      	beq.n	8003b46 <HAL_RCCEx_PeriphCLKConfig+0xfa>
 8003b6a:	2313      	movs	r3, #19
 8003b6c:	18fb      	adds	r3, r7, r3
 8003b6e:	781b      	ldrb	r3, [r3, #0]
 8003b70:	2b00      	cmp	r3, #0
 8003b72:	d10a      	bne.n	8003b8a <HAL_RCCEx_PeriphCLKConfig+0x13e>
 8003b74:	4b40      	ldr	r3, [pc, #256]	@ (8003c78 <HAL_RCCEx_PeriphCLKConfig+0x22c>)
 8003b76:	6ddb      	ldr	r3, [r3, #92]	@ 0x5c
 8003b78:	4a41      	ldr	r2, [pc, #260]	@ (8003c80 <HAL_RCCEx_PeriphCLKConfig+0x234>)
 8003b7a:	4013      	ands	r3, r2
 8003b7c:	0019      	movs	r1, r3
 8003b7e:	687b      	ldr	r3, [r7, #4]
 8003b80:	695a      	ldr	r2, [r3, #20]
 8003b82:	4b3d      	ldr	r3, [pc, #244]	@ (8003c78 <HAL_RCCEx_PeriphCLKConfig+0x22c>)
 8003b84:	430a      	orrs	r2, r1
 8003b86:	65da      	str	r2, [r3, #92]	@ 0x5c
 8003b88:	e00c      	b.n	8003ba4 <HAL_RCCEx_PeriphCLKConfig+0x158>
 8003b8a:	2312      	movs	r3, #18
 8003b8c:	18fb      	adds	r3, r7, r3
 8003b8e:	2213      	movs	r2, #19
 8003b90:	18ba      	adds	r2, r7, r2
 8003b92:	7812      	ldrb	r2, [r2, #0]
 8003b94:	701a      	strb	r2, [r3, #0]
 8003b96:	e005      	b.n	8003ba4 <HAL_RCCEx_PeriphCLKConfig+0x158>
 8003b98:	2312      	movs	r3, #18
 8003b9a:	18fb      	adds	r3, r7, r3
 8003b9c:	2213      	movs	r2, #19
 8003b9e:	18ba      	adds	r2, r7, r2
 8003ba0:	7812      	ldrb	r2, [r2, #0]
 8003ba2:	701a      	strb	r2, [r3, #0]
 8003ba4:	2311      	movs	r3, #17
 8003ba6:	18fb      	adds	r3, r7, r3
 8003ba8:	781b      	ldrb	r3, [r3, #0]
 8003baa:	2b01      	cmp	r3, #1
 8003bac:	d105      	bne.n	8003bba <HAL_RCCEx_PeriphCLKConfig+0x16e>
 8003bae:	4b32      	ldr	r3, [pc, #200]	@ (8003c78 <HAL_RCCEx_PeriphCLKConfig+0x22c>)
 8003bb0:	6bda      	ldr	r2, [r3, #60]	@ 0x3c
 8003bb2:	4b31      	ldr	r3, [pc, #196]	@ (8003c78 <HAL_RCCEx_PeriphCLKConfig+0x22c>)
 8003bb4:	4935      	ldr	r1, [pc, #212]	@ (8003c8c <HAL_RCCEx_PeriphCLKConfig+0x240>)
 8003bb6:	400a      	ands	r2, r1
 8003bb8:	63da      	str	r2, [r3, #60]	@ 0x3c
 8003bba:	687b      	ldr	r3, [r7, #4]
 8003bbc:	681b      	ldr	r3, [r3, #0]
 8003bbe:	2201      	movs	r2, #1
 8003bc0:	4013      	ands	r3, r2
 8003bc2:	d009      	beq.n	8003bd8 <HAL_RCCEx_PeriphCLKConfig+0x18c>
 8003bc4:	4b2c      	ldr	r3, [pc, #176]	@ (8003c78 <HAL_RCCEx_PeriphCLKConfig+0x22c>)
 8003bc6:	6d5b      	ldr	r3, [r3, #84]	@ 0x54
 8003bc8:	2203      	movs	r2, #3
 8003bca:	4393      	bics	r3, r2
 8003bcc:	0019      	movs	r1, r3
 8003bce:	687b      	ldr	r3, [r7, #4]
 8003bd0:	685a      	ldr	r2, [r3, #4]
 8003bd2:	4b29      	ldr	r3, [pc, #164]	@ (8003c78 <HAL_RCCEx_PeriphCLKConfig+0x22c>)
 8003bd4:	430a      	orrs	r2, r1
 8003bd6:	655a      	str	r2, [r3, #84]	@ 0x54
 8003bd8:	687b      	ldr	r3, [r7, #4]
 8003bda:	681b      	ldr	r3, [r3, #0]
 8003bdc:	2220      	movs	r2, #32
 8003bde:	4013      	ands	r3, r2
 8003be0:	d009      	beq.n	8003bf6 <HAL_RCCEx_PeriphCLKConfig+0x1aa>
 8003be2:	4b25      	ldr	r3, [pc, #148]	@ (8003c78 <HAL_RCCEx_PeriphCLKConfig+0x22c>)
 8003be4:	6d5b      	ldr	r3, [r3, #84]	@ 0x54
 8003be6:	4a2a      	ldr	r2, [pc, #168]	@ (8003c90 <HAL_RCCEx_PeriphCLKConfig+0x244>)
 8003be8:	4013      	ands	r3, r2
 8003bea:	0019      	movs	r1, r3
 8003bec:	687b      	ldr	r3, [r7, #4]
 8003bee:	689a      	ldr	r2, [r3, #8]
 8003bf0:	4b21      	ldr	r3, [pc, #132]	@ (8003c78 <HAL_RCCEx_PeriphCLKConfig+0x22c>)
 8003bf2:	430a      	orrs	r2, r1
 8003bf4:	655a      	str	r2, [r3, #84]	@ 0x54
 8003bf6:	687b      	ldr	r3, [r7, #4]
 8003bf8:	681a      	ldr	r2, [r3, #0]
 8003bfa:	2380      	movs	r3, #128	@ 0x80
 8003bfc:	01db      	lsls	r3, r3, #7
 8003bfe:	4013      	ands	r3, r2
 8003c00:	d015      	beq.n	8003c2e <HAL_RCCEx_PeriphCLKConfig+0x1e2>
 8003c02:	4b1d      	ldr	r3, [pc, #116]	@ (8003c78 <HAL_RCCEx_PeriphCLKConfig+0x22c>)
 8003c04:	6d5b      	ldr	r3, [r3, #84]	@ 0x54
 8003c06:	009b      	lsls	r3, r3, #2
 8003c08:	0899      	lsrs	r1, r3, #2
 8003c0a:	687b      	ldr	r3, [r7, #4]
 8003c0c:	691a      	ldr	r2, [r3, #16]
 8003c0e:	4b1a      	ldr	r3, [pc, #104]	@ (8003c78 <HAL_RCCEx_PeriphCLKConfig+0x22c>)
 8003c10:	430a      	orrs	r2, r1
 8003c12:	655a      	str	r2, [r3, #84]	@ 0x54
 8003c14:	687b      	ldr	r3, [r7, #4]
 8003c16:	691a      	ldr	r2, [r3, #16]
 8003c18:	2380      	movs	r3, #128	@ 0x80
 8003c1a:	05db      	lsls	r3, r3, #23
 8003c1c:	429a      	cmp	r2, r3
 8003c1e:	d106      	bne.n	8003c2e <HAL_RCCEx_PeriphCLKConfig+0x1e2>
 8003c20:	4b15      	ldr	r3, [pc, #84]	@ (8003c78 <HAL_RCCEx_PeriphCLKConfig+0x22c>)
 8003c22:	68da      	ldr	r2, [r3, #12]
 8003c24:	4b14      	ldr	r3, [pc, #80]	@ (8003c78 <HAL_RCCEx_PeriphCLKConfig+0x22c>)
 8003c26:	2180      	movs	r1, #128	@ 0x80
 8003c28:	0249      	lsls	r1, r1, #9
 8003c2a:	430a      	orrs	r2, r1
 8003c2c:	60da      	str	r2, [r3, #12]
 8003c2e:	687b      	ldr	r3, [r7, #4]
 8003c30:	681a      	ldr	r2, [r3, #0]
 8003c32:	2380      	movs	r3, #128	@ 0x80
 8003c34:	011b      	lsls	r3, r3, #4
 8003c36:	4013      	ands	r3, r2
 8003c38:	d016      	beq.n	8003c68 <HAL_RCCEx_PeriphCLKConfig+0x21c>
 8003c3a:	4b0f      	ldr	r3, [pc, #60]	@ (8003c78 <HAL_RCCEx_PeriphCLKConfig+0x22c>)
 8003c3c:	6d5b      	ldr	r3, [r3, #84]	@ 0x54
 8003c3e:	4a15      	ldr	r2, [pc, #84]	@ (8003c94 <HAL_RCCEx_PeriphCLKConfig+0x248>)
 8003c40:	4013      	ands	r3, r2
 8003c42:	0019      	movs	r1, r3
 8003c44:	687b      	ldr	r3, [r7, #4]
 8003c46:	68da      	ldr	r2, [r3, #12]
 8003c48:	4b0b      	ldr	r3, [pc, #44]	@ (8003c78 <HAL_RCCEx_PeriphCLKConfig+0x22c>)
 8003c4a:	430a      	orrs	r2, r1
 8003c4c:	655a      	str	r2, [r3, #84]	@ 0x54
 8003c4e:	687b      	ldr	r3, [r7, #4]
 8003c50:	68da      	ldr	r2, [r3, #12]
 8003c52:	2380      	movs	r3, #128	@ 0x80
 8003c54:	01db      	lsls	r3, r3, #7
 8003c56:	429a      	cmp	r2, r3
 8003c58:	d106      	bne.n	8003c68 <HAL_RCCEx_PeriphCLKConfig+0x21c>
 8003c5a:	4b07      	ldr	r3, [pc, #28]	@ (8003c78 <HAL_RCCEx_PeriphCLKConfig+0x22c>)
 8003c5c:	68da      	ldr	r2, [r3, #12]
 8003c5e:	4b06      	ldr	r3, [pc, #24]	@ (8003c78 <HAL_RCCEx_PeriphCLKConfig+0x22c>)
 8003c60:	2180      	movs	r1, #128	@ 0x80
 8003c62:	0249      	lsls	r1, r1, #9
 8003c64:	430a      	orrs	r2, r1
 8003c66:	60da      	str	r2, [r3, #12]
 8003c68:	2312      	movs	r3, #18
 8003c6a:	18fb      	adds	r3, r7, r3
 8003c6c:	781b      	ldrb	r3, [r3, #0]
 8003c6e:	0018      	movs	r0, r3
 8003c70:	46bd      	mov	sp, r7
 8003c72:	b006      	add	sp, #24
 8003c74:	bd80      	pop	{r7, pc}
 8003c76:	46c0      	nop			@ (mov r8, r8)
 8003c78:	40021000 	.word	0x40021000
 8003c7c:	40007000 	.word	0x40007000
 8003c80:	fffffcff 	.word	0xfffffcff
 8003c84:	fffeffff 	.word	0xfffeffff
 8003c88:	00001388 	.word	0x00001388
 8003c8c:	efffffff 	.word	0xefffffff
 8003c90:	ffffcfff 	.word	0xffffcfff
 8003c94:	ffff3fff 	.word	0xffff3fff

08003c98 <HAL_TIM_Base_Init>:
 8003c98:	b580      	push	{r7, lr}
 8003c9a:	b082      	sub	sp, #8
 8003c9c:	af00      	add	r7, sp, #0
 8003c9e:	6078      	str	r0, [r7, #4]
 8003ca0:	687b      	ldr	r3, [r7, #4]
 8003ca2:	2b00      	cmp	r3, #0
 8003ca4:	d101      	bne.n	8003caa <HAL_TIM_Base_Init+0x12>
 8003ca6:	2301      	movs	r3, #1
 8003ca8:	e04a      	b.n	8003d40 <HAL_TIM_Base_Init+0xa8>
 8003caa:	687b      	ldr	r3, [r7, #4]
 8003cac:	223d      	movs	r2, #61	@ 0x3d
 8003cae:	5c9b      	ldrb	r3, [r3, r2]
 8003cb0:	b2db      	uxtb	r3, r3
 8003cb2:	2b00      	cmp	r3, #0
 8003cb4:	d107      	bne.n	8003cc6 <HAL_TIM_Base_Init+0x2e>
 8003cb6:	687b      	ldr	r3, [r7, #4]
 8003cb8:	223c      	movs	r2, #60	@ 0x3c
 8003cba:	2100      	movs	r1, #0
 8003cbc:	5499      	strb	r1, [r3, r2]
 8003cbe:	687b      	ldr	r3, [r7, #4]
 8003cc0:	0018      	movs	r0, r3
 8003cc2:	f7fd ff67 	bl	8001b94 <HAL_TIM_Base_MspInit>
 8003cc6:	687b      	ldr	r3, [r7, #4]
 8003cc8:	223d      	movs	r2, #61	@ 0x3d
 8003cca:	2102      	movs	r1, #2
 8003ccc:	5499      	strb	r1, [r3, r2]
 8003cce:	687b      	ldr	r3, [r7, #4]
 8003cd0:	681a      	ldr	r2, [r3, #0]
 8003cd2:	687b      	ldr	r3, [r7, #4]
 8003cd4:	3304      	adds	r3, #4
 8003cd6:	0019      	movs	r1, r3
 8003cd8:	0010      	movs	r0, r2
 8003cda:	f000 f9ab 	bl	8004034 <TIM_Base_SetConfig>
 8003cde:	687b      	ldr	r3, [r7, #4]
 8003ce0:	2248      	movs	r2, #72	@ 0x48
 8003ce2:	2101      	movs	r1, #1
 8003ce4:	5499      	strb	r1, [r3, r2]
 8003ce6:	687b      	ldr	r3, [r7, #4]
 8003ce8:	223e      	movs	r2, #62	@ 0x3e
 8003cea:	2101      	movs	r1, #1
 8003cec:	5499      	strb	r1, [r3, r2]
 8003cee:	687b      	ldr	r3, [r7, #4]
 8003cf0:	223f      	movs	r2, #63	@ 0x3f
 8003cf2:	2101      	movs	r1, #1
 8003cf4:	5499      	strb	r1, [r3, r2]
 8003cf6:	687b      	ldr	r3, [r7, #4]
 8003cf8:	2240      	movs	r2, #64	@ 0x40
 8003cfa:	2101      	movs	r1, #1
 8003cfc:	5499      	strb	r1, [r3, r2]
 8003cfe:	687b      	ldr	r3, [r7, #4]
 8003d00:	2241      	movs	r2, #65	@ 0x41
 8003d02:	2101      	movs	r1, #1
 8003d04:	5499      	strb	r1, [r3, r2]
 8003d06:	687b      	ldr	r3, [r7, #4]
 8003d08:	2242      	movs	r2, #66	@ 0x42
 8003d0a:	2101      	movs	r1, #1
 8003d0c:	5499      	strb	r1, [r3, r2]
 8003d0e:	687b      	ldr	r3, [r7, #4]
 8003d10:	2243      	movs	r2, #67	@ 0x43
 8003d12:	2101      	movs	r1, #1
 8003d14:	5499      	strb	r1, [r3, r2]
 8003d16:	687b      	ldr	r3, [r7, #4]
 8003d18:	2244      	movs	r2, #68	@ 0x44
 8003d1a:	2101      	movs	r1, #1
 8003d1c:	5499      	strb	r1, [r3, r2]
 8003d1e:	687b      	ldr	r3, [r7, #4]
 8003d20:	2245      	movs	r2, #69	@ 0x45
 8003d22:	2101      	movs	r1, #1
 8003d24:	5499      	strb	r1, [r3, r2]
 8003d26:	687b      	ldr	r3, [r7, #4]
 8003d28:	2246      	movs	r2, #70	@ 0x46
 8003d2a:	2101      	movs	r1, #1
 8003d2c:	5499      	strb	r1, [r3, r2]
 8003d2e:	687b      	ldr	r3, [r7, #4]
 8003d30:	2247      	movs	r2, #71	@ 0x47
 8003d32:	2101      	movs	r1, #1
 8003d34:	5499      	strb	r1, [r3, r2]
 8003d36:	687b      	ldr	r3, [r7, #4]
 8003d38:	223d      	movs	r2, #61	@ 0x3d
 8003d3a:	2101      	movs	r1, #1
 8003d3c:	5499      	strb	r1, [r3, r2]
 8003d3e:	2300      	movs	r3, #0
 8003d40:	0018      	movs	r0, r3
 8003d42:	46bd      	mov	sp, r7
 8003d44:	b002      	add	sp, #8
 8003d46:	bd80      	pop	{r7, pc}

08003d48 <HAL_TIM_Base_Start_IT>:
 8003d48:	b580      	push	{r7, lr}
 8003d4a:	b084      	sub	sp, #16
 8003d4c:	af00      	add	r7, sp, #0
 8003d4e:	6078      	str	r0, [r7, #4]
 8003d50:	687b      	ldr	r3, [r7, #4]
 8003d52:	223d      	movs	r2, #61	@ 0x3d
 8003d54:	5c9b      	ldrb	r3, [r3, r2]
 8003d56:	b2db      	uxtb	r3, r3
 8003d58:	2b01      	cmp	r3, #1
 8003d5a:	d001      	beq.n	8003d60 <HAL_TIM_Base_Start_IT+0x18>
 8003d5c:	2301      	movs	r3, #1
 8003d5e:	e037      	b.n	8003dd0 <HAL_TIM_Base_Start_IT+0x88>
 8003d60:	687b      	ldr	r3, [r7, #4]
 8003d62:	223d      	movs	r2, #61	@ 0x3d
 8003d64:	2102      	movs	r1, #2
 8003d66:	5499      	strb	r1, [r3, r2]
 8003d68:	687b      	ldr	r3, [r7, #4]
 8003d6a:	681b      	ldr	r3, [r3, #0]
 8003d6c:	68da      	ldr	r2, [r3, #12]
 8003d6e:	687b      	ldr	r3, [r7, #4]
 8003d70:	681b      	ldr	r3, [r3, #0]
 8003d72:	2101      	movs	r1, #1
 8003d74:	430a      	orrs	r2, r1
 8003d76:	60da      	str	r2, [r3, #12]
 8003d78:	687b      	ldr	r3, [r7, #4]
 8003d7a:	681b      	ldr	r3, [r3, #0]
 8003d7c:	4a16      	ldr	r2, [pc, #88]	@ (8003dd8 <HAL_TIM_Base_Start_IT+0x90>)
 8003d7e:	4293      	cmp	r3, r2
 8003d80:	d004      	beq.n	8003d8c <HAL_TIM_Base_Start_IT+0x44>
 8003d82:	687b      	ldr	r3, [r7, #4]
 8003d84:	681b      	ldr	r3, [r3, #0]
 8003d86:	4a15      	ldr	r2, [pc, #84]	@ (8003ddc <HAL_TIM_Base_Start_IT+0x94>)
 8003d88:	4293      	cmp	r3, r2
 8003d8a:	d116      	bne.n	8003dba <HAL_TIM_Base_Start_IT+0x72>
 8003d8c:	687b      	ldr	r3, [r7, #4]
 8003d8e:	681b      	ldr	r3, [r3, #0]
 8003d90:	689b      	ldr	r3, [r3, #8]
 8003d92:	4a13      	ldr	r2, [pc, #76]	@ (8003de0 <HAL_TIM_Base_Start_IT+0x98>)
 8003d94:	4013      	ands	r3, r2
 8003d96:	60fb      	str	r3, [r7, #12]
 8003d98:	68fb      	ldr	r3, [r7, #12]
 8003d9a:	2b06      	cmp	r3, #6
 8003d9c:	d016      	beq.n	8003dcc <HAL_TIM_Base_Start_IT+0x84>
 8003d9e:	68fa      	ldr	r2, [r7, #12]
 8003da0:	2380      	movs	r3, #128	@ 0x80
 8003da2:	025b      	lsls	r3, r3, #9
 8003da4:	429a      	cmp	r2, r3
 8003da6:	d011      	beq.n	8003dcc <HAL_TIM_Base_Start_IT+0x84>
 8003da8:	687b      	ldr	r3, [r7, #4]
 8003daa:	681b      	ldr	r3, [r3, #0]
 8003dac:	681a      	ldr	r2, [r3, #0]
 8003dae:	687b      	ldr	r3, [r7, #4]
 8003db0:	681b      	ldr	r3, [r3, #0]
 8003db2:	2101      	movs	r1, #1
 8003db4:	430a      	orrs	r2, r1
 8003db6:	601a      	str	r2, [r3, #0]
 8003db8:	e008      	b.n	8003dcc <HAL_TIM_Base_Start_IT+0x84>
 8003dba:	687b      	ldr	r3, [r7, #4]
 8003dbc:	681b      	ldr	r3, [r3, #0]
 8003dbe:	681a      	ldr	r2, [r3, #0]
 8003dc0:	687b      	ldr	r3, [r7, #4]
 8003dc2:	681b      	ldr	r3, [r3, #0]
 8003dc4:	2101      	movs	r1, #1
 8003dc6:	430a      	orrs	r2, r1
 8003dc8:	601a      	str	r2, [r3, #0]
 8003dca:	e000      	b.n	8003dce <HAL_TIM_Base_Start_IT+0x86>
 8003dcc:	46c0      	nop			@ (mov r8, r8)
 8003dce:	2300      	movs	r3, #0
 8003dd0:	0018      	movs	r0, r3
 8003dd2:	46bd      	mov	sp, r7
 8003dd4:	b004      	add	sp, #16
 8003dd6:	bd80      	pop	{r7, pc}
 8003dd8:	40012c00 	.word	0x40012c00
 8003ddc:	40000400 	.word	0x40000400
 8003de0:	00010007 	.word	0x00010007

08003de4 <HAL_TIM_IRQHandler>:
 8003de4:	b580      	push	{r7, lr}
 8003de6:	b084      	sub	sp, #16
 8003de8:	af00      	add	r7, sp, #0
 8003dea:	6078      	str	r0, [r7, #4]
 8003dec:	687b      	ldr	r3, [r7, #4]
 8003dee:	681b      	ldr	r3, [r3, #0]
 8003df0:	68db      	ldr	r3, [r3, #12]
 8003df2:	60fb      	str	r3, [r7, #12]
 8003df4:	687b      	ldr	r3, [r7, #4]
 8003df6:	681b      	ldr	r3, [r3, #0]
 8003df8:	691b      	ldr	r3, [r3, #16]
 8003dfa:	60bb      	str	r3, [r7, #8]
 8003dfc:	68bb      	ldr	r3, [r7, #8]
 8003dfe:	2202      	movs	r2, #2
 8003e00:	4013      	ands	r3, r2
 8003e02:	d021      	beq.n	8003e48 <HAL_TIM_IRQHandler+0x64>
 8003e04:	68fb      	ldr	r3, [r7, #12]
 8003e06:	2202      	movs	r2, #2
 8003e08:	4013      	ands	r3, r2
 8003e0a:	d01d      	beq.n	8003e48 <HAL_TIM_IRQHandler+0x64>
 8003e0c:	687b      	ldr	r3, [r7, #4]
 8003e0e:	681b      	ldr	r3, [r3, #0]
 8003e10:	2203      	movs	r2, #3
 8003e12:	4252      	negs	r2, r2
 8003e14:	611a      	str	r2, [r3, #16]
 8003e16:	687b      	ldr	r3, [r7, #4]
 8003e18:	2201      	movs	r2, #1
 8003e1a:	771a      	strb	r2, [r3, #28]
 8003e1c:	687b      	ldr	r3, [r7, #4]
 8003e1e:	681b      	ldr	r3, [r3, #0]
 8003e20:	699b      	ldr	r3, [r3, #24]
 8003e22:	2203      	movs	r2, #3
 8003e24:	4013      	ands	r3, r2
 8003e26:	d004      	beq.n	8003e32 <HAL_TIM_IRQHandler+0x4e>
 8003e28:	687b      	ldr	r3, [r7, #4]
 8003e2a:	0018      	movs	r0, r3
 8003e2c:	f000 f8ea 	bl	8004004 <HAL_TIM_IC_CaptureCallback>
 8003e30:	e007      	b.n	8003e42 <HAL_TIM_IRQHandler+0x5e>
 8003e32:	687b      	ldr	r3, [r7, #4]
 8003e34:	0018      	movs	r0, r3
 8003e36:	f000 f8dd 	bl	8003ff4 <HAL_TIM_OC_DelayElapsedCallback>
 8003e3a:	687b      	ldr	r3, [r7, #4]
 8003e3c:	0018      	movs	r0, r3
 8003e3e:	f000 f8e9 	bl	8004014 <HAL_TIM_PWM_PulseFinishedCallback>
 8003e42:	687b      	ldr	r3, [r7, #4]
 8003e44:	2200      	movs	r2, #0
 8003e46:	771a      	strb	r2, [r3, #28]
 8003e48:	68bb      	ldr	r3, [r7, #8]
 8003e4a:	2204      	movs	r2, #4
 8003e4c:	4013      	ands	r3, r2
 8003e4e:	d022      	beq.n	8003e96 <HAL_TIM_IRQHandler+0xb2>
 8003e50:	68fb      	ldr	r3, [r7, #12]
 8003e52:	2204      	movs	r2, #4
 8003e54:	4013      	ands	r3, r2
 8003e56:	d01e      	beq.n	8003e96 <HAL_TIM_IRQHandler+0xb2>
 8003e58:	687b      	ldr	r3, [r7, #4]
 8003e5a:	681b      	ldr	r3, [r3, #0]
 8003e5c:	2205      	movs	r2, #5
 8003e5e:	4252      	negs	r2, r2
 8003e60:	611a      	str	r2, [r3, #16]
 8003e62:	687b      	ldr	r3, [r7, #4]
 8003e64:	2202      	movs	r2, #2
 8003e66:	771a      	strb	r2, [r3, #28]
 8003e68:	687b      	ldr	r3, [r7, #4]
 8003e6a:	681b      	ldr	r3, [r3, #0]
 8003e6c:	699a      	ldr	r2, [r3, #24]
 8003e6e:	23c0      	movs	r3, #192	@ 0xc0
 8003e70:	009b      	lsls	r3, r3, #2
 8003e72:	4013      	ands	r3, r2
 8003e74:	d004      	beq.n	8003e80 <HAL_TIM_IRQHandler+0x9c>
 8003e76:	687b      	ldr	r3, [r7, #4]
 8003e78:	0018      	movs	r0, r3
 8003e7a:	f000 f8c3 	bl	8004004 <HAL_TIM_IC_CaptureCallback>
 8003e7e:	e007      	b.n	8003e90 <HAL_TIM_IRQHandler+0xac>
 8003e80:	687b      	ldr	r3, [r7, #4]
 8003e82:	0018      	movs	r0, r3
 8003e84:	f000 f8b6 	bl	8003ff4 <HAL_TIM_OC_DelayElapsedCallback>
 8003e88:	687b      	ldr	r3, [r7, #4]
 8003e8a:	0018      	movs	r0, r3
 8003e8c:	f000 f8c2 	bl	8004014 <HAL_TIM_PWM_PulseFinishedCallback>
 8003e90:	687b      	ldr	r3, [r7, #4]
 8003e92:	2200      	movs	r2, #0
 8003e94:	771a      	strb	r2, [r3, #28]
 8003e96:	68bb      	ldr	r3, [r7, #8]
 8003e98:	2208      	movs	r2, #8
 8003e9a:	4013      	ands	r3, r2
 8003e9c:	d021      	beq.n	8003ee2 <HAL_TIM_IRQHandler+0xfe>
 8003e9e:	68fb      	ldr	r3, [r7, #12]
 8003ea0:	2208      	movs	r2, #8
 8003ea2:	4013      	ands	r3, r2
 8003ea4:	d01d      	beq.n	8003ee2 <HAL_TIM_IRQHandler+0xfe>
 8003ea6:	687b      	ldr	r3, [r7, #4]
 8003ea8:	681b      	ldr	r3, [r3, #0]
 8003eaa:	2209      	movs	r2, #9
 8003eac:	4252      	negs	r2, r2
 8003eae:	611a      	str	r2, [r3, #16]
 8003eb0:	687b      	ldr	r3, [r7, #4]
 8003eb2:	2204      	movs	r2, #4
 8003eb4:	771a      	strb	r2, [r3, #28]
 8003eb6:	687b      	ldr	r3, [r7, #4]
 8003eb8:	681b      	ldr	r3, [r3, #0]
 8003eba:	69db      	ldr	r3, [r3, #28]
 8003ebc:	2203      	movs	r2, #3
 8003ebe:	4013      	ands	r3, r2
 8003ec0:	d004      	beq.n	8003ecc <HAL_TIM_IRQHandler+0xe8>
 8003ec2:	687b      	ldr	r3, [r7, #4]
 8003ec4:	0018      	movs	r0, r3
 8003ec6:	f000 f89d 	bl	8004004 <HAL_TIM_IC_CaptureCallback>
 8003eca:	e007      	b.n	8003edc <HAL_TIM_IRQHandler+0xf8>
 8003ecc:	687b      	ldr	r3, [r7, #4]
 8003ece:	0018      	movs	r0, r3
 8003ed0:	f000 f890 	bl	8003ff4 <HAL_TIM_OC_DelayElapsedCallback>
 8003ed4:	687b      	ldr	r3, [r7, #4]
 8003ed6:	0018      	movs	r0, r3
 8003ed8:	f000 f89c 	bl	8004014 <HAL_TIM_PWM_PulseFinishedCallback>
 8003edc:	687b      	ldr	r3, [r7, #4]
 8003ede:	2200      	movs	r2, #0
 8003ee0:	771a      	strb	r2, [r3, #28]
 8003ee2:	68bb      	ldr	r3, [r7, #8]
 8003ee4:	2210      	movs	r2, #16
 8003ee6:	4013      	ands	r3, r2
 8003ee8:	d022      	beq.n	8003f30 <HAL_TIM_IRQHandler+0x14c>
 8003eea:	68fb      	ldr	r3, [r7, #12]
 8003eec:	2210      	movs	r2, #16
 8003eee:	4013      	ands	r3, r2
 8003ef0:	d01e      	beq.n	8003f30 <HAL_TIM_IRQHandler+0x14c>
 8003ef2:	687b      	ldr	r3, [r7, #4]
 8003ef4:	681b      	ldr	r3, [r3, #0]
 8003ef6:	2211      	movs	r2, #17
 8003ef8:	4252      	negs	r2, r2
 8003efa:	611a      	str	r2, [r3, #16]
 8003efc:	687b      	ldr	r3, [r7, #4]
 8003efe:	2208      	movs	r2, #8
 8003f00:	771a      	strb	r2, [r3, #28]
 8003f02:	687b      	ldr	r3, [r7, #4]
 8003f04:	681b      	ldr	r3, [r3, #0]
 8003f06:	69da      	ldr	r2, [r3, #28]
 8003f08:	23c0      	movs	r3, #192	@ 0xc0
 8003f0a:	009b      	lsls	r3, r3, #2
 8003f0c:	4013      	ands	r3, r2
 8003f0e:	d004      	beq.n	8003f1a <HAL_TIM_IRQHandler+0x136>
 8003f10:	687b      	ldr	r3, [r7, #4]
 8003f12:	0018      	movs	r0, r3
 8003f14:	f000 f876 	bl	8004004 <HAL_TIM_IC_CaptureCallback>
 8003f18:	e007      	b.n	8003f2a <HAL_TIM_IRQHandler+0x146>
 8003f1a:	687b      	ldr	r3, [r7, #4]
 8003f1c:	0018      	movs	r0, r3
 8003f1e:	f000 f869 	bl	8003ff4 <HAL_TIM_OC_DelayElapsedCallback>
 8003f22:	687b      	ldr	r3, [r7, #4]
 8003f24:	0018      	movs	r0, r3
 8003f26:	f000 f875 	bl	8004014 <HAL_TIM_PWM_PulseFinishedCallback>
 8003f2a:	687b      	ldr	r3, [r7, #4]
 8003f2c:	2200      	movs	r2, #0
 8003f2e:	771a      	strb	r2, [r3, #28]
 8003f30:	68bb      	ldr	r3, [r7, #8]
 8003f32:	2201      	movs	r2, #1
 8003f34:	4013      	ands	r3, r2
 8003f36:	d00c      	beq.n	8003f52 <HAL_TIM_IRQHandler+0x16e>
 8003f38:	68fb      	ldr	r3, [r7, #12]
 8003f3a:	2201      	movs	r2, #1
 8003f3c:	4013      	ands	r3, r2
 8003f3e:	d008      	beq.n	8003f52 <HAL_TIM_IRQHandler+0x16e>
 8003f40:	687b      	ldr	r3, [r7, #4]
 8003f42:	681b      	ldr	r3, [r3, #0]
 8003f44:	2202      	movs	r2, #2
 8003f46:	4252      	negs	r2, r2
 8003f48:	611a      	str	r2, [r3, #16]
 8003f4a:	687b      	ldr	r3, [r7, #4]
 8003f4c:	0018      	movs	r0, r3
 8003f4e:	f7fc fff7 	bl	8000f40 <HAL_TIM_PeriodElapsedCallback>
 8003f52:	68bb      	ldr	r3, [r7, #8]
 8003f54:	2280      	movs	r2, #128	@ 0x80
 8003f56:	4013      	ands	r3, r2
 8003f58:	d104      	bne.n	8003f64 <HAL_TIM_IRQHandler+0x180>
 8003f5a:	68ba      	ldr	r2, [r7, #8]
 8003f5c:	2380      	movs	r3, #128	@ 0x80
 8003f5e:	019b      	lsls	r3, r3, #6
 8003f60:	4013      	ands	r3, r2
 8003f62:	d00b      	beq.n	8003f7c <HAL_TIM_IRQHandler+0x198>
 8003f64:	68fb      	ldr	r3, [r7, #12]
 8003f66:	2280      	movs	r2, #128	@ 0x80
 8003f68:	4013      	ands	r3, r2
 8003f6a:	d007      	beq.n	8003f7c <HAL_TIM_IRQHandler+0x198>
 8003f6c:	687b      	ldr	r3, [r7, #4]
 8003f6e:	681b      	ldr	r3, [r3, #0]
 8003f70:	4a1e      	ldr	r2, [pc, #120]	@ (8003fec <HAL_TIM_IRQHandler+0x208>)
 8003f72:	611a      	str	r2, [r3, #16]
 8003f74:	687b      	ldr	r3, [r7, #4]
 8003f76:	0018      	movs	r0, r3
 8003f78:	f000 f8de 	bl	8004138 <HAL_TIMEx_BreakCallback>
 8003f7c:	68ba      	ldr	r2, [r7, #8]
 8003f7e:	2380      	movs	r3, #128	@ 0x80
 8003f80:	005b      	lsls	r3, r3, #1
 8003f82:	4013      	ands	r3, r2
 8003f84:	d00b      	beq.n	8003f9e <HAL_TIM_IRQHandler+0x1ba>
 8003f86:	68fb      	ldr	r3, [r7, #12]
 8003f88:	2280      	movs	r2, #128	@ 0x80
 8003f8a:	4013      	ands	r3, r2
 8003f8c:	d007      	beq.n	8003f9e <HAL_TIM_IRQHandler+0x1ba>
 8003f8e:	687b      	ldr	r3, [r7, #4]
 8003f90:	681b      	ldr	r3, [r3, #0]
 8003f92:	4a17      	ldr	r2, [pc, #92]	@ (8003ff0 <HAL_TIM_IRQHandler+0x20c>)
 8003f94:	611a      	str	r2, [r3, #16]
 8003f96:	687b      	ldr	r3, [r7, #4]
 8003f98:	0018      	movs	r0, r3
 8003f9a:	f000 f8d5 	bl	8004148 <HAL_TIMEx_Break2Callback>
 8003f9e:	68bb      	ldr	r3, [r7, #8]
 8003fa0:	2240      	movs	r2, #64	@ 0x40
 8003fa2:	4013      	ands	r3, r2
 8003fa4:	d00c      	beq.n	8003fc0 <HAL_TIM_IRQHandler+0x1dc>
 8003fa6:	68fb      	ldr	r3, [r7, #12]
 8003fa8:	2240      	movs	r2, #64	@ 0x40
 8003faa:	4013      	ands	r3, r2
 8003fac:	d008      	beq.n	8003fc0 <HAL_TIM_IRQHandler+0x1dc>
 8003fae:	687b      	ldr	r3, [r7, #4]
 8003fb0:	681b      	ldr	r3, [r3, #0]
 8003fb2:	2241      	movs	r2, #65	@ 0x41
 8003fb4:	4252      	negs	r2, r2
 8003fb6:	611a      	str	r2, [r3, #16]
 8003fb8:	687b      	ldr	r3, [r7, #4]
 8003fba:	0018      	movs	r0, r3
 8003fbc:	f000 f832 	bl	8004024 <HAL_TIM_TriggerCallback>
 8003fc0:	68bb      	ldr	r3, [r7, #8]
 8003fc2:	2220      	movs	r2, #32
 8003fc4:	4013      	ands	r3, r2
 8003fc6:	d00c      	beq.n	8003fe2 <HAL_TIM_IRQHandler+0x1fe>
 8003fc8:	68fb      	ldr	r3, [r7, #12]
 8003fca:	2220      	movs	r2, #32
 8003fcc:	4013      	ands	r3, r2
 8003fce:	d008      	beq.n	8003fe2 <HAL_TIM_IRQHandler+0x1fe>
 8003fd0:	687b      	ldr	r3, [r7, #4]
 8003fd2:	681b      	ldr	r3, [r3, #0]
 8003fd4:	2221      	movs	r2, #33	@ 0x21
 8003fd6:	4252      	negs	r2, r2
 8003fd8:	611a      	str	r2, [r3, #16]
 8003fda:	687b      	ldr	r3, [r7, #4]
 8003fdc:	0018      	movs	r0, r3
 8003fde:	f000 f8a3 	bl	8004128 <HAL_TIMEx_CommutCallback>
 8003fe2:	46c0      	nop			@ (mov r8, r8)
 8003fe4:	46bd      	mov	sp, r7
 8003fe6:	b004      	add	sp, #16
 8003fe8:	bd80      	pop	{r7, pc}
 8003fea:	46c0      	nop			@ (mov r8, r8)
 8003fec:	ffffdf7f 	.word	0xffffdf7f
 8003ff0:	fffffeff 	.word	0xfffffeff

08003ff4 <HAL_TIM_OC_DelayElapsedCallback>:
 8003ff4:	b580      	push	{r7, lr}
 8003ff6:	b082      	sub	sp, #8
 8003ff8:	af00      	add	r7, sp, #0
 8003ffa:	6078      	str	r0, [r7, #4]
 8003ffc:	46c0      	nop			@ (mov r8, r8)
 8003ffe:	46bd      	mov	sp, r7
 8004000:	b002      	add	sp, #8
 8004002:	bd80      	pop	{r7, pc}

08004004 <HAL_TIM_IC_CaptureCallback>:
 8004004:	b580      	push	{r7, lr}
 8004006:	b082      	sub	sp, #8
 8004008:	af00      	add	r7, sp, #0
 800400a:	6078      	str	r0, [r7, #4]
 800400c:	46c0      	nop			@ (mov r8, r8)
 800400e:	46bd      	mov	sp, r7
 8004010:	b002      	add	sp, #8
 8004012:	bd80      	pop	{r7, pc}

08004014 <HAL_TIM_PWM_PulseFinishedCallback>:
 8004014:	b580      	push	{r7, lr}
 8004016:	b082      	sub	sp, #8
 8004018:	af00      	add	r7, sp, #0
 800401a:	6078      	str	r0, [r7, #4]
 800401c:	46c0      	nop			@ (mov r8, r8)
 800401e:	46bd      	mov	sp, r7
 8004020:	b002      	add	sp, #8
 8004022:	bd80      	pop	{r7, pc}

08004024 <HAL_TIM_TriggerCallback>:
 8004024:	b580      	push	{r7, lr}
 8004026:	b082      	sub	sp, #8
 8004028:	af00      	add	r7, sp, #0
 800402a:	6078      	str	r0, [r7, #4]
 800402c:	46c0      	nop			@ (mov r8, r8)
 800402e:	46bd      	mov	sp, r7
 8004030:	b002      	add	sp, #8
 8004032:	bd80      	pop	{r7, pc}

08004034 <TIM_Base_SetConfig>:
 8004034:	b580      	push	{r7, lr}
 8004036:	b084      	sub	sp, #16
 8004038:	af00      	add	r7, sp, #0
 800403a:	6078      	str	r0, [r7, #4]
 800403c:	6039      	str	r1, [r7, #0]
 800403e:	687b      	ldr	r3, [r7, #4]
 8004040:	681b      	ldr	r3, [r3, #0]
 8004042:	60fb      	str	r3, [r7, #12]
 8004044:	687b      	ldr	r3, [r7, #4]
 8004046:	4a32      	ldr	r2, [pc, #200]	@ (8004110 <TIM_Base_SetConfig+0xdc>)
 8004048:	4293      	cmp	r3, r2
 800404a:	d003      	beq.n	8004054 <TIM_Base_SetConfig+0x20>
 800404c:	687b      	ldr	r3, [r7, #4]
 800404e:	4a31      	ldr	r2, [pc, #196]	@ (8004114 <TIM_Base_SetConfig+0xe0>)
 8004050:	4293      	cmp	r3, r2
 8004052:	d108      	bne.n	8004066 <TIM_Base_SetConfig+0x32>
 8004054:	68fb      	ldr	r3, [r7, #12]
 8004056:	2270      	movs	r2, #112	@ 0x70
 8004058:	4393      	bics	r3, r2
 800405a:	60fb      	str	r3, [r7, #12]
 800405c:	683b      	ldr	r3, [r7, #0]
 800405e:	685b      	ldr	r3, [r3, #4]
 8004060:	68fa      	ldr	r2, [r7, #12]
 8004062:	4313      	orrs	r3, r2
 8004064:	60fb      	str	r3, [r7, #12]
 8004066:	687b      	ldr	r3, [r7, #4]
 8004068:	4a29      	ldr	r2, [pc, #164]	@ (8004110 <TIM_Base_SetConfig+0xdc>)
 800406a:	4293      	cmp	r3, r2
 800406c:	d00f      	beq.n	800408e <TIM_Base_SetConfig+0x5a>
 800406e:	687b      	ldr	r3, [r7, #4]
 8004070:	4a28      	ldr	r2, [pc, #160]	@ (8004114 <TIM_Base_SetConfig+0xe0>)
 8004072:	4293      	cmp	r3, r2
 8004074:	d00b      	beq.n	800408e <TIM_Base_SetConfig+0x5a>
 8004076:	687b      	ldr	r3, [r7, #4]
 8004078:	4a27      	ldr	r2, [pc, #156]	@ (8004118 <TIM_Base_SetConfig+0xe4>)
 800407a:	4293      	cmp	r3, r2
 800407c:	d007      	beq.n	800408e <TIM_Base_SetConfig+0x5a>
 800407e:	687b      	ldr	r3, [r7, #4]
 8004080:	4a26      	ldr	r2, [pc, #152]	@ (800411c <TIM_Base_SetConfig+0xe8>)
 8004082:	4293      	cmp	r3, r2
 8004084:	d003      	beq.n	800408e <TIM_Base_SetConfig+0x5a>
 8004086:	687b      	ldr	r3, [r7, #4]
 8004088:	4a25      	ldr	r2, [pc, #148]	@ (8004120 <TIM_Base_SetConfig+0xec>)
 800408a:	4293      	cmp	r3, r2
 800408c:	d108      	bne.n	80040a0 <TIM_Base_SetConfig+0x6c>
 800408e:	68fb      	ldr	r3, [r7, #12]
 8004090:	4a24      	ldr	r2, [pc, #144]	@ (8004124 <TIM_Base_SetConfig+0xf0>)
 8004092:	4013      	ands	r3, r2
 8004094:	60fb      	str	r3, [r7, #12]
 8004096:	683b      	ldr	r3, [r7, #0]
 8004098:	68db      	ldr	r3, [r3, #12]
 800409a:	68fa      	ldr	r2, [r7, #12]
 800409c:	4313      	orrs	r3, r2
 800409e:	60fb      	str	r3, [r7, #12]
 80040a0:	68fb      	ldr	r3, [r7, #12]
 80040a2:	2280      	movs	r2, #128	@ 0x80
 80040a4:	4393      	bics	r3, r2
 80040a6:	001a      	movs	r2, r3
 80040a8:	683b      	ldr	r3, [r7, #0]
 80040aa:	695b      	ldr	r3, [r3, #20]
 80040ac:	4313      	orrs	r3, r2
 80040ae:	60fb      	str	r3, [r7, #12]
 80040b0:	687b      	ldr	r3, [r7, #4]
 80040b2:	68fa      	ldr	r2, [r7, #12]
 80040b4:	601a      	str	r2, [r3, #0]
 80040b6:	683b      	ldr	r3, [r7, #0]
 80040b8:	689a      	ldr	r2, [r3, #8]
 80040ba:	687b      	ldr	r3, [r7, #4]
 80040bc:	62da      	str	r2, [r3, #44]	@ 0x2c
 80040be:	683b      	ldr	r3, [r7, #0]
 80040c0:	681a      	ldr	r2, [r3, #0]
 80040c2:	687b      	ldr	r3, [r7, #4]
 80040c4:	629a      	str	r2, [r3, #40]	@ 0x28
 80040c6:	687b      	ldr	r3, [r7, #4]
 80040c8:	4a11      	ldr	r2, [pc, #68]	@ (8004110 <TIM_Base_SetConfig+0xdc>)
 80040ca:	4293      	cmp	r3, r2
 80040cc:	d007      	beq.n	80040de <TIM_Base_SetConfig+0xaa>
 80040ce:	687b      	ldr	r3, [r7, #4]
 80040d0:	4a12      	ldr	r2, [pc, #72]	@ (800411c <TIM_Base_SetConfig+0xe8>)
 80040d2:	4293      	cmp	r3, r2
 80040d4:	d003      	beq.n	80040de <TIM_Base_SetConfig+0xaa>
 80040d6:	687b      	ldr	r3, [r7, #4]
 80040d8:	4a11      	ldr	r2, [pc, #68]	@ (8004120 <TIM_Base_SetConfig+0xec>)
 80040da:	4293      	cmp	r3, r2
 80040dc:	d103      	bne.n	80040e6 <TIM_Base_SetConfig+0xb2>
 80040de:	683b      	ldr	r3, [r7, #0]
 80040e0:	691a      	ldr	r2, [r3, #16]
 80040e2:	687b      	ldr	r3, [r7, #4]
 80040e4:	631a      	str	r2, [r3, #48]	@ 0x30
 80040e6:	687b      	ldr	r3, [r7, #4]
 80040e8:	2201      	movs	r2, #1
 80040ea:	615a      	str	r2, [r3, #20]
 80040ec:	687b      	ldr	r3, [r7, #4]
 80040ee:	691b      	ldr	r3, [r3, #16]
 80040f0:	2201      	movs	r2, #1
 80040f2:	4013      	ands	r3, r2
 80040f4:	2b01      	cmp	r3, #1
 80040f6:	d106      	bne.n	8004106 <TIM_Base_SetConfig+0xd2>
 80040f8:	687b      	ldr	r3, [r7, #4]
 80040fa:	691b      	ldr	r3, [r3, #16]
 80040fc:	2201      	movs	r2, #1
 80040fe:	4393      	bics	r3, r2
 8004100:	001a      	movs	r2, r3
 8004102:	687b      	ldr	r3, [r7, #4]
 8004104:	611a      	str	r2, [r3, #16]
 8004106:	46c0      	nop			@ (mov r8, r8)
 8004108:	46bd      	mov	sp, r7
 800410a:	b004      	add	sp, #16
 800410c:	bd80      	pop	{r7, pc}
 800410e:	46c0      	nop			@ (mov r8, r8)
 8004110:	40012c00 	.word	0x40012c00
 8004114:	40000400 	.word	0x40000400
 8004118:	40002000 	.word	0x40002000
 800411c:	40014400 	.word	0x40014400
 8004120:	40014800 	.word	0x40014800
 8004124:	fffffcff 	.word	0xfffffcff

08004128 <HAL_TIMEx_CommutCallback>:
 8004128:	b580      	push	{r7, lr}
 800412a:	b082      	sub	sp, #8
 800412c:	af00      	add	r7, sp, #0
 800412e:	6078      	str	r0, [r7, #4]
 8004130:	46c0      	nop			@ (mov r8, r8)
 8004132:	46bd      	mov	sp, r7
 8004134:	b002      	add	sp, #8
 8004136:	bd80      	pop	{r7, pc}

08004138 <HAL_TIMEx_BreakCallback>:
 8004138:	b580      	push	{r7, lr}
 800413a:	b082      	sub	sp, #8
 800413c:	af00      	add	r7, sp, #0
 800413e:	6078      	str	r0, [r7, #4]
 8004140:	46c0      	nop			@ (mov r8, r8)
 8004142:	46bd      	mov	sp, r7
 8004144:	b002      	add	sp, #8
 8004146:	bd80      	pop	{r7, pc}

08004148 <HAL_TIMEx_Break2Callback>:
 8004148:	b580      	push	{r7, lr}
 800414a:	b082      	sub	sp, #8
 800414c:	af00      	add	r7, sp, #0
 800414e:	6078      	str	r0, [r7, #4]
 8004150:	46c0      	nop			@ (mov r8, r8)
 8004152:	46bd      	mov	sp, r7
 8004154:	b002      	add	sp, #8
 8004156:	bd80      	pop	{r7, pc}

08004158 <siprintf>:
 8004158:	b40e      	push	{r1, r2, r3}
 800415a:	b510      	push	{r4, lr}
 800415c:	2400      	movs	r4, #0
 800415e:	490c      	ldr	r1, [pc, #48]	@ (8004190 <siprintf+0x38>)
 8004160:	b09d      	sub	sp, #116	@ 0x74
 8004162:	ab1f      	add	r3, sp, #124	@ 0x7c
 8004164:	9002      	str	r0, [sp, #8]
 8004166:	9006      	str	r0, [sp, #24]
 8004168:	9107      	str	r1, [sp, #28]
 800416a:	9104      	str	r1, [sp, #16]
 800416c:	4809      	ldr	r0, [pc, #36]	@ (8004194 <siprintf+0x3c>)
 800416e:	490a      	ldr	r1, [pc, #40]	@ (8004198 <siprintf+0x40>)
 8004170:	cb04      	ldmia	r3!, {r2}
 8004172:	9105      	str	r1, [sp, #20]
 8004174:	6800      	ldr	r0, [r0, #0]
 8004176:	a902      	add	r1, sp, #8
 8004178:	9301      	str	r3, [sp, #4]
 800417a:	941b      	str	r4, [sp, #108]	@ 0x6c
 800417c:	f000 f9a8 	bl	80044d0 <_svfiprintf_r>
 8004180:	9b02      	ldr	r3, [sp, #8]
 8004182:	701c      	strb	r4, [r3, #0]
 8004184:	b01d      	add	sp, #116	@ 0x74
 8004186:	bc10      	pop	{r4}
 8004188:	bc08      	pop	{r3}
 800418a:	b003      	add	sp, #12
 800418c:	4718      	bx	r3
 800418e:	46c0      	nop			@ (mov r8, r8)
 8004190:	7fffffff 	.word	0x7fffffff
 8004194:	20000020 	.word	0x20000020
 8004198:	ffff0208 	.word	0xffff0208

0800419c <memset>:
 800419c:	0003      	movs	r3, r0
 800419e:	1882      	adds	r2, r0, r2
 80041a0:	4293      	cmp	r3, r2
 80041a2:	d100      	bne.n	80041a6 <memset+0xa>
 80041a4:	4770      	bx	lr
 80041a6:	7019      	strb	r1, [r3, #0]
 80041a8:	3301      	adds	r3, #1
 80041aa:	e7f9      	b.n	80041a0 <memset+0x4>

080041ac <__errno>:
 80041ac:	4b01      	ldr	r3, [pc, #4]	@ (80041b4 <__errno+0x8>)
 80041ae:	6818      	ldr	r0, [r3, #0]
 80041b0:	4770      	bx	lr
 80041b2:	46c0      	nop			@ (mov r8, r8)
 80041b4:	20000020 	.word	0x20000020

080041b8 <__libc_init_array>:
 80041b8:	b570      	push	{r4, r5, r6, lr}
 80041ba:	2600      	movs	r6, #0
 80041bc:	4c0c      	ldr	r4, [pc, #48]	@ (80041f0 <__libc_init_array+0x38>)
 80041be:	4d0d      	ldr	r5, [pc, #52]	@ (80041f4 <__libc_init_array+0x3c>)
 80041c0:	1b64      	subs	r4, r4, r5
 80041c2:	10a4      	asrs	r4, r4, #2
 80041c4:	42a6      	cmp	r6, r4
 80041c6:	d109      	bne.n	80041dc <__libc_init_array+0x24>
 80041c8:	2600      	movs	r6, #0
 80041ca:	f000 fc63 	bl	8004a94 <_init>
 80041ce:	4c0a      	ldr	r4, [pc, #40]	@ (80041f8 <__libc_init_array+0x40>)
 80041d0:	4d0a      	ldr	r5, [pc, #40]	@ (80041fc <__libc_init_array+0x44>)
 80041d2:	1b64      	subs	r4, r4, r5
 80041d4:	10a4      	asrs	r4, r4, #2
 80041d6:	42a6      	cmp	r6, r4
 80041d8:	d105      	bne.n	80041e6 <__libc_init_array+0x2e>
 80041da:	bd70      	pop	{r4, r5, r6, pc}
 80041dc:	00b3      	lsls	r3, r6, #2
 80041de:	58eb      	ldr	r3, [r5, r3]
 80041e0:	4798      	blx	r3
 80041e2:	3601      	adds	r6, #1
 80041e4:	e7ee      	b.n	80041c4 <__libc_init_array+0xc>
 80041e6:	00b3      	lsls	r3, r6, #2
 80041e8:	58eb      	ldr	r3, [r5, r3]
 80041ea:	4798      	blx	r3
 80041ec:	3601      	adds	r6, #1
 80041ee:	e7f2      	b.n	80041d6 <__libc_init_array+0x1e>
 80041f0:	08008110 	.word	0x08008110
 80041f4:	08008110 	.word	0x08008110
 80041f8:	08008114 	.word	0x08008114
 80041fc:	08008110 	.word	0x08008110

08004200 <__retarget_lock_acquire_recursive>:
 8004200:	4770      	bx	lr

08004202 <__retarget_lock_release_recursive>:
 8004202:	4770      	bx	lr

08004204 <memcpy>:
 8004204:	2300      	movs	r3, #0
 8004206:	b510      	push	{r4, lr}
 8004208:	429a      	cmp	r2, r3
 800420a:	d100      	bne.n	800420e <memcpy+0xa>
 800420c:	bd10      	pop	{r4, pc}
 800420e:	5ccc      	ldrb	r4, [r1, r3]
 8004210:	54c4      	strb	r4, [r0, r3]
 8004212:	3301      	adds	r3, #1
 8004214:	e7f8      	b.n	8004208 <memcpy+0x4>
	...

08004218 <_free_r>:
 8004218:	b570      	push	{r4, r5, r6, lr}
 800421a:	0005      	movs	r5, r0
 800421c:	1e0c      	subs	r4, r1, #0
 800421e:	d010      	beq.n	8004242 <_free_r+0x2a>
 8004220:	3c04      	subs	r4, #4
 8004222:	6823      	ldr	r3, [r4, #0]
 8004224:	2b00      	cmp	r3, #0
 8004226:	da00      	bge.n	800422a <_free_r+0x12>
 8004228:	18e4      	adds	r4, r4, r3
 800422a:	0028      	movs	r0, r5
 800422c:	f000 f8e0 	bl	80043f0 <__malloc_lock>
 8004230:	4a1d      	ldr	r2, [pc, #116]	@ (80042a8 <_free_r+0x90>)
 8004232:	6813      	ldr	r3, [r2, #0]
 8004234:	2b00      	cmp	r3, #0
 8004236:	d105      	bne.n	8004244 <_free_r+0x2c>
 8004238:	6063      	str	r3, [r4, #4]
 800423a:	6014      	str	r4, [r2, #0]
 800423c:	0028      	movs	r0, r5
 800423e:	f000 f8df 	bl	8004400 <__malloc_unlock>
 8004242:	bd70      	pop	{r4, r5, r6, pc}
 8004244:	42a3      	cmp	r3, r4
 8004246:	d908      	bls.n	800425a <_free_r+0x42>
 8004248:	6820      	ldr	r0, [r4, #0]
 800424a:	1821      	adds	r1, r4, r0
 800424c:	428b      	cmp	r3, r1
 800424e:	d1f3      	bne.n	8004238 <_free_r+0x20>
 8004250:	6819      	ldr	r1, [r3, #0]
 8004252:	685b      	ldr	r3, [r3, #4]
 8004254:	1809      	adds	r1, r1, r0
 8004256:	6021      	str	r1, [r4, #0]
 8004258:	e7ee      	b.n	8004238 <_free_r+0x20>
 800425a:	001a      	movs	r2, r3
 800425c:	685b      	ldr	r3, [r3, #4]
 800425e:	2b00      	cmp	r3, #0
 8004260:	d001      	beq.n	8004266 <_free_r+0x4e>
 8004262:	42a3      	cmp	r3, r4
 8004264:	d9f9      	bls.n	800425a <_free_r+0x42>
 8004266:	6811      	ldr	r1, [r2, #0]
 8004268:	1850      	adds	r0, r2, r1
 800426a:	42a0      	cmp	r0, r4
 800426c:	d10b      	bne.n	8004286 <_free_r+0x6e>
 800426e:	6820      	ldr	r0, [r4, #0]
 8004270:	1809      	adds	r1, r1, r0
 8004272:	1850      	adds	r0, r2, r1
 8004274:	6011      	str	r1, [r2, #0]
 8004276:	4283      	cmp	r3, r0
 8004278:	d1e0      	bne.n	800423c <_free_r+0x24>
 800427a:	6818      	ldr	r0, [r3, #0]
 800427c:	685b      	ldr	r3, [r3, #4]
 800427e:	1841      	adds	r1, r0, r1
 8004280:	6011      	str	r1, [r2, #0]
 8004282:	6053      	str	r3, [r2, #4]
 8004284:	e7da      	b.n	800423c <_free_r+0x24>
 8004286:	42a0      	cmp	r0, r4
 8004288:	d902      	bls.n	8004290 <_free_r+0x78>
 800428a:	230c      	movs	r3, #12
 800428c:	602b      	str	r3, [r5, #0]
 800428e:	e7d5      	b.n	800423c <_free_r+0x24>
 8004290:	6820      	ldr	r0, [r4, #0]
 8004292:	1821      	adds	r1, r4, r0
 8004294:	428b      	cmp	r3, r1
 8004296:	d103      	bne.n	80042a0 <_free_r+0x88>
 8004298:	6819      	ldr	r1, [r3, #0]
 800429a:	685b      	ldr	r3, [r3, #4]
 800429c:	1809      	adds	r1, r1, r0
 800429e:	6021      	str	r1, [r4, #0]
 80042a0:	6063      	str	r3, [r4, #4]
 80042a2:	6054      	str	r4, [r2, #4]
 80042a4:	e7ca      	b.n	800423c <_free_r+0x24>
 80042a6:	46c0      	nop			@ (mov r8, r8)
 80042a8:	20000770 	.word	0x20000770

080042ac <sbrk_aligned>:
 80042ac:	b570      	push	{r4, r5, r6, lr}
 80042ae:	4e0f      	ldr	r6, [pc, #60]	@ (80042ec <sbrk_aligned+0x40>)
 80042b0:	000d      	movs	r5, r1
 80042b2:	6831      	ldr	r1, [r6, #0]
 80042b4:	0004      	movs	r4, r0
 80042b6:	2900      	cmp	r1, #0
 80042b8:	d102      	bne.n	80042c0 <sbrk_aligned+0x14>
 80042ba:	f000 fb95 	bl	80049e8 <_sbrk_r>
 80042be:	6030      	str	r0, [r6, #0]
 80042c0:	0029      	movs	r1, r5
 80042c2:	0020      	movs	r0, r4
 80042c4:	f000 fb90 	bl	80049e8 <_sbrk_r>
 80042c8:	1c43      	adds	r3, r0, #1
 80042ca:	d103      	bne.n	80042d4 <sbrk_aligned+0x28>
 80042cc:	2501      	movs	r5, #1
 80042ce:	426d      	negs	r5, r5
 80042d0:	0028      	movs	r0, r5
 80042d2:	bd70      	pop	{r4, r5, r6, pc}
 80042d4:	2303      	movs	r3, #3
 80042d6:	1cc5      	adds	r5, r0, #3
 80042d8:	439d      	bics	r5, r3
 80042da:	42a8      	cmp	r0, r5
 80042dc:	d0f8      	beq.n	80042d0 <sbrk_aligned+0x24>
 80042de:	1a29      	subs	r1, r5, r0
 80042e0:	0020      	movs	r0, r4
 80042e2:	f000 fb81 	bl	80049e8 <_sbrk_r>
 80042e6:	3001      	adds	r0, #1
 80042e8:	d1f2      	bne.n	80042d0 <sbrk_aligned+0x24>
 80042ea:	e7ef      	b.n	80042cc <sbrk_aligned+0x20>
 80042ec:	2000076c 	.word	0x2000076c

080042f0 <_malloc_r>:
 80042f0:	b5f7      	push	{r0, r1, r2, r4, r5, r6, r7, lr}
 80042f2:	2203      	movs	r2, #3
 80042f4:	1ccb      	adds	r3, r1, #3
 80042f6:	4393      	bics	r3, r2
 80042f8:	3308      	adds	r3, #8
 80042fa:	0005      	movs	r5, r0
 80042fc:	001f      	movs	r7, r3
 80042fe:	2b0c      	cmp	r3, #12
 8004300:	d234      	bcs.n	800436c <_malloc_r+0x7c>
 8004302:	270c      	movs	r7, #12
 8004304:	42b9      	cmp	r1, r7
 8004306:	d833      	bhi.n	8004370 <_malloc_r+0x80>
 8004308:	0028      	movs	r0, r5
 800430a:	f000 f871 	bl	80043f0 <__malloc_lock>
 800430e:	4e37      	ldr	r6, [pc, #220]	@ (80043ec <_malloc_r+0xfc>)
 8004310:	6833      	ldr	r3, [r6, #0]
 8004312:	001c      	movs	r4, r3
 8004314:	2c00      	cmp	r4, #0
 8004316:	d12f      	bne.n	8004378 <_malloc_r+0x88>
 8004318:	0039      	movs	r1, r7
 800431a:	0028      	movs	r0, r5
 800431c:	f7ff ffc6 	bl	80042ac <sbrk_aligned>
 8004320:	0004      	movs	r4, r0
 8004322:	1c43      	adds	r3, r0, #1
 8004324:	d15f      	bne.n	80043e6 <_malloc_r+0xf6>
 8004326:	6834      	ldr	r4, [r6, #0]
 8004328:	9400      	str	r4, [sp, #0]
 800432a:	9b00      	ldr	r3, [sp, #0]
 800432c:	2b00      	cmp	r3, #0
 800432e:	d14a      	bne.n	80043c6 <_malloc_r+0xd6>
 8004330:	2c00      	cmp	r4, #0
 8004332:	d052      	beq.n	80043da <_malloc_r+0xea>
 8004334:	6823      	ldr	r3, [r4, #0]
 8004336:	0028      	movs	r0, r5
 8004338:	18e3      	adds	r3, r4, r3
 800433a:	9900      	ldr	r1, [sp, #0]
 800433c:	9301      	str	r3, [sp, #4]
 800433e:	f000 fb53 	bl	80049e8 <_sbrk_r>
 8004342:	9b01      	ldr	r3, [sp, #4]
 8004344:	4283      	cmp	r3, r0
 8004346:	d148      	bne.n	80043da <_malloc_r+0xea>
 8004348:	6823      	ldr	r3, [r4, #0]
 800434a:	0028      	movs	r0, r5
 800434c:	1aff      	subs	r7, r7, r3
 800434e:	0039      	movs	r1, r7
 8004350:	f7ff ffac 	bl	80042ac <sbrk_aligned>
 8004354:	3001      	adds	r0, #1
 8004356:	d040      	beq.n	80043da <_malloc_r+0xea>
 8004358:	6823      	ldr	r3, [r4, #0]
 800435a:	19db      	adds	r3, r3, r7
 800435c:	6023      	str	r3, [r4, #0]
 800435e:	6833      	ldr	r3, [r6, #0]
 8004360:	685a      	ldr	r2, [r3, #4]
 8004362:	2a00      	cmp	r2, #0
 8004364:	d133      	bne.n	80043ce <_malloc_r+0xde>
 8004366:	9b00      	ldr	r3, [sp, #0]
 8004368:	6033      	str	r3, [r6, #0]
 800436a:	e019      	b.n	80043a0 <_malloc_r+0xb0>
 800436c:	2b00      	cmp	r3, #0
 800436e:	dac9      	bge.n	8004304 <_malloc_r+0x14>
 8004370:	230c      	movs	r3, #12
 8004372:	602b      	str	r3, [r5, #0]
 8004374:	2000      	movs	r0, #0
 8004376:	bdfe      	pop	{r1, r2, r3, r4, r5, r6, r7, pc}
 8004378:	6821      	ldr	r1, [r4, #0]
 800437a:	1bc9      	subs	r1, r1, r7
 800437c:	d420      	bmi.n	80043c0 <_malloc_r+0xd0>
 800437e:	290b      	cmp	r1, #11
 8004380:	d90a      	bls.n	8004398 <_malloc_r+0xa8>
 8004382:	19e2      	adds	r2, r4, r7
 8004384:	6027      	str	r7, [r4, #0]
 8004386:	42a3      	cmp	r3, r4
 8004388:	d104      	bne.n	8004394 <_malloc_r+0xa4>
 800438a:	6032      	str	r2, [r6, #0]
 800438c:	6863      	ldr	r3, [r4, #4]
 800438e:	6011      	str	r1, [r2, #0]
 8004390:	6053      	str	r3, [r2, #4]
 8004392:	e005      	b.n	80043a0 <_malloc_r+0xb0>
 8004394:	605a      	str	r2, [r3, #4]
 8004396:	e7f9      	b.n	800438c <_malloc_r+0x9c>
 8004398:	6862      	ldr	r2, [r4, #4]
 800439a:	42a3      	cmp	r3, r4
 800439c:	d10e      	bne.n	80043bc <_malloc_r+0xcc>
 800439e:	6032      	str	r2, [r6, #0]
 80043a0:	0028      	movs	r0, r5
 80043a2:	f000 f82d 	bl	8004400 <__malloc_unlock>
 80043a6:	0020      	movs	r0, r4
 80043a8:	2207      	movs	r2, #7
 80043aa:	300b      	adds	r0, #11
 80043ac:	1d23      	adds	r3, r4, #4
 80043ae:	4390      	bics	r0, r2
 80043b0:	1ac2      	subs	r2, r0, r3
 80043b2:	4298      	cmp	r0, r3
 80043b4:	d0df      	beq.n	8004376 <_malloc_r+0x86>
 80043b6:	1a1b      	subs	r3, r3, r0
 80043b8:	50a3      	str	r3, [r4, r2]
 80043ba:	e7dc      	b.n	8004376 <_malloc_r+0x86>
 80043bc:	605a      	str	r2, [r3, #4]
 80043be:	e7ef      	b.n	80043a0 <_malloc_r+0xb0>
 80043c0:	0023      	movs	r3, r4
 80043c2:	6864      	ldr	r4, [r4, #4]
 80043c4:	e7a6      	b.n	8004314 <_malloc_r+0x24>
 80043c6:	9c00      	ldr	r4, [sp, #0]
 80043c8:	6863      	ldr	r3, [r4, #4]
 80043ca:	9300      	str	r3, [sp, #0]
 80043cc:	e7ad      	b.n	800432a <_malloc_r+0x3a>
 80043ce:	001a      	movs	r2, r3
 80043d0:	685b      	ldr	r3, [r3, #4]
 80043d2:	42a3      	cmp	r3, r4
 80043d4:	d1fb      	bne.n	80043ce <_malloc_r+0xde>
 80043d6:	2300      	movs	r3, #0
 80043d8:	e7da      	b.n	8004390 <_malloc_r+0xa0>
 80043da:	230c      	movs	r3, #12
 80043dc:	0028      	movs	r0, r5
 80043de:	602b      	str	r3, [r5, #0]
 80043e0:	f000 f80e 	bl	8004400 <__malloc_unlock>
 80043e4:	e7c6      	b.n	8004374 <_malloc_r+0x84>
 80043e6:	6007      	str	r7, [r0, #0]
 80043e8:	e7da      	b.n	80043a0 <_malloc_r+0xb0>
 80043ea:	46c0      	nop			@ (mov r8, r8)
 80043ec:	20000770 	.word	0x20000770

080043f0 <__malloc_lock>:
 80043f0:	b510      	push	{r4, lr}
 80043f2:	4802      	ldr	r0, [pc, #8]	@ (80043fc <__malloc_lock+0xc>)
 80043f4:	f7ff ff04 	bl	8004200 <__retarget_lock_acquire_recursive>
 80043f8:	bd10      	pop	{r4, pc}
 80043fa:	46c0      	nop			@ (mov r8, r8)
 80043fc:	20000768 	.word	0x20000768

08004400 <__malloc_unlock>:
 8004400:	b510      	push	{r4, lr}
 8004402:	4802      	ldr	r0, [pc, #8]	@ (800440c <__malloc_unlock+0xc>)
 8004404:	f7ff fefd 	bl	8004202 <__retarget_lock_release_recursive>
 8004408:	bd10      	pop	{r4, pc}
 800440a:	46c0      	nop			@ (mov r8, r8)
 800440c:	20000768 	.word	0x20000768

08004410 <__ssputs_r>:
 8004410:	b5f0      	push	{r4, r5, r6, r7, lr}
 8004412:	688e      	ldr	r6, [r1, #8]
 8004414:	b085      	sub	sp, #20
 8004416:	001f      	movs	r7, r3
 8004418:	000c      	movs	r4, r1
 800441a:	680b      	ldr	r3, [r1, #0]
 800441c:	9002      	str	r0, [sp, #8]
 800441e:	9203      	str	r2, [sp, #12]
 8004420:	42be      	cmp	r6, r7
 8004422:	d830      	bhi.n	8004486 <__ssputs_r+0x76>
 8004424:	210c      	movs	r1, #12
 8004426:	5e62      	ldrsh	r2, [r4, r1]
 8004428:	2190      	movs	r1, #144	@ 0x90
 800442a:	00c9      	lsls	r1, r1, #3
 800442c:	420a      	tst	r2, r1
 800442e:	d028      	beq.n	8004482 <__ssputs_r+0x72>
 8004430:	2003      	movs	r0, #3
 8004432:	6921      	ldr	r1, [r4, #16]
 8004434:	1a5b      	subs	r3, r3, r1
 8004436:	9301      	str	r3, [sp, #4]
 8004438:	6963      	ldr	r3, [r4, #20]
 800443a:	4343      	muls	r3, r0
 800443c:	9801      	ldr	r0, [sp, #4]
 800443e:	0fdd      	lsrs	r5, r3, #31
 8004440:	18ed      	adds	r5, r5, r3
 8004442:	1c7b      	adds	r3, r7, #1
 8004444:	181b      	adds	r3, r3, r0
 8004446:	106d      	asrs	r5, r5, #1
 8004448:	42ab      	cmp	r3, r5
 800444a:	d900      	bls.n	800444e <__ssputs_r+0x3e>
 800444c:	001d      	movs	r5, r3
 800444e:	0552      	lsls	r2, r2, #21
 8004450:	d528      	bpl.n	80044a4 <__ssputs_r+0x94>
 8004452:	0029      	movs	r1, r5
 8004454:	9802      	ldr	r0, [sp, #8]
 8004456:	f7ff ff4b 	bl	80042f0 <_malloc_r>
 800445a:	1e06      	subs	r6, r0, #0
 800445c:	d02c      	beq.n	80044b8 <__ssputs_r+0xa8>
 800445e:	9a01      	ldr	r2, [sp, #4]
 8004460:	6921      	ldr	r1, [r4, #16]
 8004462:	f7ff fecf 	bl	8004204 <memcpy>
 8004466:	89a2      	ldrh	r2, [r4, #12]
 8004468:	4b18      	ldr	r3, [pc, #96]	@ (80044cc <__ssputs_r+0xbc>)
 800446a:	401a      	ands	r2, r3
 800446c:	2380      	movs	r3, #128	@ 0x80
 800446e:	4313      	orrs	r3, r2
 8004470:	81a3      	strh	r3, [r4, #12]
 8004472:	9b01      	ldr	r3, [sp, #4]
 8004474:	6126      	str	r6, [r4, #16]
 8004476:	18f6      	adds	r6, r6, r3
 8004478:	6026      	str	r6, [r4, #0]
 800447a:	003e      	movs	r6, r7
 800447c:	6165      	str	r5, [r4, #20]
 800447e:	1aed      	subs	r5, r5, r3
 8004480:	60a5      	str	r5, [r4, #8]
 8004482:	42be      	cmp	r6, r7
 8004484:	d900      	bls.n	8004488 <__ssputs_r+0x78>
 8004486:	003e      	movs	r6, r7
 8004488:	0032      	movs	r2, r6
 800448a:	9903      	ldr	r1, [sp, #12]
 800448c:	6820      	ldr	r0, [r4, #0]
 800448e:	f000 fa99 	bl	80049c4 <memmove>
 8004492:	2000      	movs	r0, #0
 8004494:	68a3      	ldr	r3, [r4, #8]
 8004496:	1b9b      	subs	r3, r3, r6
 8004498:	60a3      	str	r3, [r4, #8]
 800449a:	6823      	ldr	r3, [r4, #0]
 800449c:	199b      	adds	r3, r3, r6
 800449e:	6023      	str	r3, [r4, #0]
 80044a0:	b005      	add	sp, #20
 80044a2:	bdf0      	pop	{r4, r5, r6, r7, pc}
 80044a4:	002a      	movs	r2, r5
 80044a6:	9802      	ldr	r0, [sp, #8]
 80044a8:	f000 fabb 	bl	8004a22 <_realloc_r>
 80044ac:	1e06      	subs	r6, r0, #0
 80044ae:	d1e0      	bne.n	8004472 <__ssputs_r+0x62>
 80044b0:	6921      	ldr	r1, [r4, #16]
 80044b2:	9802      	ldr	r0, [sp, #8]
 80044b4:	f7ff feb0 	bl	8004218 <_free_r>
 80044b8:	230c      	movs	r3, #12
 80044ba:	2001      	movs	r0, #1
 80044bc:	9a02      	ldr	r2, [sp, #8]
 80044be:	4240      	negs	r0, r0
 80044c0:	6013      	str	r3, [r2, #0]
 80044c2:	89a2      	ldrh	r2, [r4, #12]
 80044c4:	3334      	adds	r3, #52	@ 0x34
 80044c6:	4313      	orrs	r3, r2
 80044c8:	81a3      	strh	r3, [r4, #12]
 80044ca:	e7e9      	b.n	80044a0 <__ssputs_r+0x90>
 80044cc:	fffffb7f 	.word	0xfffffb7f

080044d0 <_svfiprintf_r>:
 80044d0:	b5f0      	push	{r4, r5, r6, r7, lr}
 80044d2:	b0a1      	sub	sp, #132	@ 0x84
 80044d4:	9003      	str	r0, [sp, #12]
 80044d6:	001d      	movs	r5, r3
 80044d8:	898b      	ldrh	r3, [r1, #12]
 80044da:	000f      	movs	r7, r1
 80044dc:	0016      	movs	r6, r2
 80044de:	061b      	lsls	r3, r3, #24
 80044e0:	d511      	bpl.n	8004506 <_svfiprintf_r+0x36>
 80044e2:	690b      	ldr	r3, [r1, #16]
 80044e4:	2b00      	cmp	r3, #0
 80044e6:	d10e      	bne.n	8004506 <_svfiprintf_r+0x36>
 80044e8:	2140      	movs	r1, #64	@ 0x40
 80044ea:	f7ff ff01 	bl	80042f0 <_malloc_r>
 80044ee:	6038      	str	r0, [r7, #0]
 80044f0:	6138      	str	r0, [r7, #16]
 80044f2:	2800      	cmp	r0, #0
 80044f4:	d105      	bne.n	8004502 <_svfiprintf_r+0x32>
 80044f6:	230c      	movs	r3, #12
 80044f8:	9a03      	ldr	r2, [sp, #12]
 80044fa:	6013      	str	r3, [r2, #0]
 80044fc:	2001      	movs	r0, #1
 80044fe:	4240      	negs	r0, r0
 8004500:	e0cf      	b.n	80046a2 <_svfiprintf_r+0x1d2>
 8004502:	2340      	movs	r3, #64	@ 0x40
 8004504:	617b      	str	r3, [r7, #20]
 8004506:	2300      	movs	r3, #0
 8004508:	ac08      	add	r4, sp, #32
 800450a:	6163      	str	r3, [r4, #20]
 800450c:	3320      	adds	r3, #32
 800450e:	7663      	strb	r3, [r4, #25]
 8004510:	3310      	adds	r3, #16
 8004512:	76a3      	strb	r3, [r4, #26]
 8004514:	9507      	str	r5, [sp, #28]
 8004516:	0035      	movs	r5, r6
 8004518:	782b      	ldrb	r3, [r5, #0]
 800451a:	2b00      	cmp	r3, #0
 800451c:	d001      	beq.n	8004522 <_svfiprintf_r+0x52>
 800451e:	2b25      	cmp	r3, #37	@ 0x25
 8004520:	d148      	bne.n	80045b4 <_svfiprintf_r+0xe4>
 8004522:	1bab      	subs	r3, r5, r6
 8004524:	9305      	str	r3, [sp, #20]
 8004526:	42b5      	cmp	r5, r6
 8004528:	d00b      	beq.n	8004542 <_svfiprintf_r+0x72>
 800452a:	0032      	movs	r2, r6
 800452c:	0039      	movs	r1, r7
 800452e:	9803      	ldr	r0, [sp, #12]
 8004530:	f7ff ff6e 	bl	8004410 <__ssputs_r>
 8004534:	3001      	adds	r0, #1
 8004536:	d100      	bne.n	800453a <_svfiprintf_r+0x6a>
 8004538:	e0ae      	b.n	8004698 <_svfiprintf_r+0x1c8>
 800453a:	6963      	ldr	r3, [r4, #20]
 800453c:	9a05      	ldr	r2, [sp, #20]
 800453e:	189b      	adds	r3, r3, r2
 8004540:	6163      	str	r3, [r4, #20]
 8004542:	782b      	ldrb	r3, [r5, #0]
 8004544:	2b00      	cmp	r3, #0
 8004546:	d100      	bne.n	800454a <_svfiprintf_r+0x7a>
 8004548:	e0a6      	b.n	8004698 <_svfiprintf_r+0x1c8>
 800454a:	2201      	movs	r2, #1
 800454c:	2300      	movs	r3, #0
 800454e:	4252      	negs	r2, r2
 8004550:	6062      	str	r2, [r4, #4]
 8004552:	a904      	add	r1, sp, #16
 8004554:	3254      	adds	r2, #84	@ 0x54
 8004556:	1852      	adds	r2, r2, r1
 8004558:	1c6e      	adds	r6, r5, #1
 800455a:	6023      	str	r3, [r4, #0]
 800455c:	60e3      	str	r3, [r4, #12]
 800455e:	60a3      	str	r3, [r4, #8]
 8004560:	7013      	strb	r3, [r2, #0]
 8004562:	65a3      	str	r3, [r4, #88]	@ 0x58
 8004564:	4b54      	ldr	r3, [pc, #336]	@ (80046b8 <_svfiprintf_r+0x1e8>)
 8004566:	2205      	movs	r2, #5
 8004568:	0018      	movs	r0, r3
 800456a:	7831      	ldrb	r1, [r6, #0]
 800456c:	9305      	str	r3, [sp, #20]
 800456e:	f000 fa4d 	bl	8004a0c <memchr>
 8004572:	1c75      	adds	r5, r6, #1
 8004574:	2800      	cmp	r0, #0
 8004576:	d11f      	bne.n	80045b8 <_svfiprintf_r+0xe8>
 8004578:	6822      	ldr	r2, [r4, #0]
 800457a:	06d3      	lsls	r3, r2, #27
 800457c:	d504      	bpl.n	8004588 <_svfiprintf_r+0xb8>
 800457e:	2353      	movs	r3, #83	@ 0x53
 8004580:	a904      	add	r1, sp, #16
 8004582:	185b      	adds	r3, r3, r1
 8004584:	2120      	movs	r1, #32
 8004586:	7019      	strb	r1, [r3, #0]
 8004588:	0713      	lsls	r3, r2, #28
 800458a:	d504      	bpl.n	8004596 <_svfiprintf_r+0xc6>
 800458c:	2353      	movs	r3, #83	@ 0x53
 800458e:	a904      	add	r1, sp, #16
 8004590:	185b      	adds	r3, r3, r1
 8004592:	212b      	movs	r1, #43	@ 0x2b
 8004594:	7019      	strb	r1, [r3, #0]
 8004596:	7833      	ldrb	r3, [r6, #0]
 8004598:	2b2a      	cmp	r3, #42	@ 0x2a
 800459a:	d016      	beq.n	80045ca <_svfiprintf_r+0xfa>
 800459c:	0035      	movs	r5, r6
 800459e:	2100      	movs	r1, #0
 80045a0:	200a      	movs	r0, #10
 80045a2:	68e3      	ldr	r3, [r4, #12]
 80045a4:	782a      	ldrb	r2, [r5, #0]
 80045a6:	1c6e      	adds	r6, r5, #1
 80045a8:	3a30      	subs	r2, #48	@ 0x30
 80045aa:	2a09      	cmp	r2, #9
 80045ac:	d950      	bls.n	8004650 <_svfiprintf_r+0x180>
 80045ae:	2900      	cmp	r1, #0
 80045b0:	d111      	bne.n	80045d6 <_svfiprintf_r+0x106>
 80045b2:	e017      	b.n	80045e4 <_svfiprintf_r+0x114>
 80045b4:	3501      	adds	r5, #1
 80045b6:	e7af      	b.n	8004518 <_svfiprintf_r+0x48>
 80045b8:	9b05      	ldr	r3, [sp, #20]
 80045ba:	6822      	ldr	r2, [r4, #0]
 80045bc:	1ac0      	subs	r0, r0, r3
 80045be:	2301      	movs	r3, #1
 80045c0:	4083      	lsls	r3, r0
 80045c2:	4313      	orrs	r3, r2
 80045c4:	002e      	movs	r6, r5
 80045c6:	6023      	str	r3, [r4, #0]
 80045c8:	e7cc      	b.n	8004564 <_svfiprintf_r+0x94>
 80045ca:	9b07      	ldr	r3, [sp, #28]
 80045cc:	1d19      	adds	r1, r3, #4
 80045ce:	681b      	ldr	r3, [r3, #0]
 80045d0:	9107      	str	r1, [sp, #28]
 80045d2:	2b00      	cmp	r3, #0
 80045d4:	db01      	blt.n	80045da <_svfiprintf_r+0x10a>
 80045d6:	930b      	str	r3, [sp, #44]	@ 0x2c
 80045d8:	e004      	b.n	80045e4 <_svfiprintf_r+0x114>
 80045da:	425b      	negs	r3, r3
 80045dc:	60e3      	str	r3, [r4, #12]
 80045de:	2302      	movs	r3, #2
 80045e0:	4313      	orrs	r3, r2
 80045e2:	6023      	str	r3, [r4, #0]
 80045e4:	782b      	ldrb	r3, [r5, #0]
 80045e6:	2b2e      	cmp	r3, #46	@ 0x2e
 80045e8:	d10c      	bne.n	8004604 <_svfiprintf_r+0x134>
 80045ea:	786b      	ldrb	r3, [r5, #1]
 80045ec:	2b2a      	cmp	r3, #42	@ 0x2a
 80045ee:	d134      	bne.n	800465a <_svfiprintf_r+0x18a>
 80045f0:	9b07      	ldr	r3, [sp, #28]
 80045f2:	3502      	adds	r5, #2
 80045f4:	1d1a      	adds	r2, r3, #4
 80045f6:	681b      	ldr	r3, [r3, #0]
 80045f8:	9207      	str	r2, [sp, #28]
 80045fa:	2b00      	cmp	r3, #0
 80045fc:	da01      	bge.n	8004602 <_svfiprintf_r+0x132>
 80045fe:	2301      	movs	r3, #1
 8004600:	425b      	negs	r3, r3
 8004602:	9309      	str	r3, [sp, #36]	@ 0x24
 8004604:	4e2d      	ldr	r6, [pc, #180]	@ (80046bc <_svfiprintf_r+0x1ec>)
 8004606:	2203      	movs	r2, #3
 8004608:	0030      	movs	r0, r6
 800460a:	7829      	ldrb	r1, [r5, #0]
 800460c:	f000 f9fe 	bl	8004a0c <memchr>
 8004610:	2800      	cmp	r0, #0
 8004612:	d006      	beq.n	8004622 <_svfiprintf_r+0x152>
 8004614:	2340      	movs	r3, #64	@ 0x40
 8004616:	1b80      	subs	r0, r0, r6
 8004618:	4083      	lsls	r3, r0
 800461a:	6822      	ldr	r2, [r4, #0]
 800461c:	3501      	adds	r5, #1
 800461e:	4313      	orrs	r3, r2
 8004620:	6023      	str	r3, [r4, #0]
 8004622:	7829      	ldrb	r1, [r5, #0]
 8004624:	2206      	movs	r2, #6
 8004626:	4826      	ldr	r0, [pc, #152]	@ (80046c0 <_svfiprintf_r+0x1f0>)
 8004628:	1c6e      	adds	r6, r5, #1
 800462a:	7621      	strb	r1, [r4, #24]
 800462c:	f000 f9ee 	bl	8004a0c <memchr>
 8004630:	2800      	cmp	r0, #0
 8004632:	d038      	beq.n	80046a6 <_svfiprintf_r+0x1d6>
 8004634:	4b23      	ldr	r3, [pc, #140]	@ (80046c4 <_svfiprintf_r+0x1f4>)
 8004636:	2b00      	cmp	r3, #0
 8004638:	d122      	bne.n	8004680 <_svfiprintf_r+0x1b0>
 800463a:	2207      	movs	r2, #7
 800463c:	9b07      	ldr	r3, [sp, #28]
 800463e:	3307      	adds	r3, #7
 8004640:	4393      	bics	r3, r2
 8004642:	3308      	adds	r3, #8
 8004644:	9307      	str	r3, [sp, #28]
 8004646:	6963      	ldr	r3, [r4, #20]
 8004648:	9a04      	ldr	r2, [sp, #16]
 800464a:	189b      	adds	r3, r3, r2
 800464c:	6163      	str	r3, [r4, #20]
 800464e:	e762      	b.n	8004516 <_svfiprintf_r+0x46>
 8004650:	4343      	muls	r3, r0
 8004652:	0035      	movs	r5, r6
 8004654:	2101      	movs	r1, #1
 8004656:	189b      	adds	r3, r3, r2
 8004658:	e7a4      	b.n	80045a4 <_svfiprintf_r+0xd4>
 800465a:	2300      	movs	r3, #0
 800465c:	200a      	movs	r0, #10
 800465e:	0019      	movs	r1, r3
 8004660:	3501      	adds	r5, #1
 8004662:	6063      	str	r3, [r4, #4]
 8004664:	782a      	ldrb	r2, [r5, #0]
 8004666:	1c6e      	adds	r6, r5, #1
 8004668:	3a30      	subs	r2, #48	@ 0x30
 800466a:	2a09      	cmp	r2, #9
 800466c:	d903      	bls.n	8004676 <_svfiprintf_r+0x1a6>
 800466e:	2b00      	cmp	r3, #0
 8004670:	d0c8      	beq.n	8004604 <_svfiprintf_r+0x134>
 8004672:	9109      	str	r1, [sp, #36]	@ 0x24
 8004674:	e7c6      	b.n	8004604 <_svfiprintf_r+0x134>
 8004676:	4341      	muls	r1, r0
 8004678:	0035      	movs	r5, r6
 800467a:	2301      	movs	r3, #1
 800467c:	1889      	adds	r1, r1, r2
 800467e:	e7f1      	b.n	8004664 <_svfiprintf_r+0x194>
 8004680:	aa07      	add	r2, sp, #28
 8004682:	9200      	str	r2, [sp, #0]
 8004684:	0021      	movs	r1, r4
 8004686:	003a      	movs	r2, r7
 8004688:	4b0f      	ldr	r3, [pc, #60]	@ (80046c8 <_svfiprintf_r+0x1f8>)
 800468a:	9803      	ldr	r0, [sp, #12]
 800468c:	e000      	b.n	8004690 <_svfiprintf_r+0x1c0>
 800468e:	bf00      	nop
 8004690:	9004      	str	r0, [sp, #16]
 8004692:	9b04      	ldr	r3, [sp, #16]
 8004694:	3301      	adds	r3, #1
 8004696:	d1d6      	bne.n	8004646 <_svfiprintf_r+0x176>
 8004698:	89bb      	ldrh	r3, [r7, #12]
 800469a:	980d      	ldr	r0, [sp, #52]	@ 0x34
 800469c:	065b      	lsls	r3, r3, #25
 800469e:	d500      	bpl.n	80046a2 <_svfiprintf_r+0x1d2>
 80046a0:	e72c      	b.n	80044fc <_svfiprintf_r+0x2c>
 80046a2:	b021      	add	sp, #132	@ 0x84
 80046a4:	bdf0      	pop	{r4, r5, r6, r7, pc}
 80046a6:	aa07      	add	r2, sp, #28
 80046a8:	9200      	str	r2, [sp, #0]
 80046aa:	0021      	movs	r1, r4
 80046ac:	003a      	movs	r2, r7
 80046ae:	4b06      	ldr	r3, [pc, #24]	@ (80046c8 <_svfiprintf_r+0x1f8>)
 80046b0:	9803      	ldr	r0, [sp, #12]
 80046b2:	f000 f87b 	bl	80047ac <_printf_i>
 80046b6:	e7eb      	b.n	8004690 <_svfiprintf_r+0x1c0>
 80046b8:	080080dc 	.word	0x080080dc
 80046bc:	080080e2 	.word	0x080080e2
 80046c0:	080080e6 	.word	0x080080e6
 80046c4:	00000000 	.word	0x00000000
 80046c8:	08004411 	.word	0x08004411

080046cc <_printf_common>:
 80046cc:	b5f7      	push	{r0, r1, r2, r4, r5, r6, r7, lr}
 80046ce:	0016      	movs	r6, r2
 80046d0:	9301      	str	r3, [sp, #4]
 80046d2:	688a      	ldr	r2, [r1, #8]
 80046d4:	690b      	ldr	r3, [r1, #16]
 80046d6:	000c      	movs	r4, r1
 80046d8:	9000      	str	r0, [sp, #0]
 80046da:	4293      	cmp	r3, r2
 80046dc:	da00      	bge.n	80046e0 <_printf_common+0x14>
 80046de:	0013      	movs	r3, r2
 80046e0:	0022      	movs	r2, r4
 80046e2:	6033      	str	r3, [r6, #0]
 80046e4:	3243      	adds	r2, #67	@ 0x43
 80046e6:	7812      	ldrb	r2, [r2, #0]
 80046e8:	2a00      	cmp	r2, #0
 80046ea:	d001      	beq.n	80046f0 <_printf_common+0x24>
 80046ec:	3301      	adds	r3, #1
 80046ee:	6033      	str	r3, [r6, #0]
 80046f0:	6823      	ldr	r3, [r4, #0]
 80046f2:	069b      	lsls	r3, r3, #26
 80046f4:	d502      	bpl.n	80046fc <_printf_common+0x30>
 80046f6:	6833      	ldr	r3, [r6, #0]
 80046f8:	3302      	adds	r3, #2
 80046fa:	6033      	str	r3, [r6, #0]
 80046fc:	6822      	ldr	r2, [r4, #0]
 80046fe:	2306      	movs	r3, #6
 8004700:	0015      	movs	r5, r2
 8004702:	401d      	ands	r5, r3
 8004704:	421a      	tst	r2, r3
 8004706:	d027      	beq.n	8004758 <_printf_common+0x8c>
 8004708:	0023      	movs	r3, r4
 800470a:	3343      	adds	r3, #67	@ 0x43
 800470c:	781b      	ldrb	r3, [r3, #0]
 800470e:	1e5a      	subs	r2, r3, #1
 8004710:	4193      	sbcs	r3, r2
 8004712:	6822      	ldr	r2, [r4, #0]
 8004714:	0692      	lsls	r2, r2, #26
 8004716:	d430      	bmi.n	800477a <_printf_common+0xae>
 8004718:	0022      	movs	r2, r4
 800471a:	9901      	ldr	r1, [sp, #4]
 800471c:	9800      	ldr	r0, [sp, #0]
 800471e:	9d08      	ldr	r5, [sp, #32]
 8004720:	3243      	adds	r2, #67	@ 0x43
 8004722:	47a8      	blx	r5
 8004724:	3001      	adds	r0, #1
 8004726:	d025      	beq.n	8004774 <_printf_common+0xa8>
 8004728:	2206      	movs	r2, #6
 800472a:	6823      	ldr	r3, [r4, #0]
 800472c:	2500      	movs	r5, #0
 800472e:	4013      	ands	r3, r2
 8004730:	2b04      	cmp	r3, #4
 8004732:	d105      	bne.n	8004740 <_printf_common+0x74>
 8004734:	6833      	ldr	r3, [r6, #0]
 8004736:	68e5      	ldr	r5, [r4, #12]
 8004738:	1aed      	subs	r5, r5, r3
 800473a:	43eb      	mvns	r3, r5
 800473c:	17db      	asrs	r3, r3, #31
 800473e:	401d      	ands	r5, r3
 8004740:	68a3      	ldr	r3, [r4, #8]
 8004742:	6922      	ldr	r2, [r4, #16]
 8004744:	4293      	cmp	r3, r2
 8004746:	dd01      	ble.n	800474c <_printf_common+0x80>
 8004748:	1a9b      	subs	r3, r3, r2
 800474a:	18ed      	adds	r5, r5, r3
 800474c:	2600      	movs	r6, #0
 800474e:	42b5      	cmp	r5, r6
 8004750:	d120      	bne.n	8004794 <_printf_common+0xc8>
 8004752:	2000      	movs	r0, #0
 8004754:	e010      	b.n	8004778 <_printf_common+0xac>
 8004756:	3501      	adds	r5, #1
 8004758:	68e3      	ldr	r3, [r4, #12]
 800475a:	6832      	ldr	r2, [r6, #0]
 800475c:	1a9b      	subs	r3, r3, r2
 800475e:	42ab      	cmp	r3, r5
 8004760:	ddd2      	ble.n	8004708 <_printf_common+0x3c>
 8004762:	0022      	movs	r2, r4
 8004764:	2301      	movs	r3, #1
 8004766:	9901      	ldr	r1, [sp, #4]
 8004768:	9800      	ldr	r0, [sp, #0]
 800476a:	9f08      	ldr	r7, [sp, #32]
 800476c:	3219      	adds	r2, #25
 800476e:	47b8      	blx	r7
 8004770:	3001      	adds	r0, #1
 8004772:	d1f0      	bne.n	8004756 <_printf_common+0x8a>
 8004774:	2001      	movs	r0, #1
 8004776:	4240      	negs	r0, r0
 8004778:	bdfe      	pop	{r1, r2, r3, r4, r5, r6, r7, pc}
 800477a:	2030      	movs	r0, #48	@ 0x30
 800477c:	18e1      	adds	r1, r4, r3
 800477e:	3143      	adds	r1, #67	@ 0x43
 8004780:	7008      	strb	r0, [r1, #0]
 8004782:	0021      	movs	r1, r4
 8004784:	1c5a      	adds	r2, r3, #1
 8004786:	3145      	adds	r1, #69	@ 0x45
 8004788:	7809      	ldrb	r1, [r1, #0]
 800478a:	18a2      	adds	r2, r4, r2
 800478c:	3243      	adds	r2, #67	@ 0x43
 800478e:	3302      	adds	r3, #2
 8004790:	7011      	strb	r1, [r2, #0]
 8004792:	e7c1      	b.n	8004718 <_printf_common+0x4c>
 8004794:	0022      	movs	r2, r4
 8004796:	2301      	movs	r3, #1
 8004798:	9901      	ldr	r1, [sp, #4]
 800479a:	9800      	ldr	r0, [sp, #0]
 800479c:	9f08      	ldr	r7, [sp, #32]
 800479e:	321a      	adds	r2, #26
 80047a0:	47b8      	blx	r7
 80047a2:	3001      	adds	r0, #1
 80047a4:	d0e6      	beq.n	8004774 <_printf_common+0xa8>
 80047a6:	3601      	adds	r6, #1
 80047a8:	e7d1      	b.n	800474e <_printf_common+0x82>
	...

080047ac <_printf_i>:
 80047ac:	b5f0      	push	{r4, r5, r6, r7, lr}
 80047ae:	b08b      	sub	sp, #44	@ 0x2c
 80047b0:	9206      	str	r2, [sp, #24]
 80047b2:	000a      	movs	r2, r1
 80047b4:	3243      	adds	r2, #67	@ 0x43
 80047b6:	9307      	str	r3, [sp, #28]
 80047b8:	9005      	str	r0, [sp, #20]
 80047ba:	9203      	str	r2, [sp, #12]
 80047bc:	7e0a      	ldrb	r2, [r1, #24]
 80047be:	000c      	movs	r4, r1
 80047c0:	9b10      	ldr	r3, [sp, #64]	@ 0x40
 80047c2:	2a78      	cmp	r2, #120	@ 0x78
 80047c4:	d809      	bhi.n	80047da <_printf_i+0x2e>
 80047c6:	2a62      	cmp	r2, #98	@ 0x62
 80047c8:	d80b      	bhi.n	80047e2 <_printf_i+0x36>
 80047ca:	2a00      	cmp	r2, #0
 80047cc:	d100      	bne.n	80047d0 <_printf_i+0x24>
 80047ce:	e0ba      	b.n	8004946 <_printf_i+0x19a>
 80047d0:	497a      	ldr	r1, [pc, #488]	@ (80049bc <_printf_i+0x210>)
 80047d2:	9104      	str	r1, [sp, #16]
 80047d4:	2a58      	cmp	r2, #88	@ 0x58
 80047d6:	d100      	bne.n	80047da <_printf_i+0x2e>
 80047d8:	e08e      	b.n	80048f8 <_printf_i+0x14c>
 80047da:	0025      	movs	r5, r4
 80047dc:	3542      	adds	r5, #66	@ 0x42
 80047de:	702a      	strb	r2, [r5, #0]
 80047e0:	e022      	b.n	8004828 <_printf_i+0x7c>
 80047e2:	0010      	movs	r0, r2
 80047e4:	3863      	subs	r0, #99	@ 0x63
 80047e6:	2815      	cmp	r0, #21
 80047e8:	d8f7      	bhi.n	80047da <_printf_i+0x2e>
 80047ea:	f7fb fc89 	bl	8000100 <__gnu_thumb1_case_shi>
 80047ee:	0016      	.short	0x0016
 80047f0:	fff6001f 	.word	0xfff6001f
 80047f4:	fff6fff6 	.word	0xfff6fff6
 80047f8:	001ffff6 	.word	0x001ffff6
 80047fc:	fff6fff6 	.word	0xfff6fff6
 8004800:	fff6fff6 	.word	0xfff6fff6
 8004804:	0036009f 	.word	0x0036009f
 8004808:	fff6007e 	.word	0xfff6007e
 800480c:	00b0fff6 	.word	0x00b0fff6
 8004810:	0036fff6 	.word	0x0036fff6
 8004814:	fff6fff6 	.word	0xfff6fff6
 8004818:	0082      	.short	0x0082
 800481a:	0025      	movs	r5, r4
 800481c:	681a      	ldr	r2, [r3, #0]
 800481e:	3542      	adds	r5, #66	@ 0x42
 8004820:	1d11      	adds	r1, r2, #4
 8004822:	6019      	str	r1, [r3, #0]
 8004824:	6813      	ldr	r3, [r2, #0]
 8004826:	702b      	strb	r3, [r5, #0]
 8004828:	2301      	movs	r3, #1
 800482a:	e09e      	b.n	800496a <_printf_i+0x1be>
 800482c:	6818      	ldr	r0, [r3, #0]
 800482e:	6809      	ldr	r1, [r1, #0]
 8004830:	1d02      	adds	r2, r0, #4
 8004832:	060d      	lsls	r5, r1, #24
 8004834:	d50b      	bpl.n	800484e <_printf_i+0xa2>
 8004836:	6806      	ldr	r6, [r0, #0]
 8004838:	601a      	str	r2, [r3, #0]
 800483a:	2e00      	cmp	r6, #0
 800483c:	da03      	bge.n	8004846 <_printf_i+0x9a>
 800483e:	232d      	movs	r3, #45	@ 0x2d
 8004840:	9a03      	ldr	r2, [sp, #12]
 8004842:	4276      	negs	r6, r6
 8004844:	7013      	strb	r3, [r2, #0]
 8004846:	4b5d      	ldr	r3, [pc, #372]	@ (80049bc <_printf_i+0x210>)
 8004848:	270a      	movs	r7, #10
 800484a:	9304      	str	r3, [sp, #16]
 800484c:	e018      	b.n	8004880 <_printf_i+0xd4>
 800484e:	6806      	ldr	r6, [r0, #0]
 8004850:	601a      	str	r2, [r3, #0]
 8004852:	0649      	lsls	r1, r1, #25
 8004854:	d5f1      	bpl.n	800483a <_printf_i+0x8e>
 8004856:	b236      	sxth	r6, r6
 8004858:	e7ef      	b.n	800483a <_printf_i+0x8e>
 800485a:	6808      	ldr	r0, [r1, #0]
 800485c:	6819      	ldr	r1, [r3, #0]
 800485e:	c940      	ldmia	r1!, {r6}
 8004860:	0605      	lsls	r5, r0, #24
 8004862:	d402      	bmi.n	800486a <_printf_i+0xbe>
 8004864:	0640      	lsls	r0, r0, #25
 8004866:	d500      	bpl.n	800486a <_printf_i+0xbe>
 8004868:	b2b6      	uxth	r6, r6
 800486a:	6019      	str	r1, [r3, #0]
 800486c:	4b53      	ldr	r3, [pc, #332]	@ (80049bc <_printf_i+0x210>)
 800486e:	270a      	movs	r7, #10
 8004870:	9304      	str	r3, [sp, #16]
 8004872:	2a6f      	cmp	r2, #111	@ 0x6f
 8004874:	d100      	bne.n	8004878 <_printf_i+0xcc>
 8004876:	3f02      	subs	r7, #2
 8004878:	0023      	movs	r3, r4
 800487a:	2200      	movs	r2, #0
 800487c:	3343      	adds	r3, #67	@ 0x43
 800487e:	701a      	strb	r2, [r3, #0]
 8004880:	6863      	ldr	r3, [r4, #4]
 8004882:	60a3      	str	r3, [r4, #8]
 8004884:	2b00      	cmp	r3, #0
 8004886:	db06      	blt.n	8004896 <_printf_i+0xea>
 8004888:	2104      	movs	r1, #4
 800488a:	6822      	ldr	r2, [r4, #0]
 800488c:	9d03      	ldr	r5, [sp, #12]
 800488e:	438a      	bics	r2, r1
 8004890:	6022      	str	r2, [r4, #0]
 8004892:	4333      	orrs	r3, r6
 8004894:	d00c      	beq.n	80048b0 <_printf_i+0x104>
 8004896:	9d03      	ldr	r5, [sp, #12]
 8004898:	0030      	movs	r0, r6
 800489a:	0039      	movs	r1, r7
 800489c:	f7fb fcc0 	bl	8000220 <__aeabi_uidivmod>
 80048a0:	9b04      	ldr	r3, [sp, #16]
 80048a2:	3d01      	subs	r5, #1
 80048a4:	5c5b      	ldrb	r3, [r3, r1]
 80048a6:	702b      	strb	r3, [r5, #0]
 80048a8:	0033      	movs	r3, r6
 80048aa:	0006      	movs	r6, r0
 80048ac:	429f      	cmp	r7, r3
 80048ae:	d9f3      	bls.n	8004898 <_printf_i+0xec>
 80048b0:	2f08      	cmp	r7, #8
 80048b2:	d109      	bne.n	80048c8 <_printf_i+0x11c>
 80048b4:	6823      	ldr	r3, [r4, #0]
 80048b6:	07db      	lsls	r3, r3, #31
 80048b8:	d506      	bpl.n	80048c8 <_printf_i+0x11c>
 80048ba:	6862      	ldr	r2, [r4, #4]
 80048bc:	6923      	ldr	r3, [r4, #16]
 80048be:	429a      	cmp	r2, r3
 80048c0:	dc02      	bgt.n	80048c8 <_printf_i+0x11c>
 80048c2:	2330      	movs	r3, #48	@ 0x30
 80048c4:	3d01      	subs	r5, #1
 80048c6:	702b      	strb	r3, [r5, #0]
 80048c8:	9b03      	ldr	r3, [sp, #12]
 80048ca:	1b5b      	subs	r3, r3, r5
 80048cc:	6123      	str	r3, [r4, #16]
 80048ce:	9b07      	ldr	r3, [sp, #28]
 80048d0:	0021      	movs	r1, r4
 80048d2:	9300      	str	r3, [sp, #0]
 80048d4:	9805      	ldr	r0, [sp, #20]
 80048d6:	9b06      	ldr	r3, [sp, #24]
 80048d8:	aa09      	add	r2, sp, #36	@ 0x24
 80048da:	f7ff fef7 	bl	80046cc <_printf_common>
 80048de:	3001      	adds	r0, #1
 80048e0:	d148      	bne.n	8004974 <_printf_i+0x1c8>
 80048e2:	2001      	movs	r0, #1
 80048e4:	4240      	negs	r0, r0
 80048e6:	b00b      	add	sp, #44	@ 0x2c
 80048e8:	bdf0      	pop	{r4, r5, r6, r7, pc}
 80048ea:	2220      	movs	r2, #32
 80048ec:	6809      	ldr	r1, [r1, #0]
 80048ee:	430a      	orrs	r2, r1
 80048f0:	6022      	str	r2, [r4, #0]
 80048f2:	2278      	movs	r2, #120	@ 0x78
 80048f4:	4932      	ldr	r1, [pc, #200]	@ (80049c0 <_printf_i+0x214>)
 80048f6:	9104      	str	r1, [sp, #16]
 80048f8:	0021      	movs	r1, r4
 80048fa:	3145      	adds	r1, #69	@ 0x45
 80048fc:	700a      	strb	r2, [r1, #0]
 80048fe:	6819      	ldr	r1, [r3, #0]
 8004900:	6822      	ldr	r2, [r4, #0]
 8004902:	c940      	ldmia	r1!, {r6}
 8004904:	0610      	lsls	r0, r2, #24
 8004906:	d402      	bmi.n	800490e <_printf_i+0x162>
 8004908:	0650      	lsls	r0, r2, #25
 800490a:	d500      	bpl.n	800490e <_printf_i+0x162>
 800490c:	b2b6      	uxth	r6, r6
 800490e:	6019      	str	r1, [r3, #0]
 8004910:	07d3      	lsls	r3, r2, #31
 8004912:	d502      	bpl.n	800491a <_printf_i+0x16e>
 8004914:	2320      	movs	r3, #32
 8004916:	4313      	orrs	r3, r2
 8004918:	6023      	str	r3, [r4, #0]
 800491a:	2e00      	cmp	r6, #0
 800491c:	d001      	beq.n	8004922 <_printf_i+0x176>
 800491e:	2710      	movs	r7, #16
 8004920:	e7aa      	b.n	8004878 <_printf_i+0xcc>
 8004922:	2220      	movs	r2, #32
 8004924:	6823      	ldr	r3, [r4, #0]
 8004926:	4393      	bics	r3, r2
 8004928:	6023      	str	r3, [r4, #0]
 800492a:	e7f8      	b.n	800491e <_printf_i+0x172>
 800492c:	681a      	ldr	r2, [r3, #0]
 800492e:	680d      	ldr	r5, [r1, #0]
 8004930:	1d10      	adds	r0, r2, #4
 8004932:	6949      	ldr	r1, [r1, #20]
 8004934:	6018      	str	r0, [r3, #0]
 8004936:	6813      	ldr	r3, [r2, #0]
 8004938:	062e      	lsls	r6, r5, #24
 800493a:	d501      	bpl.n	8004940 <_printf_i+0x194>
 800493c:	6019      	str	r1, [r3, #0]
 800493e:	e002      	b.n	8004946 <_printf_i+0x19a>
 8004940:	066d      	lsls	r5, r5, #25
 8004942:	d5fb      	bpl.n	800493c <_printf_i+0x190>
 8004944:	8019      	strh	r1, [r3, #0]
 8004946:	2300      	movs	r3, #0
 8004948:	9d03      	ldr	r5, [sp, #12]
 800494a:	6123      	str	r3, [r4, #16]
 800494c:	e7bf      	b.n	80048ce <_printf_i+0x122>
 800494e:	681a      	ldr	r2, [r3, #0]
 8004950:	1d11      	adds	r1, r2, #4
 8004952:	6019      	str	r1, [r3, #0]
 8004954:	6815      	ldr	r5, [r2, #0]
 8004956:	2100      	movs	r1, #0
 8004958:	0028      	movs	r0, r5
 800495a:	6862      	ldr	r2, [r4, #4]
 800495c:	f000 f856 	bl	8004a0c <memchr>
 8004960:	2800      	cmp	r0, #0
 8004962:	d001      	beq.n	8004968 <_printf_i+0x1bc>
 8004964:	1b40      	subs	r0, r0, r5
 8004966:	6060      	str	r0, [r4, #4]
 8004968:	6863      	ldr	r3, [r4, #4]
 800496a:	6123      	str	r3, [r4, #16]
 800496c:	2300      	movs	r3, #0
 800496e:	9a03      	ldr	r2, [sp, #12]
 8004970:	7013      	strb	r3, [r2, #0]
 8004972:	e7ac      	b.n	80048ce <_printf_i+0x122>
 8004974:	002a      	movs	r2, r5
 8004976:	6923      	ldr	r3, [r4, #16]
 8004978:	9906      	ldr	r1, [sp, #24]
 800497a:	9805      	ldr	r0, [sp, #20]
 800497c:	9d07      	ldr	r5, [sp, #28]
 800497e:	47a8      	blx	r5
 8004980:	3001      	adds	r0, #1
 8004982:	d0ae      	beq.n	80048e2 <_printf_i+0x136>
 8004984:	6823      	ldr	r3, [r4, #0]
 8004986:	079b      	lsls	r3, r3, #30
 8004988:	d415      	bmi.n	80049b6 <_printf_i+0x20a>
 800498a:	9b09      	ldr	r3, [sp, #36]	@ 0x24
 800498c:	68e0      	ldr	r0, [r4, #12]
 800498e:	4298      	cmp	r0, r3
 8004990:	daa9      	bge.n	80048e6 <_printf_i+0x13a>
 8004992:	0018      	movs	r0, r3
 8004994:	e7a7      	b.n	80048e6 <_printf_i+0x13a>
 8004996:	0022      	movs	r2, r4
 8004998:	2301      	movs	r3, #1
 800499a:	9906      	ldr	r1, [sp, #24]
 800499c:	9805      	ldr	r0, [sp, #20]
 800499e:	9e07      	ldr	r6, [sp, #28]
 80049a0:	3219      	adds	r2, #25
 80049a2:	47b0      	blx	r6
 80049a4:	3001      	adds	r0, #1
 80049a6:	d09c      	beq.n	80048e2 <_printf_i+0x136>
 80049a8:	3501      	adds	r5, #1
 80049aa:	68e3      	ldr	r3, [r4, #12]
 80049ac:	9a09      	ldr	r2, [sp, #36]	@ 0x24
 80049ae:	1a9b      	subs	r3, r3, r2
 80049b0:	42ab      	cmp	r3, r5
 80049b2:	dcf0      	bgt.n	8004996 <_printf_i+0x1ea>
 80049b4:	e7e9      	b.n	800498a <_printf_i+0x1de>
 80049b6:	2500      	movs	r5, #0
 80049b8:	e7f7      	b.n	80049aa <_printf_i+0x1fe>
 80049ba:	46c0      	nop			@ (mov r8, r8)
 80049bc:	080080ed 	.word	0x080080ed
 80049c0:	080080fe 	.word	0x080080fe

080049c4 <memmove>:
 80049c4:	b510      	push	{r4, lr}
 80049c6:	4288      	cmp	r0, r1
 80049c8:	d902      	bls.n	80049d0 <memmove+0xc>
 80049ca:	188b      	adds	r3, r1, r2
 80049cc:	4298      	cmp	r0, r3
 80049ce:	d308      	bcc.n	80049e2 <memmove+0x1e>
 80049d0:	2300      	movs	r3, #0
 80049d2:	429a      	cmp	r2, r3
 80049d4:	d007      	beq.n	80049e6 <memmove+0x22>
 80049d6:	5ccc      	ldrb	r4, [r1, r3]
 80049d8:	54c4      	strb	r4, [r0, r3]
 80049da:	3301      	adds	r3, #1
 80049dc:	e7f9      	b.n	80049d2 <memmove+0xe>
 80049de:	5c8b      	ldrb	r3, [r1, r2]
 80049e0:	5483      	strb	r3, [r0, r2]
 80049e2:	3a01      	subs	r2, #1
 80049e4:	d2fb      	bcs.n	80049de <memmove+0x1a>
 80049e6:	bd10      	pop	{r4, pc}

080049e8 <_sbrk_r>:
 80049e8:	2300      	movs	r3, #0
 80049ea:	b570      	push	{r4, r5, r6, lr}
 80049ec:	4d06      	ldr	r5, [pc, #24]	@ (8004a08 <_sbrk_r+0x20>)
 80049ee:	0004      	movs	r4, r0
 80049f0:	0008      	movs	r0, r1
 80049f2:	602b      	str	r3, [r5, #0]
 80049f4:	f7fd f918 	bl	8001c28 <_sbrk>
 80049f8:	1c43      	adds	r3, r0, #1
 80049fa:	d103      	bne.n	8004a04 <_sbrk_r+0x1c>
 80049fc:	682b      	ldr	r3, [r5, #0]
 80049fe:	2b00      	cmp	r3, #0
 8004a00:	d000      	beq.n	8004a04 <_sbrk_r+0x1c>
 8004a02:	6023      	str	r3, [r4, #0]
 8004a04:	bd70      	pop	{r4, r5, r6, pc}
 8004a06:	46c0      	nop			@ (mov r8, r8)
 8004a08:	20000764 	.word	0x20000764

08004a0c <memchr>:
 8004a0c:	b2c9      	uxtb	r1, r1
 8004a0e:	1882      	adds	r2, r0, r2
 8004a10:	4290      	cmp	r0, r2
 8004a12:	d101      	bne.n	8004a18 <memchr+0xc>
 8004a14:	2000      	movs	r0, #0
 8004a16:	4770      	bx	lr
 8004a18:	7803      	ldrb	r3, [r0, #0]
 8004a1a:	428b      	cmp	r3, r1
 8004a1c:	d0fb      	beq.n	8004a16 <memchr+0xa>
 8004a1e:	3001      	adds	r0, #1
 8004a20:	e7f6      	b.n	8004a10 <memchr+0x4>

08004a22 <_realloc_r>:
 8004a22:	b5f7      	push	{r0, r1, r2, r4, r5, r6, r7, lr}
 8004a24:	0006      	movs	r6, r0
 8004a26:	000c      	movs	r4, r1
 8004a28:	0015      	movs	r5, r2
 8004a2a:	2900      	cmp	r1, #0
 8004a2c:	d105      	bne.n	8004a3a <_realloc_r+0x18>
 8004a2e:	0011      	movs	r1, r2
 8004a30:	f7ff fc5e 	bl	80042f0 <_malloc_r>
 8004a34:	0004      	movs	r4, r0
 8004a36:	0020      	movs	r0, r4
 8004a38:	bdfe      	pop	{r1, r2, r3, r4, r5, r6, r7, pc}
 8004a3a:	2a00      	cmp	r2, #0
 8004a3c:	d103      	bne.n	8004a46 <_realloc_r+0x24>
 8004a3e:	f7ff fbeb 	bl	8004218 <_free_r>
 8004a42:	002c      	movs	r4, r5
 8004a44:	e7f7      	b.n	8004a36 <_realloc_r+0x14>
 8004a46:	f000 f81c 	bl	8004a82 <_malloc_usable_size_r>
 8004a4a:	0007      	movs	r7, r0
 8004a4c:	4285      	cmp	r5, r0
 8004a4e:	d802      	bhi.n	8004a56 <_realloc_r+0x34>
 8004a50:	0843      	lsrs	r3, r0, #1
 8004a52:	42ab      	cmp	r3, r5
 8004a54:	d3ef      	bcc.n	8004a36 <_realloc_r+0x14>
 8004a56:	0029      	movs	r1, r5
 8004a58:	0030      	movs	r0, r6
 8004a5a:	f7ff fc49 	bl	80042f0 <_malloc_r>
 8004a5e:	9001      	str	r0, [sp, #4]
 8004a60:	2800      	cmp	r0, #0
 8004a62:	d101      	bne.n	8004a68 <_realloc_r+0x46>
 8004a64:	9c01      	ldr	r4, [sp, #4]
 8004a66:	e7e6      	b.n	8004a36 <_realloc_r+0x14>
 8004a68:	002a      	movs	r2, r5
 8004a6a:	42bd      	cmp	r5, r7
 8004a6c:	d900      	bls.n	8004a70 <_realloc_r+0x4e>
 8004a6e:	003a      	movs	r2, r7
 8004a70:	0021      	movs	r1, r4
 8004a72:	9801      	ldr	r0, [sp, #4]
 8004a74:	f7ff fbc6 	bl	8004204 <memcpy>
 8004a78:	0021      	movs	r1, r4
 8004a7a:	0030      	movs	r0, r6
 8004a7c:	f7ff fbcc 	bl	8004218 <_free_r>
 8004a80:	e7f0      	b.n	8004a64 <_realloc_r+0x42>

08004a82 <_malloc_usable_size_r>:
 8004a82:	1f0b      	subs	r3, r1, #4
 8004a84:	681b      	ldr	r3, [r3, #0]
 8004a86:	1f18      	subs	r0, r3, #4
 8004a88:	2b00      	cmp	r3, #0
 8004a8a:	da01      	bge.n	8004a90 <_malloc_usable_size_r+0xe>
 8004a8c:	580b      	ldr	r3, [r1, r0]
 8004a8e:	18c0      	adds	r0, r0, r3
 8004a90:	4770      	bx	lr
	...

08004a94 <_init>:
 8004a94:	b5f8      	push	{r3, r4, r5, r6, r7, lr}
 8004a96:	46c0      	nop			@ (mov r8, r8)
 8004a98:	bcf8      	pop	{r3, r4, r5, r6, r7}
 8004a9a:	bc08      	pop	{r3}
 8004a9c:	469e      	mov	lr, r3
 8004a9e:	4770      	bx	lr

08004aa0 <_fini>:
 8004aa0:	b5f8      	push	{r3, r4, r5, r6, r7, lr}
 8004aa2:	46c0      	nop			@ (mov r8, r8)
 8004aa4:	bcf8      	pop	{r3, r4, r5, r6, r7}
 8004aa6:	bc08      	pop	{r3}
 8004aa8:	469e      	mov	lr, r3
 8004aaa:	4770      	bx	lr
 8004aac:	0000      	movs	r0, r0
	...

08004ab0 <__FLASH_Program_Fast_veneer>:
 8004ab0:	b401      	push	{r0}
 8004ab2:	4802      	ldr	r0, [pc, #8]	@ (8004abc <__FLASH_Program_Fast_veneer+0xc>)
 8004ab4:	4684      	mov	ip, r0
 8004ab6:	bc01      	pop	{r0}
 8004ab8:	4760      	bx	ip
 8004aba:	bf00      	nop
 8004abc:	20000071 	.word	0x20000071

Disassembly of section .data:

20000000 <ani_idle>:
20000000:	08004f48 08005348 08005748 08005b48     HO..HS..HW..H[..
20000010:	08005f48                                H_..

20000014 <SystemCoreClock>:
20000014:	00f42400                                .$..

20000018 <uwTickPrio>:
20000018:	00000004                                ....

2000001c <uwTickFreq>:
2000001c:	00000001                                ....

20000020 <_impure_ptr>:
20000020:	20000024                                $.. 

20000024 <_impure_data>:
20000024:	00000000 2000062c 20000694 200006fc     ....,.. ... ... 
	...

20000070 <FLASH_Program_Fast>:
20000070:	b580      	push	{r7, lr}
20000072:	b088      	sub	sp, #32
20000074:	af00      	add	r7, sp, #0
20000076:	6078      	str	r0, [r7, #4]
20000078:	6039      	str	r1, [r7, #0]
2000007a:	231f      	movs	r3, #31
2000007c:	18fb      	adds	r3, r7, r3
2000007e:	2200      	movs	r2, #0
20000080:	701a      	strb	r2, [r3, #0]
20000082:	687b      	ldr	r3, [r7, #4]
20000084:	61bb      	str	r3, [r7, #24]
20000086:	683b      	ldr	r3, [r7, #0]
20000088:	617b      	str	r3, [r7, #20]
2000008a:	4b1a      	ldr	r3, [pc, #104]	@ (200000f4 <FLASH_Program_Fast+0x84>)
2000008c:	695a      	ldr	r2, [r3, #20]
2000008e:	4b19      	ldr	r3, [pc, #100]	@ (200000f4 <FLASH_Program_Fast+0x84>)
20000090:	2180      	movs	r1, #128	@ 0x80
20000092:	02c9      	lsls	r1, r1, #11
20000094:	430a      	orrs	r2, r1
20000096:	615a      	str	r2, [r3, #20]
20000098:	f3ef 8310 	mrs	r3, PRIMASK
2000009c:	60fb      	str	r3, [r7, #12]
2000009e:	68fb      	ldr	r3, [r7, #12]
200000a0:	613b      	str	r3, [r7, #16]
200000a2:	b672      	cpsid	i
200000a4:	46c0      	nop			@ (mov r8, r8)
200000a6:	e00f      	b.n	200000c8 <FLASH_Program_Fast+0x58>
200000a8:	697a      	ldr	r2, [r7, #20]
200000aa:	69bb      	ldr	r3, [r7, #24]
200000ac:	6812      	ldr	r2, [r2, #0]
200000ae:	601a      	str	r2, [r3, #0]
200000b0:	697b      	ldr	r3, [r7, #20]
200000b2:	3304      	adds	r3, #4
200000b4:	617b      	str	r3, [r7, #20]
200000b6:	69bb      	ldr	r3, [r7, #24]
200000b8:	3304      	adds	r3, #4
200000ba:	61bb      	str	r3, [r7, #24]
200000bc:	211f      	movs	r1, #31
200000be:	187b      	adds	r3, r7, r1
200000c0:	781a      	ldrb	r2, [r3, #0]
200000c2:	187b      	adds	r3, r7, r1
200000c4:	3201      	adds	r2, #1
200000c6:	701a      	strb	r2, [r3, #0]
200000c8:	231f      	movs	r3, #31
200000ca:	18fb      	adds	r3, r7, r3
200000cc:	781b      	ldrb	r3, [r3, #0]
200000ce:	2b3f      	cmp	r3, #63	@ 0x3f
200000d0:	d9ea      	bls.n	200000a8 <FLASH_Program_Fast+0x38>
200000d2:	46c0      	nop			@ (mov r8, r8)
200000d4:	4b07      	ldr	r3, [pc, #28]	@ (200000f4 <FLASH_Program_Fast+0x84>)
200000d6:	691a      	ldr	r2, [r3, #16]
200000d8:	2380      	movs	r3, #128	@ 0x80
200000da:	025b      	lsls	r3, r3, #9
200000dc:	4013      	ands	r3, r2
200000de:	d1f9      	bne.n	200000d4 <FLASH_Program_Fast+0x64>
200000e0:	693b      	ldr	r3, [r7, #16]
200000e2:	60bb      	str	r3, [r7, #8]
200000e4:	68bb      	ldr	r3, [r7, #8]
200000e6:	f383 8810 	msr	PRIMASK, r3
200000ea:	46c0      	nop			@ (mov r8, r8)
200000ec:	46c0      	nop			@ (mov r8, r8)
200000ee:	46bd      	mov	sp, r7
200000f0:	b008      	add	sp, #32
200000f2:	bd80      	pop	{r7, pc}
200000f4:	40022000 	.word	0x40022000
